ARM GAS  C:\DOCUME~1\ADMINI~1\LOCALS~1\Temp\ccc4CRi2.s 			page 1


   1              		.syntax unified
   2              		.cpu cortex-m3
   3              		.fpu softvfp
   4              		.eabi_attribute 20, 1
   5              		.eabi_attribute 21, 1
   6              		.eabi_attribute 23, 3
   7              		.eabi_attribute 24, 1
   8              		.eabi_attribute 25, 1
   9              		.eabi_attribute 26, 1
  10              		.eabi_attribute 30, 2
  11              		.eabi_attribute 34, 1
  12              		.eabi_attribute 18, 4
  13              		.thumb
  14              		.file	"chdynamic.c"
  15              		.text
  16              	.Ltext0:
  17              		.cfi_sections	.debug_frame
  18              		.section	.text.chThdAddRef,"ax",%progbits
  19              		.align	2
  20              		.global	chThdAddRef
  21              		.thumb
  22              		.thumb_func
  23              		.type	chThdAddRef, %function
  24              	chThdAddRef:
  25              	.LFB7:
  26              		.file 1 "../../os/kernel/src/chdynamic.c"
  27              		.loc 1 52 0
  28              		.cfi_startproc
  29              		@ args = 0, pretend = 0, frame = 0
  30              		@ frame_needed = 0, uses_anonymous_args = 0
  31              		@ link register save eliminated.
  32              	.LVL0:
  33              	.LBB2:
  34              		.loc 1 54 0
  35 0000 2023     		movs	r3, #32
  36              	.LVL1:
  37              	@ 54 "../../os/kernel/src/chdynamic.c" 1
  38 0002 83F31188 		msr     BASEPRI, r3
  39              	@ 0 "" 2
  40              	.LVL2:
  41              		.thumb
  42              	.LBE2:
  43              		.loc 1 56 0
  44 0006 817F     		ldrb	r1, [r0, #30]	@ zero_extendqisi2
  45              	.LBB3:
  46              		.loc 1 57 0
  47 0008 0023     		movs	r3, #0
  48              	.LVL3:
  49              	.LBE3:
  50              		.loc 1 56 0
  51 000a 0131     		adds	r1, r1, #1
  52 000c 8177     		strb	r1, [r0, #30]
  53              	.LBB4:
  54              		.loc 1 57 0
  55              	@ 57 "../../os/kernel/src/chdynamic.c" 1
  56 000e 83F31188 		msr     BASEPRI, r3
  57              	@ 0 "" 2
ARM GAS  C:\DOCUME~1\ADMINI~1\LOCALS~1\Temp\ccc4CRi2.s 			page 2


  58              	.LVL4:
  59              		.thumb
  60              	.LBE4:
  61              		.loc 1 59 0
  62 0012 7047     		bx	lr
  63              		.cfi_endproc
  64              	.LFE7:
  65              		.size	chThdAddRef, .-chThdAddRef
  66              		.section	.text.chThdRelease,"ax",%progbits
  67              		.align	2
  68              		.global	chThdRelease
  69              		.thumb
  70              		.thumb_func
  71              		.type	chThdRelease, %function
  72              	chThdRelease:
  73              	.LFB8:
  74              		.loc 1 74 0
  75              		.cfi_startproc
  76              		@ args = 0, pretend = 0, frame = 0
  77              		@ frame_needed = 0, uses_anonymous_args = 0
  78              		@ link register save eliminated.
  79              	.LVL5:
  80              		.loc 1 74 0
  81 0000 0146     		mov	r1, r0
  82              	.LBB5:
  83              		.loc 1 77 0
  84 0002 2023     		movs	r3, #32
  85              	.LVL6:
  86              	@ 77 "../../os/kernel/src/chdynamic.c" 1
  87 0004 83F31188 		msr     BASEPRI, r3
  88              	@ 0 "" 2
  89              	.LVL7:
  90              		.thumb
  91              	.LBE5:
  92              		.loc 1 79 0
  93 0008 827F     		ldrb	r2, [r0, #30]	@ zero_extendqisi2
  94              	.LBB6:
  95              		.loc 1 80 0
  96 000a 0023     		movs	r3, #0
  97              	.LVL8:
  98              	.LBE6:
  99              		.loc 1 79 0
 100 000c 013A     		subs	r2, r2, #1
 101 000e D2B2     		uxtb	r2, r2
 102 0010 8277     		strb	r2, [r0, #30]
 103              	.LVL9:
 104              	.LBB7:
 105              		.loc 1 80 0
 106              	@ 80 "../../os/kernel/src/chdynamic.c" 1
 107 0012 83F31188 		msr     BASEPRI, r3
 108              	@ 0 "" 2
 109              	.LVL10:
 110              		.thumb
 111              	.LBE7:
 112              		.loc 1 85 0
 113 0016 12B9     		cbnz	r2, .L2
 114              		.loc 1 85 0 is_stmt 0 discriminator 1
ARM GAS  C:\DOCUME~1\ADMINI~1\LOCALS~1\Temp\ccc4CRi2.s 			page 3


 115 0018 037F     		ldrb	r3, [r0, #28]	@ zero_extendqisi2
 116              	.LVL11:
 117 001a 0E2B     		cmp	r3, #14
 118 001c 00D0     		beq	.L7
 119              	.LVL12:
 120              	.L2:
 121 001e 7047     		bx	lr
 122              	.LVL13:
 123              	.L7:
 124              		.loc 1 86 0 is_stmt 1
 125 0020 437F     		ldrb	r3, [r0, #29]	@ zero_extendqisi2
 126 0022 03F00303 		and	r3, r3, #3
 127 0026 012B     		cmp	r3, #1
 128 0028 09D0     		beq	.L4
 129 002a 022B     		cmp	r3, #2
 130 002c F7D1     		bne	.L2
 131              		.loc 1 98 0
 132 002e 4369     		ldr	r3, [r0, #20]
 133 0030 0269     		ldr	r2, [r0, #16]
 134              	.LVL14:
 135              		.loc 1 100 0
 136 0032 406C     		ldr	r0, [r0, #68]
 137              	.LVL15:
 138              		.loc 1 98 0
 139 0034 1A61     		str	r2, [r3, #16]
 140 0036 0A69     		ldr	r2, [r1, #16]
 141 0038 5361     		str	r3, [r2, #20]
 142              		.loc 1 105 0
 143              		.loc 1 100 0
 144 003a FFF7FEBF 		b	chPoolFree
 145              	.LVL16:
 146              	.L4:
 147              		.loc 1 90 0
 148 003e 4369     		ldr	r3, [r0, #20]
 149 0040 0269     		ldr	r2, [r0, #16]
 150              	.LVL17:
 151 0042 1A61     		str	r2, [r3, #16]
 152 0044 0269     		ldr	r2, [r0, #16]
 153 0046 5361     		str	r3, [r2, #20]
 154              		.loc 1 105 0
 155              		.loc 1 92 0
 156 0048 FFF7FEBF 		b	chHeapFree
 157              	.LVL18:
 158              		.cfi_endproc
 159              	.LFE8:
 160              		.size	chThdRelease, .-chThdRelease
 161              		.section	.text.chThdCreateFromHeap,"ax",%progbits
 162              		.align	2
 163              		.global	chThdCreateFromHeap
 164              		.thumb
 165              		.thumb_func
 166              		.type	chThdCreateFromHeap, %function
 167              	chThdCreateFromHeap:
 168              	.LFB9:
 169              		.loc 1 131 0
 170              		.cfi_startproc
 171              		@ args = 4, pretend = 0, frame = 0
ARM GAS  C:\DOCUME~1\ADMINI~1\LOCALS~1\Temp\ccc4CRi2.s 			page 4


 172              		@ frame_needed = 0, uses_anonymous_args = 0
 173              	.LVL19:
 174 0000 F0B5     		push	{r4, r5, r6, r7, lr}
 175              	.LCFI0:
 176              		.cfi_def_cfa_offset 20
 177              		.cfi_offset 4, -20
 178              		.cfi_offset 5, -16
 179              		.cfi_offset 6, -12
 180              		.cfi_offset 7, -8
 181              		.cfi_offset 14, -4
 182 0002 83B0     		sub	sp, sp, #12
 183              	.LCFI1:
 184              		.cfi_def_cfa_offset 32
 185              		.loc 1 131 0
 186 0004 0D46     		mov	r5, r1
 187 0006 1746     		mov	r7, r2
 188 0008 1E46     		mov	r6, r3
 189              		.loc 1 135 0
 190 000a FFF7FEFF 		bl	chHeapAlloc
 191              	.LVL20:
 192              		.loc 1 136 0
 193 000e 0446     		mov	r4, r0
 194 0010 90B1     		cbz	r0, .L9
 195              	.LBB8:
 196              		.loc 1 148 0
 197 0012 2023     		movs	r3, #32
 198              	.LVL21:
 199              	@ 148 "../../os/kernel/src/chdynamic.c" 1
 200 0014 83F31188 		msr     BASEPRI, r3
 201              	@ 0 "" 2
 202              	.LVL22:
 203              		.thumb
 204              	.LBE8:
 205              		.loc 1 149 0
 206 0018 089C     		ldr	r4, [sp, #32]
 207 001a 3346     		mov	r3, r6
 208              	.LVL23:
 209 001c 2946     		mov	r1, r5
 210 001e 3A46     		mov	r2, r7
 211 0020 0094     		str	r4, [sp, #0]
 212 0022 FFF7FEFF 		bl	chThdCreateI
 213              	.LVL24:
 214              		.loc 1 150 0
 215 0026 0123     		movs	r3, #1
 216 0028 4377     		strb	r3, [r0, #29]
 217              		.loc 1 151 0
 218 002a 0021     		movs	r1, #0
 219              		.loc 1 149 0
 220 002c 0446     		mov	r4, r0
 221              	.LVL25:
 222              		.loc 1 151 0
 223 002e FFF7FEFF 		bl	chSchWakeupS
 224              	.LVL26:
 225              	.LBB9:
 226              		.loc 1 152 0
 227 0032 0023     		movs	r3, #0
 228              	.LVL27:
ARM GAS  C:\DOCUME~1\ADMINI~1\LOCALS~1\Temp\ccc4CRi2.s 			page 5


 229              	@ 152 "../../os/kernel/src/chdynamic.c" 1
 230 0034 83F31188 		msr     BASEPRI, r3
 231              	@ 0 "" 2
 232              	.LVL28:
 233              		.thumb
 234              	.L9:
 235              	.LBE9:
 236              		.loc 1 154 0
 237 0038 2046     		mov	r0, r4
 238 003a 03B0     		add	sp, sp, #12
 239 003c F0BD     		pop	{r4, r5, r6, r7, pc}
 240              		.cfi_endproc
 241              	.LFE9:
 242              		.size	chThdCreateFromHeap, .-chThdCreateFromHeap
 243 003e 00BF     		.section	.text.chThdCreateFromMemoryPool,"ax",%progbits
 244              		.align	2
 245              		.global	chThdCreateFromMemoryPool
 246              		.thumb
 247              		.thumb_func
 248              		.type	chThdCreateFromMemoryPool, %function
 249              	chThdCreateFromMemoryPool:
 250              	.LFB10:
 251              		.loc 1 180 0
 252              		.cfi_startproc
 253              		@ args = 0, pretend = 0, frame = 0
 254              		@ frame_needed = 0, uses_anonymous_args = 0
 255              	.LVL29:
 256 0000 2DE9F041 		push	{r4, r5, r6, r7, r8, lr}
 257              	.LCFI2:
 258              		.cfi_def_cfa_offset 24
 259              		.cfi_offset 4, -24
 260              		.cfi_offset 5, -20
 261              		.cfi_offset 6, -16
 262              		.cfi_offset 7, -12
 263              		.cfi_offset 8, -8
 264              		.cfi_offset 14, -4
 265 0004 82B0     		sub	sp, sp, #8
 266              	.LCFI3:
 267              		.cfi_def_cfa_offset 32
 268              		.loc 1 180 0
 269 0006 0546     		mov	r5, r0
 270 0008 0F46     		mov	r7, r1
 271 000a 9046     		mov	r8, r2
 272 000c 1E46     		mov	r6, r3
 273              		.loc 1 186 0
 274 000e FFF7FEFF 		bl	chPoolAlloc
 275              	.LVL30:
 276              		.loc 1 187 0
 277 0012 0446     		mov	r4, r0
 278 0014 90B1     		cbz	r0, .L12
 279              	.LBB10:
 280              		.loc 1 199 0
 281 0016 2023     		movs	r3, #32
 282              	.LVL31:
 283              	@ 199 "../../os/kernel/src/chdynamic.c" 1
 284 0018 83F31188 		msr     BASEPRI, r3
 285              	@ 0 "" 2
ARM GAS  C:\DOCUME~1\ADMINI~1\LOCALS~1\Temp\ccc4CRi2.s 			page 6


 286              	.LVL32:
 287              		.thumb
 288              	.LBE10:
 289              		.loc 1 200 0
 290 001c 6968     		ldr	r1, [r5, #4]
 291 001e 4346     		mov	r3, r8
 292              	.LVL33:
 293 0020 3A46     		mov	r2, r7
 294 0022 0096     		str	r6, [sp, #0]
 295 0024 FFF7FEFF 		bl	chThdCreateI
 296              	.LVL34:
 297              		.loc 1 201 0
 298 0028 0223     		movs	r3, #2
 299 002a 4377     		strb	r3, [r0, #29]
 300              		.loc 1 202 0
 301 002c 4564     		str	r5, [r0, #68]
 302              		.loc 1 203 0
 303 002e 0021     		movs	r1, #0
 304              		.loc 1 200 0
 305 0030 0446     		mov	r4, r0
 306              	.LVL35:
 307              		.loc 1 203 0
 308 0032 FFF7FEFF 		bl	chSchWakeupS
 309              	.LVL36:
 310              	.LBB11:
 311              		.loc 1 204 0
 312 0036 0023     		movs	r3, #0
 313              	.LVL37:
 314              	@ 204 "../../os/kernel/src/chdynamic.c" 1
 315 0038 83F31188 		msr     BASEPRI, r3
 316              	@ 0 "" 2
 317              	.LVL38:
 318              		.thumb
 319              	.L12:
 320              	.LBE11:
 321              		.loc 1 206 0
 322 003c 2046     		mov	r0, r4
 323 003e 02B0     		add	sp, sp, #8
 324 0040 BDE8F081 		pop	{r4, r5, r6, r7, r8, pc}
 325              		.cfi_endproc
 326              	.LFE10:
 327              		.size	chThdCreateFromMemoryPool, .-chThdCreateFromMemoryPool
 328              		.text
 329              	.Letext0:
 330              		.file 2 "c:\\program files\\yagarto\\bin\\../lib/gcc/arm-none-eabi/4.7.1/include/stddef.h"
 331              		.file 3 "c:/program files/yagarto/lib/gcc/../../arm-none-eabi/sys-include/stdint.h"
 332              		.file 4 "../../os/ports/GCC/ARMCMx/chtypes.h"
 333              		.file 5 "../../os/kernel/include/chlists.h"
 334              		.file 6 "../../os/kernel/include/chthreads.h"
 335              		.file 7 "../../os/ports/GCC/ARMCMx/chcore_v7m.h"
 336              		.file 8 "../../os/kernel/include/chmtx.h"
 337              		.file 9 "../../os/kernel/include/chmemcore.h"
 338              		.file 10 "../../os/kernel/include/chheap.h"
 339              		.file 11 "../../os/kernel/include/chmempools.h"
 340              		.file 12 "../../os/kernel/include/chschd.h"