ARM GAS  C:\DOCUME~1\ADMINI~1\LOCALS~1\Temp\cckZ5ZEo.s 			page 1


   1              		.syntax unified
   2              		.cpu cortex-m3
   3              		.fpu softvfp
   4              		.eabi_attribute 20, 1
   5              		.eabi_attribute 21, 1
   6              		.eabi_attribute 23, 3
   7              		.eabi_attribute 24, 1
   8              		.eabi_attribute 25, 1
   9              		.eabi_attribute 26, 1
  10              		.eabi_attribute 30, 2
  11              		.eabi_attribute 34, 1
  12              		.eabi_attribute 18, 4
  13              		.thumb
  14              		.file	"chprintf.c"
  15              		.text
  16              	.Ltext0:
  17              		.cfi_sections	.debug_frame
  18              		.section	.text.ltoa,"ax",%progbits
  19              		.align	2
  20              		.thumb
  21              		.thumb_func
  22              		.type	ltoa, %function
  23              	ltoa:
  24              	.LFB7:
  25              		.file 1 "../../os/various/chprintf.c"
  26              		.loc 1 42 0
  27              		.cfi_startproc
  28              		@ args = 0, pretend = 0, frame = 0
  29              		@ frame_needed = 0, uses_anonymous_args = 0
  30              		@ link register save eliminated.
  31              	.LVL0:
  32 0000 70B4     		push	{r4, r5, r6}
  33              	.LCFI0:
  34              		.cfi_def_cfa_offset 12
  35              		.cfi_offset 4, -12
  36              		.cfi_offset 5, -8
  37              		.cfi_offset 6, -4
  38              		.loc 1 46 0
  39 0002 00F10B06 		add	r6, r0, #11
  40              	.LVL1:
  41              		.loc 1 42 0
  42 0006 00F10A04 		add	r4, r0, #10
  43              	.LVL2:
  44              	.L3:
  45              		.loc 1 48 0
  46 000a B1FBF2F5 		udiv	r5, r1, r2
  47 000e 02FB1511 		mls	r1, r2, r5, r1
  48              	.LVL3:
  49              		.loc 1 49 0
  50 0012 01F13003 		add	r3, r1, #48
  51              	.LVL4:
  52              		.loc 1 50 0
  53 0016 392B     		cmp	r3, #57
  54              		.loc 1 51 0
  55 0018 C8BF     		it	gt
  56 001a 01F13703 		addgt	r3, r1, #55
  57              	.LVL5:
ARM GAS  C:\DOCUME~1\ADMINI~1\LOCALS~1\Temp\cckZ5ZEo.s 			page 2


  58              		.loc 1 52 0
  59 001e DBB2     		uxtb	r3, r3
  60              	.LVL6:
  61              		.loc 1 53 0
  62 0020 2946     		mov	r1, r5
  63              	.LVL7:
  64              		.loc 1 52 0
  65 0022 2546     		mov	r5, r4
  66              	.LVL8:
  67 0024 04F80139 		strb	r3, [r4], #-1
  68              	.LVL9:
  69              		.loc 1 53 0
  70 0028 0029     		cmp	r1, #0
  71 002a EED1     		bne	.L3
  72              	.LVL10:
  73              		.loc 1 55 0
  74 002c 711B     		subs	r1, r6, r5
  75              	.LVL11:
  76 002e 2A46     		mov	r2, r5
  77              	.LVL12:
  78              		.loc 1 42 0
  79 0030 4118     		adds	r1, r0, r1
  80              	.LVL13:
  81 0032 01E0     		b	.L5
  82              	.LVL14:
  83              	.L9:
  84 0034 12F8013F 		ldrb	r3, [r2, #1]!	@ zero_extendqisi2
  85              	.L5:
  86              		.loc 1 57 0 discriminator 1
  87 0038 00F8013B 		strb	r3, [r0], #1
  88              	.LVL15:
  89              		.loc 1 58 0 discriminator 1
  90 003c 8842     		cmp	r0, r1
  91 003e F9D1     		bne	.L9
  92              		.loc 1 61 0
  93 0040 70BC     		pop	{r4, r5, r6}
  94 0042 7047     		bx	lr
  95              		.cfi_endproc
  96              	.LFE7:
  97              		.size	ltoa, .-ltoa
  98              		.section	.text.chprintf,"ax",%progbits
  99              		.align	2
 100              		.global	chprintf
 101              		.thumb
 102              		.thumb_func
 103              		.type	chprintf, %function
 104              	chprintf:
 105              	.LFB8:
 106              		.loc 1 86 0
 107              		.cfi_startproc
 108              		@ args = 4, pretend = 12, frame = 24
 109              		@ frame_needed = 0, uses_anonymous_args = 1
 110              	.LVL16:
 111 0000 0EB4     		push	{r1, r2, r3}
 112              	.LCFI1:
 113              		.cfi_def_cfa_offset 12
 114              		.cfi_offset 1, -12
ARM GAS  C:\DOCUME~1\ADMINI~1\LOCALS~1\Temp\cckZ5ZEo.s 			page 3


 115              		.cfi_offset 2, -8
 116              		.cfi_offset 3, -4
 117 0002 2DE9F04F 		push	{r4, r5, r6, r7, r8, r9, sl, fp, lr}
 118              	.LCFI2:
 119              		.cfi_def_cfa_offset 48
 120              		.cfi_offset 4, -48
 121              		.cfi_offset 5, -44
 122              		.cfi_offset 6, -40
 123              		.cfi_offset 7, -36
 124              		.cfi_offset 8, -32
 125              		.cfi_offset 9, -28
 126              		.cfi_offset 10, -24
 127              		.cfi_offset 11, -20
 128              		.cfi_offset 14, -16
 129 0006 86B0     		sub	sp, sp, #24
 130              	.LCFI3:
 131              		.cfi_def_cfa_offset 72
 132              		.loc 1 86 0
 133 0008 0FAB     		add	r3, sp, #60
 134 000a 53F8044B 		ldr	r4, [r3], #4
 135              		.loc 1 197 0
 136 000e 0DF10D0C 		add	ip, sp, #13
 137              		.loc 1 105 0
 138 0012 0DF10C09 		add	r9, sp, #12
 139              		.loc 1 94 0
 140 0016 0293     		str	r3, [sp, #8]
 141 0018 C9EB0C03 		rsb	r3, r9, ip
 142              		.loc 1 197 0
 143 001c CDF800C0 		str	ip, [sp, #0]
 144              		.loc 1 86 0
 145 0020 0546     		mov	r5, r0
 146 0022 0193     		str	r3, [sp, #4]
 147              	.LVL17:
 148              	.L71:
 149              		.loc 1 96 0
 150 0024 2646     		mov	r6, r4
 151 0026 16F8011B 		ldrb	r1, [r6], #1	@ zero_extendqisi2
 152              	.LVL18:
 153              		.loc 1 97 0
 154 002a 69B1     		cbz	r1, .L70
 155              	.LVL19:
 156              	.L75:
 157              		.loc 1 101 0
 158 002c 2529     		cmp	r1, #37
 159 002e 10D0     		beq	.L13
 160              		.loc 1 102 0
 161 0030 2B68     		ldr	r3, [r5, #0]
 162              		.loc 1 96 0
 163 0032 3446     		mov	r4, r6
 164              		.loc 1 102 0
 165 0034 2846     		mov	r0, r5
 166 0036 1B69     		ldr	r3, [r3, #16]
 167 0038 4FF0FF32 		mov	r2, #-1
 168              		.loc 1 96 0
 169 003c 2646     		mov	r6, r4
 170              	.LVL20:
 171              		.loc 1 102 0
ARM GAS  C:\DOCUME~1\ADMINI~1\LOCALS~1\Temp\cckZ5ZEo.s 			page 4


 172 003e 9847     		blx	r3
 173              	.LVL21:
 174              		.loc 1 96 0
 175 0040 16F8011B 		ldrb	r1, [r6], #1	@ zero_extendqisi2
 176              	.LVL22:
 177              		.loc 1 97 0
 178 0044 0029     		cmp	r1, #0
 179 0046 F1D1     		bne	.L75
 180              	.LVL23:
 181              	.L70:
 182              		.loc 1 222 0
 183 0048 06B0     		add	sp, sp, #24
 184 004a BDE8F04F 		pop	{r4, r5, r6, r7, r8, r9, sl, fp, lr}
 185 004e 03B0     		add	sp, sp, #12
 186 0050 7047     		bx	lr
 187              	.L13:
 188              	.LVL24:
 189              		.loc 1 108 0
 190 0052 6378     		ldrb	r3, [r4, #1]	@ zero_extendqisi2
 191 0054 2D2B     		cmp	r3, #45
 192              		.loc 1 107 0
 193 0056 18BF     		it	ne
 194 0058 4FF00008 		movne	r8, #0
 195              		.loc 1 108 0
 196 005c 00F01881 		beq	.L76
 197              	.LVL25:
 198              	.L15:
 199              		.loc 1 112 0
 200 0060 2027     		movs	r7, #32
 201              		.loc 1 113 0
 202 0062 2E2B     		cmp	r3, #46
 203 0064 00F01081 		beq	.L77
 204              	.LVL26:
 205              	.L16:
 206              		.loc 1 115 0
 207 0068 3446     		mov	r4, r6
 208 006a 0299     		ldr	r1, [sp, #8]
 209              		.loc 1 117 0
 210 006c 0026     		movs	r6, #0
 211              	.LVL27:
 212 006e 06E0     		b	.L19
 213              	.LVL28:
 214              	.L78:
 215              		.loc 1 123 0
 216 0070 0A78     		ldrb	r2, [r1, #0]	@ zero_extendqisi2
 217              	.LVL29:
 218 0072 0431     		adds	r1, r1, #4
 219              	.LVL30:
 220              	.L17:
 221              		.loc 1 126 0
 222 0074 06EB8606 		add	r6, r6, r6, lsl #2
 223              	.LVL31:
 224 0078 2378     		ldrb	r3, [r4, #0]	@ zero_extendqisi2
 225 007a 02EB4606 		add	r6, r2, r6, lsl #1
 226              	.LVL32:
 227              	.L19:
 228              		.loc 1 120 0
ARM GAS  C:\DOCUME~1\ADMINI~1\LOCALS~1\Temp\cckZ5ZEo.s 			page 5


 229 007e A3F13002 		sub	r2, r3, #48
 230 0082 D2B2     		uxtb	r2, r2
 231              		.loc 1 119 0
 232 0084 0134     		adds	r4, r4, #1
 233              	.LVL33:
 234              		.loc 1 120 0
 235 0086 092A     		cmp	r2, #9
 236 0088 F4D9     		bls	.L17
 237              		.loc 1 122 0
 238 008a 2A2B     		cmp	r3, #42
 239 008c F0D0     		beq	.L78
 240              		.loc 1 129 0
 241 008e 0020     		movs	r0, #0
 242 0090 2E2B     		cmp	r3, #46
 243 0092 0291     		str	r1, [sp, #8]
 244              	.LVL34:
 245 0094 49D0     		beq	.L23
 246              	.LVL35:
 247              		.loc 1 143 0
 248 0096 03F0DF02 		and	r2, r3, #223
 249 009a 4C2A     		cmp	r2, #76
 250 009c 55D1     		bne	.L24
 251              	.LVL36:
 252              	.L79:
 253              		.loc 1 145 0
 254 009e 2278     		ldrb	r2, [r4, #0]	@ zero_extendqisi2
 255              		.loc 1 144 0
 256 00a0 0121     		movs	r1, #1
 257              		.loc 1 145 0
 258 00a2 12B1     		cbz	r2, .L25
 259              	.LVL37:
 260              		.loc 1 146 0
 261 00a4 0134     		adds	r4, r4, #1
 262              	.LVL38:
 263 00a6 1346     		mov	r3, r2
 264              		.loc 1 144 0
 265 00a8 0121     		movs	r1, #1
 266              	.LVL39:
 267              	.L25:
 268              		.loc 1 152 0
 269 00aa A3F14402 		sub	r2, r3, #68
 270 00ae 342A     		cmp	r2, #52
 271 00b0 00F2E280 		bhi	.L26
 272 00b4 DFE812F0 		tbh	[pc, r2, lsl #1]
 273              	.L33:
 274 00b8 D000     		.2byte	(.L27-.L33)/2
 275 00ba E000     		.2byte	(.L26-.L33)/2
 276 00bc E000     		.2byte	(.L26-.L33)/2
 277 00be E000     		.2byte	(.L26-.L33)/2
 278 00c0 E000     		.2byte	(.L26-.L33)/2
 279 00c2 E000     		.2byte	(.L26-.L33)/2
 280 00c4 E000     		.2byte	(.L26-.L33)/2
 281 00c6 E000     		.2byte	(.L26-.L33)/2
 282 00c8 E000     		.2byte	(.L26-.L33)/2
 283 00ca E000     		.2byte	(.L26-.L33)/2
 284 00cc E000     		.2byte	(.L26-.L33)/2
 285 00ce E600     		.2byte	(.L28-.L33)/2
ARM GAS  C:\DOCUME~1\ADMINI~1\LOCALS~1\Temp\cckZ5ZEo.s 			page 6


 286 00d0 E000     		.2byte	(.L26-.L33)/2
 287 00d2 E000     		.2byte	(.L26-.L33)/2
 288 00d4 E000     		.2byte	(.L26-.L33)/2
 289 00d6 E000     		.2byte	(.L26-.L33)/2
 290 00d8 E000     		.2byte	(.L26-.L33)/2
 291 00da C800     		.2byte	(.L56-.L33)/2
 292 00dc E000     		.2byte	(.L26-.L33)/2
 293 00de E000     		.2byte	(.L26-.L33)/2
 294 00e0 BB00     		.2byte	(.L30-.L33)/2
 295 00e2 E000     		.2byte	(.L26-.L33)/2
 296 00e4 E000     		.2byte	(.L26-.L33)/2
 297 00e6 E000     		.2byte	(.L26-.L33)/2
 298 00e8 E000     		.2byte	(.L26-.L33)/2
 299 00ea E000     		.2byte	(.L26-.L33)/2
 300 00ec E000     		.2byte	(.L26-.L33)/2
 301 00ee E000     		.2byte	(.L26-.L33)/2
 302 00f0 E000     		.2byte	(.L26-.L33)/2
 303 00f2 E000     		.2byte	(.L26-.L33)/2
 304 00f4 E000     		.2byte	(.L26-.L33)/2
 305 00f6 9900     		.2byte	(.L31-.L33)/2
 306 00f8 D000     		.2byte	(.L27-.L33)/2
 307 00fa E000     		.2byte	(.L26-.L33)/2
 308 00fc E000     		.2byte	(.L26-.L33)/2
 309 00fe E000     		.2byte	(.L26-.L33)/2
 310 0100 E000     		.2byte	(.L26-.L33)/2
 311 0102 E000     		.2byte	(.L26-.L33)/2
 312 0104 E000     		.2byte	(.L26-.L33)/2
 313 0106 E000     		.2byte	(.L26-.L33)/2
 314 0108 E000     		.2byte	(.L26-.L33)/2
 315 010a E000     		.2byte	(.L26-.L33)/2
 316 010c E000     		.2byte	(.L26-.L33)/2
 317 010e E600     		.2byte	(.L28-.L33)/2
 318 0110 E000     		.2byte	(.L26-.L33)/2
 319 0112 E000     		.2byte	(.L26-.L33)/2
 320 0114 E000     		.2byte	(.L26-.L33)/2
 321 0116 5000     		.2byte	(.L32-.L33)/2
 322 0118 E000     		.2byte	(.L26-.L33)/2
 323 011a C800     		.2byte	(.L56-.L33)/2
 324 011c E000     		.2byte	(.L26-.L33)/2
 325 011e E000     		.2byte	(.L26-.L33)/2
 326 0120 BB00     		.2byte	(.L30-.L33)/2
 327              	.LVL40:
 328              	.L22:
 329              		.loc 1 135 0
 330 0122 0A78     		ldrb	r2, [r1, #0]	@ zero_extendqisi2
 331              	.LVL41:
 332 0124 0431     		adds	r1, r1, #4
 333              	.LVL42:
 334              	.L21:
 335              		.loc 1 139 0
 336 0126 02EB4C00 		add	r0, r2, ip, lsl #1
 337              	.LVL43:
 338              	.L23:
 339              		.loc 1 131 0
 340 012a 14F8013B 		ldrb	r3, [r4], #1	@ zero_extendqisi2
 341              	.LVL44:
 342              		.loc 1 138 0
ARM GAS  C:\DOCUME~1\ADMINI~1\LOCALS~1\Temp\cckZ5ZEo.s 			page 7


 343 012e 00EB800C 		add	ip, r0, r0, lsl #2
 344              		.loc 1 132 0
 345 0132 A3F13002 		sub	r2, r3, #48
 346 0136 D2B2     		uxtb	r2, r2
 347 0138 092A     		cmp	r2, #9
 348 013a F4D9     		bls	.L21
 349              		.loc 1 134 0
 350 013c 2A2B     		cmp	r3, #42
 351 013e F0D0     		beq	.L22
 352              		.loc 1 143 0
 353 0140 03F0DF02 		and	r2, r3, #223
 354 0144 4C2A     		cmp	r2, #76
 355 0146 0291     		str	r1, [sp, #8]
 356 0148 A9D0     		beq	.L79
 357              	.LVL45:
 358              	.L24:
 359              		.loc 1 149 0
 360 014a A3F14101 		sub	r1, r3, #65
 361 014e 1929     		cmp	r1, #25
 362 0150 8CBF     		ite	hi
 363 0152 0021     		movhi	r1, #0
 364 0154 0121     		movls	r1, #1
 365              	.LVL46:
 366 0156 A8E7     		b	.L25
 367              	.LVL47:
 368              	.L32:
 369              		.loc 1 159 0
 370 0158 029B     		ldr	r3, [sp, #8]
 371              	.LVL48:
 372              		.loc 1 160 0
 373 015a 40F20002 		movw	r2, #:lower16:.LC0
 374              	.LVL49:
 375              		.loc 1 159 0
 376 015e D3F800A0 		ldr	sl, [r3, #0]
 377              	.LVL50:
 378              		.loc 1 160 0
 379 0162 C0F20002 		movt	r2, #:upper16:.LC0
 380 0166 BAF1000F 		cmp	sl, #0
 381 016a 08BF     		it	eq
 382 016c 9246     		moveq	sl, r2
 383              	.LVL51:
 384              		.loc 1 159 0
 385 016e 0433     		adds	r3, r3, #4
 386              		.loc 1 163 0
 387 0170 9AF80020 		ldrb	r2, [sl, #0]	@ zero_extendqisi2
 388              		.loc 1 159 0
 389 0174 0293     		str	r3, [sp, #8]
 390              		.loc 1 162 0
 391 0176 47F6FF73 		movw	r3, #32767
 392 017a 0028     		cmp	r0, #0
 393 017c 08BF     		it	eq
 394 017e 1846     		moveq	r0, r3
 395              	.LVL52:
 396              		.loc 1 163 0
 397 0180 002A     		cmp	r2, #0
 398 0182 00F0A880 		beq	.L59
 399              	.LVL53:
ARM GAS  C:\DOCUME~1\ADMINI~1\LOCALS~1\Temp\cckZ5ZEo.s 			page 8


 400 0186 5346     		mov	r3, sl
 401              		.loc 1 86 0
 402 0188 5044     		add	r0, sl, r0
 403              	.LVL54:
 404 018a 02E0     		b	.L38
 405              	.LVL55:
 406              	.L37:
 407              		.loc 1 163 0 discriminator 2
 408 018c 9042     		cmp	r0, r2
 409 018e 00F09E80 		beq	.L80
 410              	.LVL56:
 411              	.L38:
 412              		.loc 1 163 0 is_stmt 0 discriminator 1
 413 0192 5978     		ldrb	r1, [r3, #1]	@ zero_extendqisi2
 414              		.loc 1 86 0 is_stmt 1 discriminator 1
 415 0194 5A1C     		adds	r2, r3, #1
 416              	.LVL57:
 417 0196 1346     		mov	r3, r2
 418              		.loc 1 163 0 discriminator 1
 419 0198 0029     		cmp	r1, #0
 420 019a F7D1     		bne	.L37
 421 019c CAEB020B 		rsb	fp, sl, r2
 422              		.loc 1 201 0
 423 01a0 CBEB0606 		rsb	r6, fp, r6
 424              	.LVL58:
 425              		.loc 1 158 0
 426 01a4 2027     		movs	r7, #32
 427              	.LVL59:
 428 01a6 26EAE676 		bic	r6, r6, r6, asr #31
 429              	.LVL60:
 430              		.loc 1 203 0
 431 01aa B8F1000F 		cmp	r8, #0
 432 01ae 2DD0     		beq	.L81
 433              	.LVL61:
 434              	.L44:
 435              		.loc 1 214 0 discriminator 1
 436 01b0 BBF1000F 		cmp	fp, #0
 437              		.loc 1 86 0 discriminator 1
 438 01b4 C8BF     		it	gt
 439 01b6 0AEB0B08 		addgt	r8, sl, fp
 440              	.LVL62:
 441              		.loc 1 214 0 discriminator 1
 442 01ba 09DD     		ble	.L50
 443              	.LVL63:
 444              	.L49:
 445              		.loc 1 215 0
 446 01bc 2B68     		ldr	r3, [r5, #0]
 447 01be 1AF8011B 		ldrb	r1, [sl], #1	@ zero_extendqisi2
 448              	.LVL64:
 449 01c2 1B69     		ldr	r3, [r3, #16]
 450 01c4 2846     		mov	r0, r5
 451 01c6 4FF0FF32 		mov	r2, #-1
 452 01ca 9847     		blx	r3
 453              	.LVL65:
 454              		.loc 1 214 0
 455 01cc C245     		cmp	sl, r8
 456 01ce F5D1     		bne	.L49
ARM GAS  C:\DOCUME~1\ADMINI~1\LOCALS~1\Temp\cckZ5ZEo.s 			page 9


 457              	.L50:
 458              	.LVL66:
 459              		.loc 1 217 0
 460 01d0 002E     		cmp	r6, #0
 461 01d2 3FF427AF 		beq	.L71
 462              	.L63:
 463              		.loc 1 218 0
 464 01d6 2B68     		ldr	r3, [r5, #0]
 465 01d8 2846     		mov	r0, r5
 466 01da 1B69     		ldr	r3, [r3, #16]
 467 01dc 3946     		mov	r1, r7
 468 01de 4FF0FF32 		mov	r2, #-1
 469 01e2 9847     		blx	r3
 470              	.LVL67:
 471              		.loc 1 217 0
 472 01e4 013E     		subs	r6, r6, #1
 473              	.LVL68:
 474 01e6 F6D1     		bne	.L63
 475 01e8 1CE7     		b	.L71
 476              	.LVL69:
 477              	.L31:
 478              		.loc 1 155 0
 479 01ea 029B     		ldr	r3, [sp, #8]
 480              	.LVL70:
 481 01ec DDF804B0 		ldr	fp, [sp, #4]
 482 01f0 1A68     		ldr	r2, [r3, #0]
 483              	.LVL71:
 484 01f2 0433     		adds	r3, r3, #4
 485 01f4 0293     		str	r3, [sp, #8]
 486 01f6 8DF80C20 		strb	r2, [sp, #12]
 487              	.LVL72:
 488              		.loc 1 154 0
 489 01fa 2027     		movs	r7, #32
 490              		.loc 1 106 0
 491 01fc CA46     		mov	sl, r9
 492              	.LVL73:
 493              	.L34:
 494              		.loc 1 201 0
 495 01fe CBEB0606 		rsb	r6, fp, r6
 496              	.LVL74:
 497 0202 26EAE676 		bic	r6, r6, r6, asr #31
 498              	.LVL75:
 499              		.loc 1 203 0
 500 0206 B8F1000F 		cmp	r8, #0
 501 020a D1D1     		bne	.L44
 502              	.LVL76:
 503              	.L81:
 504              		.loc 1 204 0
 505 020c 7642     		negs	r6, r6
 506              	.LVL77:
 507              		.loc 1 205 0
 508 020e 002E     		cmp	r6, #0
 509 0210 CED0     		beq	.L44
 510              		.loc 1 206 0
 511 0212 9AF80010 		ldrb	r1, [sl, #0]	@ zero_extendqisi2
 512 0216 2D29     		cmp	r1, #45
 513 0218 4CD0     		beq	.L82
ARM GAS  C:\DOCUME~1\ADMINI~1\LOCALS~1\Temp\cckZ5ZEo.s 			page 10


 514              	.LVL78:
 515              	.L64:
 516              		.loc 1 211 0 discriminator 1
 517 021a 2B68     		ldr	r3, [r5, #0]
 518 021c 2846     		mov	r0, r5
 519 021e 1B69     		ldr	r3, [r3, #16]
 520 0220 3946     		mov	r1, r7
 521 0222 4FF0FF32 		mov	r2, #-1
 522 0226 9847     		blx	r3
 523              	.LVL79:
 524              		.loc 1 212 0 discriminator 1
 525 0228 0136     		adds	r6, r6, #1
 526              	.LVL80:
 527 022a F6D1     		bne	.L64
 528 022c C0E7     		b	.L44
 529              	.LVL81:
 530              	.L30:
 531              		.loc 1 152 0
 532 022e 1022     		movs	r2, #16
 533              	.LVL82:
 534              	.L29:
 535              		.loc 1 191 0
 536 0230 029B     		ldr	r3, [sp, #8]
 537              		.loc 1 190 0
 538 0232 69B1     		cbz	r1, .L42
 539              	.L83:
 540              		.loc 1 191 0
 541 0234 191D     		adds	r1, r3, #4
 542              	.LVL83:
 543 0236 0291     		str	r1, [sp, #8]
 544 0238 1968     		ldr	r1, [r3, #0]
 545              	.LVL84:
 546              	.L43:
 547              		.loc 1 194 0
 548 023a 4846     		mov	r0, r9
 549 023c FFF7FEFF 		bl	ltoa
 550              	.LVL85:
 551              		.loc 1 106 0
 552 0240 CA46     		mov	sl, r9
 553 0242 C9EB000B 		rsb	fp, r9, r0
 554              		.loc 1 195 0
 555 0246 DAE7     		b	.L34
 556              	.LVL86:
 557              	.L56:
 558              		.loc 1 152 0
 559 0248 0A22     		movs	r2, #10
 560              	.LVL87:
 561              		.loc 1 191 0
 562 024a 029B     		ldr	r3, [sp, #8]
 563              		.loc 1 190 0
 564 024c 0029     		cmp	r1, #0
 565 024e F1D1     		bne	.L83
 566              	.L42:
 567              		.loc 1 193 0
 568 0250 181D     		adds	r0, r3, #4
 569              	.LVL88:
 570 0252 1968     		ldr	r1, [r3, #0]
ARM GAS  C:\DOCUME~1\ADMINI~1\LOCALS~1\Temp\cckZ5ZEo.s 			page 11


 571              	.LVL89:
 572 0254 0290     		str	r0, [sp, #8]
 573 0256 F0E7     		b	.L43
 574              	.LVL90:
 575              	.L27:
 576              		.loc 1 169 0
 577 0258 029B     		ldr	r3, [sp, #8]
 578              	.LVL91:
 579 025a 1A1D     		adds	r2, r3, #4
 580              	.LVL92:
 581              		.loc 1 168 0
 582 025c E9B9     		cbnz	r1, .L84
 583              		.loc 1 171 0
 584 025e 1968     		ldr	r1, [r3, #0]
 585              	.LVL93:
 586 0260 0292     		str	r2, [sp, #8]
 587              		.loc 1 172 0
 588 0262 0029     		cmp	r1, #0
 589              		.loc 1 105 0
 590 0264 A8BF     		it	ge
 591 0266 4846     		movge	r0, r9
 592              	.LVL94:
 593              		.loc 1 172 0
 594 0268 1DDB     		blt	.L85
 595              	.LVL95:
 596              	.L41:
 597              		.loc 1 176 0
 598 026a 0A22     		movs	r2, #10
 599 026c FFF7FEFF 		bl	ltoa
 600              	.LVL96:
 601              		.loc 1 106 0
 602 0270 CA46     		mov	sl, r9
 603 0272 C9EB000B 		rsb	fp, r9, r0
 604              		.loc 1 177 0
 605 0276 C2E7     		b	.L34
 606              	.LVL97:
 607              	.L26:
 608              		.loc 1 197 0
 609 0278 8DF80C30 		strb	r3, [sp, #12]
 610              	.LVL98:
 611 027c DDF804B0 		ldr	fp, [sp, #4]
 612              		.loc 1 106 0
 613 0280 CA46     		mov	sl, r9
 614              		.loc 1 198 0
 615 0282 BCE7     		b	.L34
 616              	.LVL99:
 617              	.L28:
 618 0284 0822     		movs	r2, #8
 619 0286 D3E7     		b	.L29
 620              	.LVL100:
 621              	.L77:
 622 0288 7378     		ldrb	r3, [r6, #1]	@ zero_extendqisi2
 623              		.loc 1 115 0
 624 028a 3027     		movs	r7, #48
 625              		.loc 1 114 0
 626 028c 0136     		adds	r6, r6, #1
 627              	.LVL101:
ARM GAS  C:\DOCUME~1\ADMINI~1\LOCALS~1\Temp\cckZ5ZEo.s 			page 12


 628 028e EBE6     		b	.L16
 629              	.LVL102:
 630              	.L76:
 631              		.loc 1 109 0
 632 0290 A61C     		adds	r6, r4, #2
 633              	.LVL103:
 634 0292 A378     		ldrb	r3, [r4, #2]	@ zero_extendqisi2
 635              		.loc 1 110 0
 636 0294 4FF00108 		mov	r8, #1
 637 0298 E2E6     		b	.L15
 638              	.LVL104:
 639              	.L84:
 640              		.loc 1 169 0
 641 029a 1968     		ldr	r1, [r3, #0]
 642              	.LVL105:
 643 029c 0292     		str	r2, [sp, #8]
 644              		.loc 1 172 0
 645 029e 0029     		cmp	r1, #0
 646              		.loc 1 105 0
 647 02a0 A8BF     		it	ge
 648 02a2 4846     		movge	r0, r9
 649              	.LVL106:
 650              		.loc 1 172 0
 651 02a4 E1DA     		bge	.L41
 652              	.L85:
 653              		.loc 1 173 0
 654 02a6 2D23     		movs	r3, #45
 655 02a8 8DF80C30 		strb	r3, [sp, #12]
 656              	.LVL107:
 657              		.loc 1 174 0
 658 02ac 4942     		negs	r1, r1
 659              	.LVL108:
 660              		.loc 1 173 0
 661 02ae 0DF10D00 		add	r0, sp, #13
 662 02b2 DAE7     		b	.L41
 663              	.LVL109:
 664              	.L82:
 665              		.loc 1 206 0 discriminator 1
 666 02b4 302F     		cmp	r7, #48
 667 02b6 B0D1     		bne	.L64
 668              		.loc 1 207 0
 669 02b8 2B68     		ldr	r3, [r5, #0]
 670 02ba 2846     		mov	r0, r5
 671 02bc 1B69     		ldr	r3, [r3, #16]
 672 02be 4FF0FF32 		mov	r2, #-1
 673 02c2 9847     		blx	r3
 674              	.LVL110:
 675 02c4 0AF1010A 		add	sl, sl, #1
 676              	.LVL111:
 677              		.loc 1 208 0
 678 02c8 0BF1FF3B 		add	fp, fp, #-1
 679              	.LVL112:
 680 02cc A5E7     		b	.L64
 681              	.LVL113:
 682              	.L80:
 683 02ce CAEB000B 		rsb	fp, sl, r0
 684              		.loc 1 158 0
ARM GAS  C:\DOCUME~1\ADMINI~1\LOCALS~1\Temp\cckZ5ZEo.s 			page 13


 685 02d2 2027     		movs	r7, #32
 686 02d4 93E7     		b	.L34
 687              	.LVL114:
 688              	.L59:
 689              		.loc 1 163 0
 690 02d6 9346     		mov	fp, r2
 691              		.loc 1 158 0
 692 02d8 2027     		movs	r7, #32
 693 02da 90E7     		b	.L34
 694              		.cfi_endproc
 695              	.LFE8:
 696              		.size	chprintf, .-chprintf
 697              		.section	.rodata.str1.4,"aMS",%progbits,1
 698              		.align	2
 699              	.LC0:
 700 0000 286E756C 		.ascii	"(null)\000"
 700      6C2900
 701 0007 00       		.text
 702              	.Letext0:
 703              		.file 2 "c:\\program files\\yagarto\\bin\\../lib/gcc/arm-none-eabi/4.7.1/include/stdarg.h"
 704              		.file 3 "c:\\program files\\yagarto\\bin\\../lib/gcc/arm-none-eabi/4.7.1/include/stddef.h"
 705              		.file 4 "c:/program files/yagarto/lib/gcc/../../arm-none-eabi/sys-include/stdint.h"
 706              		.file 5 "../../os/ports/GCC/ARMCMx/chtypes.h"
 707              		.file 6 "<built-in>"
 708              		.file 7 "../../os/kernel/include/chioch.h"
 709              		.section	.debug_info,"",%progbits
 710              	.Ldebug_info0:
 711 0000 9E040000 		.4byte	0x49e
 712 0004 0200     		.2byte	0x2
 713 0006 00000000 		.4byte	.Ldebug_abbrev0
 714 000a 04       		.byte	0x4
 715 000b 01       		.uleb128 0x1
 716 000c 5B010000 		.4byte	.LASF36
 717 0010 01       		.byte	0x1
 718 0011 B8000000 		.4byte	.LASF37
 719 0015 AF010000 		.4byte	.LASF38
 720 0019 00000000 		.4byte	.Ldebug_ranges0+0
 721 001d 00000000 		.4byte	0
 722 0021 00000000 		.4byte	0
 723 0025 00000000 		.4byte	.Ldebug_line0
 724 0029 02       		.uleb128 0x2
 725 002a 9D000000 		.4byte	.LASF0
 726 002e 02       		.byte	0x2
 727 002f 28       		.byte	0x28
 728 0030 34000000 		.4byte	0x34
 729 0034 03       		.uleb128 0x3
 730 0035 34010000 		.4byte	.LASF20
 731 0039 04       		.byte	0x4
 732 003a 06       		.byte	0x6
 733 003b 00       		.byte	0
 734 003c 4E000000 		.4byte	0x4e
 735 0040 04       		.uleb128 0x4
 736 0041 11000000 		.4byte	.LASF39
 737 0045 4E000000 		.4byte	0x4e
 738 0049 02       		.byte	0x2
 739 004a 23       		.byte	0x23
 740 004b 00       		.uleb128 0
ARM GAS  C:\DOCUME~1\ADMINI~1\LOCALS~1\Temp\cckZ5ZEo.s 			page 14


 741 004c 01       		.byte	0x1
 742 004d 00       		.byte	0
 743 004e 05       		.uleb128 0x5
 744 004f 04       		.byte	0x4
 745 0050 02       		.uleb128 0x2
 746 0051 39000000 		.4byte	.LASF1
 747 0055 02       		.byte	0x2
 748 0056 66       		.byte	0x66
 749 0057 29000000 		.4byte	0x29
 750 005b 06       		.uleb128 0x6
 751 005c 04       		.byte	0x4
 752 005d 05       		.byte	0x5
 753 005e 696E7400 		.ascii	"int\000"
 754 0062 02       		.uleb128 0x2
 755 0063 00000000 		.4byte	.LASF2
 756 0067 03       		.byte	0x3
 757 0068 D5       		.byte	0xd5
 758 0069 6D000000 		.4byte	0x6d
 759 006d 07       		.uleb128 0x7
 760 006e 04       		.byte	0x4
 761 006f 07       		.byte	0x7
 762 0070 1E000000 		.4byte	.LASF3
 763 0074 07       		.uleb128 0x7
 764 0075 01       		.byte	0x1
 765 0076 06       		.byte	0x6
 766 0077 9E010000 		.4byte	.LASF4
 767 007b 02       		.uleb128 0x2
 768 007c EB000000 		.4byte	.LASF5
 769 0080 04       		.byte	0x4
 770 0081 2A       		.byte	0x2a
 771 0082 86000000 		.4byte	0x86
 772 0086 07       		.uleb128 0x7
 773 0087 01       		.byte	0x1
 774 0088 08       		.byte	0x8
 775 0089 41000000 		.4byte	.LASF6
 776 008d 07       		.uleb128 0x7
 777 008e 02       		.byte	0x2
 778 008f 05       		.byte	0x5
 779 0090 72010000 		.4byte	.LASF7
 780 0094 07       		.uleb128 0x7
 781 0095 02       		.byte	0x2
 782 0096 07       		.byte	0x7
 783 0097 67000000 		.4byte	.LASF8
 784 009b 02       		.uleb128 0x2
 785 009c 1C010000 		.4byte	.LASF9
 786 00a0 04       		.byte	0x4
 787 00a1 4F       		.byte	0x4f
 788 00a2 A6000000 		.4byte	0xa6
 789 00a6 07       		.uleb128 0x7
 790 00a7 04       		.byte	0x4
 791 00a8 05       		.byte	0x5
 792 00a9 95010000 		.4byte	.LASF10
 793 00ad 02       		.uleb128 0x2
 794 00ae 8C010000 		.4byte	.LASF11
 795 00b2 04       		.byte	0x4
 796 00b3 50       		.byte	0x50
 797 00b4 B8000000 		.4byte	0xb8
ARM GAS  C:\DOCUME~1\ADMINI~1\LOCALS~1\Temp\cckZ5ZEo.s 			page 15


 798 00b8 07       		.uleb128 0x7
 799 00b9 04       		.byte	0x4
 800 00ba 07       		.byte	0x7
 801 00bb 55000000 		.4byte	.LASF12
 802 00bf 07       		.uleb128 0x7
 803 00c0 08       		.byte	0x8
 804 00c1 05       		.byte	0x5
 805 00c2 3E010000 		.4byte	.LASF13
 806 00c6 07       		.uleb128 0x7
 807 00c7 08       		.byte	0x8
 808 00c8 07       		.byte	0x7
 809 00c9 D4000000 		.4byte	.LASF14
 810 00cd 02       		.uleb128 0x2
 811 00ce 2B000000 		.4byte	.LASF15
 812 00d2 05       		.byte	0x5
 813 00d3 2E       		.byte	0x2e
 814 00d4 9B000000 		.4byte	0x9b
 815 00d8 02       		.uleb128 0x2
 816 00d9 07010000 		.4byte	.LASF16
 817 00dd 05       		.byte	0x5
 818 00de 33       		.byte	0x33
 819 00df 9B000000 		.4byte	0x9b
 820 00e3 02       		.uleb128 0x2
 821 00e4 07000000 		.4byte	.LASF17
 822 00e8 05       		.byte	0x5
 823 00e9 36       		.byte	0x36
 824 00ea AD000000 		.4byte	0xad
 825 00ee 07       		.uleb128 0x7
 826 00ef 04       		.byte	0x4
 827 00f0 07       		.byte	0x7
 828 00f1 24010000 		.4byte	.LASF18
 829 00f5 08       		.uleb128 0x8
 830 00f6 04       		.byte	0x4
 831 00f7 FB000000 		.4byte	0xfb
 832 00fb 09       		.uleb128 0x9
 833 00fc 00010000 		.4byte	0x100
 834 0100 07       		.uleb128 0x7
 835 0101 01       		.byte	0x1
 836 0102 08       		.byte	0x8
 837 0103 56010000 		.4byte	.LASF19
 838 0107 08       		.uleb128 0x8
 839 0108 04       		.byte	0x4
 840 0109 7B000000 		.4byte	0x7b
 841 010d 0A       		.uleb128 0xa
 842 010e 01       		.byte	0x1
 843 010f 62000000 		.4byte	0x62
 844 0113 27010000 		.4byte	0x127
 845 0117 0B       		.uleb128 0xb
 846 0118 4E000000 		.4byte	0x4e
 847 011c 0B       		.uleb128 0xb
 848 011d 27010000 		.4byte	0x127
 849 0121 0B       		.uleb128 0xb
 850 0122 62000000 		.4byte	0x62
 851 0126 00       		.byte	0
 852 0127 08       		.uleb128 0x8
 853 0128 04       		.byte	0x4
 854 0129 2D010000 		.4byte	0x12d
ARM GAS  C:\DOCUME~1\ADMINI~1\LOCALS~1\Temp\cckZ5ZEo.s 			page 16


 855 012d 09       		.uleb128 0x9
 856 012e 7B000000 		.4byte	0x7b
 857 0132 08       		.uleb128 0x8
 858 0133 04       		.byte	0x4
 859 0134 0D010000 		.4byte	0x10d
 860 0138 0A       		.uleb128 0xa
 861 0139 01       		.byte	0x1
 862 013a 62000000 		.4byte	0x62
 863 013e 52010000 		.4byte	0x152
 864 0142 0B       		.uleb128 0xb
 865 0143 4E000000 		.4byte	0x4e
 866 0147 0B       		.uleb128 0xb
 867 0148 07010000 		.4byte	0x107
 868 014c 0B       		.uleb128 0xb
 869 014d 62000000 		.4byte	0x62
 870 0151 00       		.byte	0
 871 0152 08       		.uleb128 0x8
 872 0153 04       		.byte	0x4
 873 0154 38010000 		.4byte	0x138
 874 0158 03       		.uleb128 0x3
 875 0159 0D010000 		.4byte	.LASF21
 876 015d 20       		.byte	0x20
 877 015e 07       		.byte	0x7
 878 015f 51       		.byte	0x51
 879 0160 D5010000 		.4byte	0x1d5
 880 0164 0C       		.uleb128 0xc
 881 0165 7A000000 		.4byte	.LASF22
 882 0169 07       		.byte	0x7
 883 016a 52       		.byte	0x52
 884 016b 32010000 		.4byte	0x132
 885 016f 02       		.byte	0x2
 886 0170 23       		.byte	0x23
 887 0171 00       		.uleb128 0
 888 0172 0C       		.uleb128 0xc
 889 0173 AC000000 		.4byte	.LASF23
 890 0177 07       		.byte	0x7
 891 0178 52       		.byte	0x52
 892 0179 52010000 		.4byte	0x152
 893 017d 02       		.byte	0x2
 894 017e 23       		.byte	0x23
 895 017f 04       		.uleb128 0x4
 896 0180 0C       		.uleb128 0xc
 897 0181 8F000000 		.4byte	.LASF24
 898 0185 07       		.byte	0x7
 899 0186 52       		.byte	0x52
 900 0187 E5010000 		.4byte	0x1e5
 901 018b 02       		.byte	0x2
 902 018c 23       		.byte	0x23
 903 018d 08       		.uleb128 0x8
 904 018e 0C       		.uleb128 0xc
 905 018f F9000000 		.4byte	.LASF25
 906 0193 07       		.byte	0x7
 907 0194 52       		.byte	0x52
 908 0195 E5010000 		.4byte	0x1e5
 909 0199 02       		.byte	0x2
 910 019a 23       		.byte	0x23
 911 019b 0C       		.uleb128 0xc
ARM GAS  C:\DOCUME~1\ADMINI~1\LOCALS~1\Temp\cckZ5ZEo.s 			page 17


 912 019c 0D       		.uleb128 0xd
 913 019d 70757400 		.ascii	"put\000"
 914 01a1 07       		.byte	0x7
 915 01a2 52       		.byte	0x52
 916 01a3 05020000 		.4byte	0x205
 917 01a7 02       		.byte	0x2
 918 01a8 23       		.byte	0x23
 919 01a9 10       		.uleb128 0x10
 920 01aa 0D       		.uleb128 0xd
 921 01ab 67657400 		.ascii	"get\000"
 922 01af 07       		.byte	0x7
 923 01b0 52       		.byte	0x52
 924 01b1 20020000 		.4byte	0x220
 925 01b5 02       		.byte	0x2
 926 01b6 23       		.byte	0x23
 927 01b7 14       		.uleb128 0x14
 928 01b8 0C       		.uleb128 0xc
 929 01b9 32000000 		.4byte	.LASF26
 930 01bd 07       		.byte	0x7
 931 01be 52       		.byte	0x52
 932 01bf 45020000 		.4byte	0x245
 933 01c3 02       		.byte	0x2
 934 01c4 23       		.byte	0x23
 935 01c5 18       		.uleb128 0x18
 936 01c6 0C       		.uleb128 0xc
 937 01c7 4F000000 		.4byte	.LASF27
 938 01cb 07       		.byte	0x7
 939 01cc 52       		.byte	0x52
 940 01cd 6A020000 		.4byte	0x26a
 941 01d1 02       		.byte	0x2
 942 01d2 23       		.byte	0x23
 943 01d3 1C       		.uleb128 0x1c
 944 01d4 00       		.byte	0
 945 01d5 0A       		.uleb128 0xa
 946 01d6 01       		.byte	0x1
 947 01d7 CD000000 		.4byte	0xcd
 948 01db E5010000 		.4byte	0x1e5
 949 01df 0B       		.uleb128 0xb
 950 01e0 4E000000 		.4byte	0x4e
 951 01e4 00       		.byte	0
 952 01e5 08       		.uleb128 0x8
 953 01e6 04       		.byte	0x4
 954 01e7 D5010000 		.4byte	0x1d5
 955 01eb 0A       		.uleb128 0xa
 956 01ec 01       		.byte	0x1
 957 01ed D8000000 		.4byte	0xd8
 958 01f1 05020000 		.4byte	0x205
 959 01f5 0B       		.uleb128 0xb
 960 01f6 4E000000 		.4byte	0x4e
 961 01fa 0B       		.uleb128 0xb
 962 01fb 7B000000 		.4byte	0x7b
 963 01ff 0B       		.uleb128 0xb
 964 0200 E3000000 		.4byte	0xe3
 965 0204 00       		.byte	0
 966 0205 08       		.uleb128 0x8
 967 0206 04       		.byte	0x4
 968 0207 EB010000 		.4byte	0x1eb
ARM GAS  C:\DOCUME~1\ADMINI~1\LOCALS~1\Temp\cckZ5ZEo.s 			page 18


 969 020b 0A       		.uleb128 0xa
 970 020c 01       		.byte	0x1
 971 020d D8000000 		.4byte	0xd8
 972 0211 20020000 		.4byte	0x220
 973 0215 0B       		.uleb128 0xb
 974 0216 4E000000 		.4byte	0x4e
 975 021a 0B       		.uleb128 0xb
 976 021b E3000000 		.4byte	0xe3
 977 021f 00       		.byte	0
 978 0220 08       		.uleb128 0x8
 979 0221 04       		.byte	0x4
 980 0222 0B020000 		.4byte	0x20b
 981 0226 0A       		.uleb128 0xa
 982 0227 01       		.byte	0x1
 983 0228 62000000 		.4byte	0x62
 984 022c 45020000 		.4byte	0x245
 985 0230 0B       		.uleb128 0xb
 986 0231 4E000000 		.4byte	0x4e
 987 0235 0B       		.uleb128 0xb
 988 0236 27010000 		.4byte	0x127
 989 023a 0B       		.uleb128 0xb
 990 023b 62000000 		.4byte	0x62
 991 023f 0B       		.uleb128 0xb
 992 0240 E3000000 		.4byte	0xe3
 993 0244 00       		.byte	0
 994 0245 08       		.uleb128 0x8
 995 0246 04       		.byte	0x4
 996 0247 26020000 		.4byte	0x226
 997 024b 0A       		.uleb128 0xa
 998 024c 01       		.byte	0x1
 999 024d 62000000 		.4byte	0x62
 1000 0251 6A020000 		.4byte	0x26a
 1001 0255 0B       		.uleb128 0xb
 1002 0256 4E000000 		.4byte	0x4e
 1003 025a 0B       		.uleb128 0xb
 1004 025b 07010000 		.4byte	0x107
 1005 025f 0B       		.uleb128 0xb
 1006 0260 62000000 		.4byte	0x62
 1007 0264 0B       		.uleb128 0xb
 1008 0265 E3000000 		.4byte	0xe3
 1009 0269 00       		.byte	0
 1010 026a 08       		.uleb128 0x8
 1011 026b 04       		.byte	0x4
 1012 026c 4B020000 		.4byte	0x24b
 1013 0270 0E       		.uleb128 0xe
 1014 0271 04       		.byte	0x4
 1015 0272 07       		.byte	0x7
 1016 0273 5C       		.byte	0x5c
 1017 0274 87020000 		.4byte	0x287
 1018 0278 0D       		.uleb128 0xd
 1019 0279 766D7400 		.ascii	"vmt\000"
 1020 027d 07       		.byte	0x7
 1021 027e 5E       		.byte	0x5e
 1022 027f 87020000 		.4byte	0x287
 1023 0283 02       		.byte	0x2
 1024 0284 23       		.byte	0x23
 1025 0285 00       		.uleb128 0
ARM GAS  C:\DOCUME~1\ADMINI~1\LOCALS~1\Temp\cckZ5ZEo.s 			page 19


 1026 0286 00       		.byte	0
 1027 0287 08       		.uleb128 0x8
 1028 0288 04       		.byte	0x4
 1029 0289 8D020000 		.4byte	0x28d
 1030 028d 09       		.uleb128 0x9
 1031 028e 58010000 		.4byte	0x158
 1032 0292 02       		.uleb128 0x2
 1033 0293 D6010000 		.4byte	.LASF28
 1034 0297 07       		.byte	0x7
 1035 0298 60       		.byte	0x60
 1036 0299 70020000 		.4byte	0x270
 1037 029d 0F       		.uleb128 0xf
 1038 029e AA010000 		.4byte	.LASF40
 1039 02a2 01       		.byte	0x1
 1040 02a3 2A       		.byte	0x2a
 1041 02a4 01       		.byte	0x1
 1042 02a5 00030000 		.4byte	0x300
 1043 02a9 00000000 		.4byte	.LFB7
 1044 02ad 44000000 		.4byte	.LFE7
 1045 02b1 00000000 		.4byte	.LLST0
 1046 02b5 01       		.byte	0x1
 1047 02b6 00030000 		.4byte	0x300
 1048 02ba 10       		.uleb128 0x10
 1049 02bb 7000     		.ascii	"p\000"
 1050 02bd 01       		.byte	0x1
 1051 02be 2A       		.byte	0x2a
 1052 02bf 00030000 		.4byte	0x300
 1053 02c3 20000000 		.4byte	.LLST1
 1054 02c7 10       		.uleb128 0x10
 1055 02c8 6E756D00 		.ascii	"num\000"
 1056 02cc 01       		.byte	0x1
 1057 02cd 2A       		.byte	0x2a
 1058 02ce A6000000 		.4byte	0xa6
 1059 02d2 3E000000 		.4byte	.LLST2
 1060 02d6 11       		.uleb128 0x11
 1061 02d7 F3000000 		.4byte	.LASF29
 1062 02db 01       		.byte	0x1
 1063 02dc 2A       		.byte	0x2a
 1064 02dd 6D000000 		.4byte	0x6d
 1065 02e1 5C000000 		.4byte	.LLST3
 1066 02e5 12       		.uleb128 0x12
 1067 02e6 6900     		.ascii	"i\000"
 1068 02e8 01       		.byte	0x1
 1069 02e9 2B       		.byte	0x2b
 1070 02ea 5B000000 		.4byte	0x5b
 1071 02ee 7D000000 		.4byte	.LLST4
 1072 02f2 12       		.uleb128 0x12
 1073 02f3 7100     		.ascii	"q\000"
 1074 02f5 01       		.byte	0x1
 1075 02f6 2C       		.byte	0x2c
 1076 02f7 00030000 		.4byte	0x300
 1077 02fb C6000000 		.4byte	.LLST5
 1078 02ff 00       		.byte	0
 1079 0300 08       		.uleb128 0x8
 1080 0301 04       		.byte	0x4
 1081 0302 00010000 		.4byte	0x100
 1082 0306 13       		.uleb128 0x13
ARM GAS  C:\DOCUME~1\ADMINI~1\LOCALS~1\Temp\cckZ5ZEo.s 			page 20


 1083 0307 01       		.byte	0x1
 1084 0308 86000000 		.4byte	.LASF41
 1085 030c 01       		.byte	0x1
 1086 030d 56       		.byte	0x56
 1087 030e 01       		.byte	0x1
 1088 030f 00000000 		.4byte	.LFB8
 1089 0313 DC020000 		.4byte	.LFE8
 1090 0317 EF000000 		.4byte	.LLST6
 1091 031b 01       		.byte	0x1
 1092 031c 8F040000 		.4byte	0x48f
 1093 0320 10       		.uleb128 0x10
 1094 0321 63687000 		.ascii	"chp\000"
 1095 0325 01       		.byte	0x1
 1096 0326 56       		.byte	0x56
 1097 0327 8F040000 		.4byte	0x48f
 1098 032b 28010000 		.4byte	.LLST7
 1099 032f 10       		.uleb128 0x10
 1100 0330 666D7400 		.ascii	"fmt\000"
 1101 0334 01       		.byte	0x1
 1102 0335 56       		.byte	0x56
 1103 0336 F5000000 		.4byte	0xf5
 1104 033a 46010000 		.4byte	.LLST8
 1105 033e 14       		.uleb128 0x14
 1106 033f 15       		.uleb128 0x15
 1107 0340 617000   		.ascii	"ap\000"
 1108 0343 01       		.byte	0x1
 1109 0344 57       		.byte	0x57
 1110 0345 50000000 		.4byte	0x50
 1111 0349 02       		.byte	0x2
 1112 034a 91       		.byte	0x91
 1113 034b 40       		.sleb128 -64
 1114 034c 16       		.uleb128 0x16
 1115 034d 2D010000 		.4byte	.LASF30
 1116 0351 01       		.byte	0x1
 1117 0352 58       		.byte	0x58
 1118 0353 95040000 		.4byte	0x495
 1119 0357 02       		.byte	0x2
 1120 0358 91       		.byte	0x91
 1121 0359 44       		.sleb128 -60
 1122 035a 12       		.uleb128 0x12
 1123 035b 7000     		.ascii	"p\000"
 1124 035d 01       		.byte	0x1
 1125 035e 59       		.byte	0x59
 1126 035f 00030000 		.4byte	0x300
 1127 0363 BF010000 		.4byte	.LLST9
 1128 0367 12       		.uleb128 0x12
 1129 0368 7300     		.ascii	"s\000"
 1130 036a 01       		.byte	0x1
 1131 036b 59       		.byte	0x59
 1132 036c 00030000 		.4byte	0x300
 1133 0370 90020000 		.4byte	.LLST10
 1134 0374 12       		.uleb128 0x12
 1135 0375 6300     		.ascii	"c\000"
 1136 0377 01       		.byte	0x1
 1137 0378 59       		.byte	0x59
 1138 0379 00010000 		.4byte	0x100
 1139 037d F2020000 		.4byte	.LLST11
ARM GAS  C:\DOCUME~1\ADMINI~1\LOCALS~1\Temp\cckZ5ZEo.s 			page 21


 1140 0381 17       		.uleb128 0x17
 1141 0382 B1000000 		.4byte	.LASF31
 1142 0386 01       		.byte	0x1
 1143 0387 59       		.byte	0x59
 1144 0388 00010000 		.4byte	0x100
 1145 038c 09040000 		.4byte	.LLST12
 1146 0390 12       		.uleb128 0x12
 1147 0391 6900     		.ascii	"i\000"
 1148 0393 01       		.byte	0x1
 1149 0394 5A       		.byte	0x5a
 1150 0395 5B000000 		.4byte	0x5b
 1151 0399 89040000 		.4byte	.LLST13
 1152 039d 17       		.uleb128 0x17
 1153 039e 4C010000 		.4byte	.LASF32
 1154 03a2 01       		.byte	0x1
 1155 03a3 5A       		.byte	0x5a
 1156 03a4 5B000000 		.4byte	0x5b
 1157 03a8 BF040000 		.4byte	.LLST14
 1158 03ac 17       		.uleb128 0x17
 1159 03ad 80000000 		.4byte	.LASF33
 1160 03b1 01       		.byte	0x1
 1161 03b2 5A       		.byte	0x5a
 1162 03b3 5B000000 		.4byte	0x5b
 1163 03b7 52050000 		.4byte	.LLST15
 1164 03bb 17       		.uleb128 0x17
 1165 03bc 16000000 		.4byte	.LASF34
 1166 03c0 01       		.byte	0x1
 1167 03c1 5B       		.byte	0x5b
 1168 03c2 CD000000 		.4byte	0xcd
 1169 03c6 CD050000 		.4byte	.LLST16
 1170 03ca 17       		.uleb128 0x17
 1171 03cb 67010000 		.4byte	.LASF35
 1172 03cf 01       		.byte	0x1
 1173 03d0 5B       		.byte	0x5b
 1174 03d1 CD000000 		.4byte	0xcd
 1175 03d5 44060000 		.4byte	.LLST17
 1176 03d9 12       		.uleb128 0x12
 1177 03da 6C00     		.ascii	"l\000"
 1178 03dc 01       		.byte	0x1
 1179 03dd 5C       		.byte	0x5c
 1180 03de A6000000 		.4byte	0xa6
 1181 03e2 91060000 		.4byte	.LLST18
 1182 03e6 18       		.uleb128 0x18
 1183 03e7 7C010000 		.4byte	.LASF42
 1184 03eb 01       		.byte	0x1
 1185 03ec BD       		.byte	0xbd
 1186 03ed 30020000 		.4byte	.L29
 1187 03f1 19       		.uleb128 0x19
 1188 03f2 40000000 		.4byte	.LVL21
 1189 03f6 07040000 		.4byte	0x407
 1190 03fa 1A       		.uleb128 0x1a
 1191 03fb 01       		.byte	0x1
 1192 03fc 52       		.byte	0x52
 1193 03fd 02       		.byte	0x2
 1194 03fe 09       		.byte	0x9
 1195 03ff FF       		.byte	0xff
 1196 0400 1A       		.uleb128 0x1a
ARM GAS  C:\DOCUME~1\ADMINI~1\LOCALS~1\Temp\cckZ5ZEo.s 			page 22


 1197 0401 01       		.byte	0x1
 1198 0402 50       		.byte	0x50
 1199 0403 02       		.byte	0x2
 1200 0404 75       		.byte	0x75
 1201 0405 00       		.sleb128 0
 1202 0406 00       		.byte	0
 1203 0407 19       		.uleb128 0x19
 1204 0408 CC010000 		.4byte	.LVL65
 1205 040c 1D040000 		.4byte	0x41d
 1206 0410 1A       		.uleb128 0x1a
 1207 0411 01       		.byte	0x1
 1208 0412 52       		.byte	0x52
 1209 0413 02       		.byte	0x2
 1210 0414 09       		.byte	0x9
 1211 0415 FF       		.byte	0xff
 1212 0416 1A       		.uleb128 0x1a
 1213 0417 01       		.byte	0x1
 1214 0418 50       		.byte	0x50
 1215 0419 02       		.byte	0x2
 1216 041a 75       		.byte	0x75
 1217 041b 00       		.sleb128 0
 1218 041c 00       		.byte	0
 1219 041d 19       		.uleb128 0x19
 1220 041e E4010000 		.4byte	.LVL67
 1221 0422 39040000 		.4byte	0x439
 1222 0426 1A       		.uleb128 0x1a
 1223 0427 01       		.byte	0x1
 1224 0428 52       		.byte	0x52
 1225 0429 02       		.byte	0x2
 1226 042a 09       		.byte	0x9
 1227 042b FF       		.byte	0xff
 1228 042c 1A       		.uleb128 0x1a
 1229 042d 01       		.byte	0x1
 1230 042e 51       		.byte	0x51
 1231 042f 02       		.byte	0x2
 1232 0430 77       		.byte	0x77
 1233 0431 00       		.sleb128 0
 1234 0432 1A       		.uleb128 0x1a
 1235 0433 01       		.byte	0x1
 1236 0434 50       		.byte	0x50
 1237 0435 02       		.byte	0x2
 1238 0436 75       		.byte	0x75
 1239 0437 00       		.sleb128 0
 1240 0438 00       		.byte	0
 1241 0439 19       		.uleb128 0x19
 1242 043a 28020000 		.4byte	.LVL79
 1243 043e 55040000 		.4byte	0x455
 1244 0442 1A       		.uleb128 0x1a
 1245 0443 01       		.byte	0x1
 1246 0444 52       		.byte	0x52
 1247 0445 02       		.byte	0x2
 1248 0446 09       		.byte	0x9
 1249 0447 FF       		.byte	0xff
 1250 0448 1A       		.uleb128 0x1a
 1251 0449 01       		.byte	0x1
 1252 044a 51       		.byte	0x51
 1253 044b 02       		.byte	0x2
ARM GAS  C:\DOCUME~1\ADMINI~1\LOCALS~1\Temp\cckZ5ZEo.s 			page 23


 1254 044c 77       		.byte	0x77
 1255 044d 00       		.sleb128 0
 1256 044e 1A       		.uleb128 0x1a
 1257 044f 01       		.byte	0x1
 1258 0450 50       		.byte	0x50
 1259 0451 02       		.byte	0x2
 1260 0452 75       		.byte	0x75
 1261 0453 00       		.sleb128 0
 1262 0454 00       		.byte	0
 1263 0455 1B       		.uleb128 0x1b
 1264 0456 40020000 		.4byte	.LVL85
 1265 045a 9D020000 		.4byte	0x29d
 1266 045e 69040000 		.4byte	0x469
 1267 0462 1A       		.uleb128 0x1a
 1268 0463 01       		.byte	0x1
 1269 0464 50       		.byte	0x50
 1270 0465 02       		.byte	0x2
 1271 0466 79       		.byte	0x79
 1272 0467 00       		.sleb128 0
 1273 0468 00       		.byte	0
 1274 0469 1B       		.uleb128 0x1b
 1275 046a 70020000 		.4byte	.LVL96
 1276 046e 9D020000 		.4byte	0x29d
 1277 0472 7C040000 		.4byte	0x47c
 1278 0476 1A       		.uleb128 0x1a
 1279 0477 01       		.byte	0x1
 1280 0478 52       		.byte	0x52
 1281 0479 01       		.byte	0x1
 1282 047a 3A       		.byte	0x3a
 1283 047b 00       		.byte	0
 1284 047c 1C       		.uleb128 0x1c
 1285 047d C4020000 		.4byte	.LVL110
 1286 0481 1A       		.uleb128 0x1a
 1287 0482 01       		.byte	0x1
 1288 0483 52       		.byte	0x52
 1289 0484 02       		.byte	0x2
 1290 0485 09       		.byte	0x9
 1291 0486 FF       		.byte	0xff
 1292 0487 1A       		.uleb128 0x1a
 1293 0488 01       		.byte	0x1
 1294 0489 50       		.byte	0x50
 1295 048a 02       		.byte	0x2
 1296 048b 75       		.byte	0x75
 1297 048c 00       		.sleb128 0
 1298 048d 00       		.byte	0
 1299 048e 00       		.byte	0
 1300 048f 08       		.uleb128 0x8
 1301 0490 04       		.byte	0x4
 1302 0491 92020000 		.4byte	0x292
 1303 0495 1D       		.uleb128 0x1d
 1304 0496 00010000 		.4byte	0x100
 1305 049a 1E       		.uleb128 0x1e
 1306 049b EE000000 		.4byte	0xee
 1307 049f 0B       		.byte	0xb
 1308 04a0 00       		.byte	0
 1309 04a1 00       		.byte	0
 1310              		.section	.debug_abbrev,"",%progbits
ARM GAS  C:\DOCUME~1\ADMINI~1\LOCALS~1\Temp\cckZ5ZEo.s 			page 24


 1311              	.Ldebug_abbrev0:
 1312 0000 01       		.uleb128 0x1
 1313 0001 11       		.uleb128 0x11
 1314 0002 01       		.byte	0x1
 1315 0003 25       		.uleb128 0x25
 1316 0004 0E       		.uleb128 0xe
 1317 0005 13       		.uleb128 0x13
 1318 0006 0B       		.uleb128 0xb
 1319 0007 03       		.uleb128 0x3
 1320 0008 0E       		.uleb128 0xe
 1321 0009 1B       		.uleb128 0x1b
 1322 000a 0E       		.uleb128 0xe
 1323 000b 55       		.uleb128 0x55
 1324 000c 06       		.uleb128 0x6
 1325 000d 11       		.uleb128 0x11
 1326 000e 01       		.uleb128 0x1
 1327 000f 52       		.uleb128 0x52
 1328 0010 01       		.uleb128 0x1
 1329 0011 10       		.uleb128 0x10
 1330 0012 06       		.uleb128 0x6
 1331 0013 00       		.byte	0
 1332 0014 00       		.byte	0
 1333 0015 02       		.uleb128 0x2
 1334 0016 16       		.uleb128 0x16
 1335 0017 00       		.byte	0
 1336 0018 03       		.uleb128 0x3
 1337 0019 0E       		.uleb128 0xe
 1338 001a 3A       		.uleb128 0x3a
 1339 001b 0B       		.uleb128 0xb
 1340 001c 3B       		.uleb128 0x3b
 1341 001d 0B       		.uleb128 0xb
 1342 001e 49       		.uleb128 0x49
 1343 001f 13       		.uleb128 0x13
 1344 0020 00       		.byte	0
 1345 0021 00       		.byte	0
 1346 0022 03       		.uleb128 0x3
 1347 0023 13       		.uleb128 0x13
 1348 0024 01       		.byte	0x1
 1349 0025 03       		.uleb128 0x3
 1350 0026 0E       		.uleb128 0xe
 1351 0027 0B       		.uleb128 0xb
 1352 0028 0B       		.uleb128 0xb
 1353 0029 3A       		.uleb128 0x3a
 1354 002a 0B       		.uleb128 0xb
 1355 002b 3B       		.uleb128 0x3b
 1356 002c 0B       		.uleb128 0xb
 1357 002d 01       		.uleb128 0x1
 1358 002e 13       		.uleb128 0x13
 1359 002f 00       		.byte	0
 1360 0030 00       		.byte	0
 1361 0031 04       		.uleb128 0x4
 1362 0032 0D       		.uleb128 0xd
 1363 0033 00       		.byte	0
 1364 0034 03       		.uleb128 0x3
 1365 0035 0E       		.uleb128 0xe
 1366 0036 49       		.uleb128 0x49
 1367 0037 13       		.uleb128 0x13
ARM GAS  C:\DOCUME~1\ADMINI~1\LOCALS~1\Temp\cckZ5ZEo.s 			page 25


 1368 0038 38       		.uleb128 0x38
 1369 0039 0A       		.uleb128 0xa
 1370 003a 34       		.uleb128 0x34
 1371 003b 0C       		.uleb128 0xc
 1372 003c 00       		.byte	0
 1373 003d 00       		.byte	0
 1374 003e 05       		.uleb128 0x5
 1375 003f 0F       		.uleb128 0xf
 1376 0040 00       		.byte	0
 1377 0041 0B       		.uleb128 0xb
 1378 0042 0B       		.uleb128 0xb
 1379 0043 00       		.byte	0
 1380 0044 00       		.byte	0
 1381 0045 06       		.uleb128 0x6
 1382 0046 24       		.uleb128 0x24
 1383 0047 00       		.byte	0
 1384 0048 0B       		.uleb128 0xb
 1385 0049 0B       		.uleb128 0xb
 1386 004a 3E       		.uleb128 0x3e
 1387 004b 0B       		.uleb128 0xb
 1388 004c 03       		.uleb128 0x3
 1389 004d 08       		.uleb128 0x8
 1390 004e 00       		.byte	0
 1391 004f 00       		.byte	0
 1392 0050 07       		.uleb128 0x7
 1393 0051 24       		.uleb128 0x24
 1394 0052 00       		.byte	0
 1395 0053 0B       		.uleb128 0xb
 1396 0054 0B       		.uleb128 0xb
 1397 0055 3E       		.uleb128 0x3e
 1398 0056 0B       		.uleb128 0xb
 1399 0057 03       		.uleb128 0x3
 1400 0058 0E       		.uleb128 0xe
 1401 0059 00       		.byte	0
 1402 005a 00       		.byte	0
 1403 005b 08       		.uleb128 0x8
 1404 005c 0F       		.uleb128 0xf
 1405 005d 00       		.byte	0
 1406 005e 0B       		.uleb128 0xb
 1407 005f 0B       		.uleb128 0xb
 1408 0060 49       		.uleb128 0x49
 1409 0061 13       		.uleb128 0x13
 1410 0062 00       		.byte	0
 1411 0063 00       		.byte	0
 1412 0064 09       		.uleb128 0x9
 1413 0065 26       		.uleb128 0x26
 1414 0066 00       		.byte	0
 1415 0067 49       		.uleb128 0x49
 1416 0068 13       		.uleb128 0x13
 1417 0069 00       		.byte	0
 1418 006a 00       		.byte	0
 1419 006b 0A       		.uleb128 0xa
 1420 006c 15       		.uleb128 0x15
 1421 006d 01       		.byte	0x1
 1422 006e 27       		.uleb128 0x27
 1423 006f 0C       		.uleb128 0xc
 1424 0070 49       		.uleb128 0x49
ARM GAS  C:\DOCUME~1\ADMINI~1\LOCALS~1\Temp\cckZ5ZEo.s 			page 26


 1425 0071 13       		.uleb128 0x13
 1426 0072 01       		.uleb128 0x1
 1427 0073 13       		.uleb128 0x13
 1428 0074 00       		.byte	0
 1429 0075 00       		.byte	0
 1430 0076 0B       		.uleb128 0xb
 1431 0077 05       		.uleb128 0x5
 1432 0078 00       		.byte	0
 1433 0079 49       		.uleb128 0x49
 1434 007a 13       		.uleb128 0x13
 1435 007b 00       		.byte	0
 1436 007c 00       		.byte	0
 1437 007d 0C       		.uleb128 0xc
 1438 007e 0D       		.uleb128 0xd
 1439 007f 00       		.byte	0
 1440 0080 03       		.uleb128 0x3
 1441 0081 0E       		.uleb128 0xe
 1442 0082 3A       		.uleb128 0x3a
 1443 0083 0B       		.uleb128 0xb
 1444 0084 3B       		.uleb128 0x3b
 1445 0085 0B       		.uleb128 0xb
 1446 0086 49       		.uleb128 0x49
 1447 0087 13       		.uleb128 0x13
 1448 0088 38       		.uleb128 0x38
 1449 0089 0A       		.uleb128 0xa
 1450 008a 00       		.byte	0
 1451 008b 00       		.byte	0
 1452 008c 0D       		.uleb128 0xd
 1453 008d 0D       		.uleb128 0xd
 1454 008e 00       		.byte	0
 1455 008f 03       		.uleb128 0x3
 1456 0090 08       		.uleb128 0x8
 1457 0091 3A       		.uleb128 0x3a
 1458 0092 0B       		.uleb128 0xb
 1459 0093 3B       		.uleb128 0x3b
 1460 0094 0B       		.uleb128 0xb
 1461 0095 49       		.uleb128 0x49
 1462 0096 13       		.uleb128 0x13
 1463 0097 38       		.uleb128 0x38
 1464 0098 0A       		.uleb128 0xa
 1465 0099 00       		.byte	0
 1466 009a 00       		.byte	0
 1467 009b 0E       		.uleb128 0xe
 1468 009c 13       		.uleb128 0x13
 1469 009d 01       		.byte	0x1
 1470 009e 0B       		.uleb128 0xb
 1471 009f 0B       		.uleb128 0xb
 1472 00a0 3A       		.uleb128 0x3a
 1473 00a1 0B       		.uleb128 0xb
 1474 00a2 3B       		.uleb128 0x3b
 1475 00a3 0B       		.uleb128 0xb
 1476 00a4 01       		.uleb128 0x1
 1477 00a5 13       		.uleb128 0x13
 1478 00a6 00       		.byte	0
 1479 00a7 00       		.byte	0
 1480 00a8 0F       		.uleb128 0xf
 1481 00a9 2E       		.uleb128 0x2e
ARM GAS  C:\DOCUME~1\ADMINI~1\LOCALS~1\Temp\cckZ5ZEo.s 			page 27


 1482 00aa 01       		.byte	0x1
 1483 00ab 03       		.uleb128 0x3
 1484 00ac 0E       		.uleb128 0xe
 1485 00ad 3A       		.uleb128 0x3a
 1486 00ae 0B       		.uleb128 0xb
 1487 00af 3B       		.uleb128 0x3b
 1488 00b0 0B       		.uleb128 0xb
 1489 00b1 27       		.uleb128 0x27
 1490 00b2 0C       		.uleb128 0xc
 1491 00b3 49       		.uleb128 0x49
 1492 00b4 13       		.uleb128 0x13
 1493 00b5 11       		.uleb128 0x11
 1494 00b6 01       		.uleb128 0x1
 1495 00b7 12       		.uleb128 0x12
 1496 00b8 01       		.uleb128 0x1
 1497 00b9 40       		.uleb128 0x40
 1498 00ba 06       		.uleb128 0x6
 1499 00bb 9742     		.uleb128 0x2117
 1500 00bd 0C       		.uleb128 0xc
 1501 00be 01       		.uleb128 0x1
 1502 00bf 13       		.uleb128 0x13
 1503 00c0 00       		.byte	0
 1504 00c1 00       		.byte	0
 1505 00c2 10       		.uleb128 0x10
 1506 00c3 05       		.uleb128 0x5
 1507 00c4 00       		.byte	0
 1508 00c5 03       		.uleb128 0x3
 1509 00c6 08       		.uleb128 0x8
 1510 00c7 3A       		.uleb128 0x3a
 1511 00c8 0B       		.uleb128 0xb
 1512 00c9 3B       		.uleb128 0x3b
 1513 00ca 0B       		.uleb128 0xb
 1514 00cb 49       		.uleb128 0x49
 1515 00cc 13       		.uleb128 0x13
 1516 00cd 02       		.uleb128 0x2
 1517 00ce 06       		.uleb128 0x6
 1518 00cf 00       		.byte	0
 1519 00d0 00       		.byte	0
 1520 00d1 11       		.uleb128 0x11
 1521 00d2 05       		.uleb128 0x5
 1522 00d3 00       		.byte	0
 1523 00d4 03       		.uleb128 0x3
 1524 00d5 0E       		.uleb128 0xe
 1525 00d6 3A       		.uleb128 0x3a
 1526 00d7 0B       		.uleb128 0xb
 1527 00d8 3B       		.uleb128 0x3b
 1528 00d9 0B       		.uleb128 0xb
 1529 00da 49       		.uleb128 0x49
 1530 00db 13       		.uleb128 0x13
 1531 00dc 02       		.uleb128 0x2
 1532 00dd 06       		.uleb128 0x6
 1533 00de 00       		.byte	0
 1534 00df 00       		.byte	0
 1535 00e0 12       		.uleb128 0x12
 1536 00e1 34       		.uleb128 0x34
 1537 00e2 00       		.byte	0
 1538 00e3 03       		.uleb128 0x3
ARM GAS  C:\DOCUME~1\ADMINI~1\LOCALS~1\Temp\cckZ5ZEo.s 			page 28


 1539 00e4 08       		.uleb128 0x8
 1540 00e5 3A       		.uleb128 0x3a
 1541 00e6 0B       		.uleb128 0xb
 1542 00e7 3B       		.uleb128 0x3b
 1543 00e8 0B       		.uleb128 0xb
 1544 00e9 49       		.uleb128 0x49
 1545 00ea 13       		.uleb128 0x13
 1546 00eb 02       		.uleb128 0x2
 1547 00ec 06       		.uleb128 0x6
 1548 00ed 00       		.byte	0
 1549 00ee 00       		.byte	0
 1550 00ef 13       		.uleb128 0x13
 1551 00f0 2E       		.uleb128 0x2e
 1552 00f1 01       		.byte	0x1
 1553 00f2 3F       		.uleb128 0x3f
 1554 00f3 0C       		.uleb128 0xc
 1555 00f4 03       		.uleb128 0x3
 1556 00f5 0E       		.uleb128 0xe
 1557 00f6 3A       		.uleb128 0x3a
 1558 00f7 0B       		.uleb128 0xb
 1559 00f8 3B       		.uleb128 0x3b
 1560 00f9 0B       		.uleb128 0xb
 1561 00fa 27       		.uleb128 0x27
 1562 00fb 0C       		.uleb128 0xc
 1563 00fc 11       		.uleb128 0x11
 1564 00fd 01       		.uleb128 0x1
 1565 00fe 12       		.uleb128 0x12
 1566 00ff 01       		.uleb128 0x1
 1567 0100 40       		.uleb128 0x40
 1568 0101 06       		.uleb128 0x6
 1569 0102 9742     		.uleb128 0x2117
 1570 0104 0C       		.uleb128 0xc
 1571 0105 01       		.uleb128 0x1
 1572 0106 13       		.uleb128 0x13
 1573 0107 00       		.byte	0
 1574 0108 00       		.byte	0
 1575 0109 14       		.uleb128 0x14
 1576 010a 18       		.uleb128 0x18
 1577 010b 00       		.byte	0
 1578 010c 00       		.byte	0
 1579 010d 00       		.byte	0
 1580 010e 15       		.uleb128 0x15
 1581 010f 34       		.uleb128 0x34
 1582 0110 00       		.byte	0
 1583 0111 03       		.uleb128 0x3
 1584 0112 08       		.uleb128 0x8
 1585 0113 3A       		.uleb128 0x3a
 1586 0114 0B       		.uleb128 0xb
 1587 0115 3B       		.uleb128 0x3b
 1588 0116 0B       		.uleb128 0xb
 1589 0117 49       		.uleb128 0x49
 1590 0118 13       		.uleb128 0x13
 1591 0119 02       		.uleb128 0x2
 1592 011a 0A       		.uleb128 0xa
 1593 011b 00       		.byte	0
 1594 011c 00       		.byte	0
 1595 011d 16       		.uleb128 0x16
ARM GAS  C:\DOCUME~1\ADMINI~1\LOCALS~1\Temp\cckZ5ZEo.s 			page 29


 1596 011e 34       		.uleb128 0x34
 1597 011f 00       		.byte	0
 1598 0120 03       		.uleb128 0x3
 1599 0121 0E       		.uleb128 0xe
 1600 0122 3A       		.uleb128 0x3a
 1601 0123 0B       		.uleb128 0xb
 1602 0124 3B       		.uleb128 0x3b
 1603 0125 0B       		.uleb128 0xb
 1604 0126 49       		.uleb128 0x49
 1605 0127 13       		.uleb128 0x13
 1606 0128 02       		.uleb128 0x2
 1607 0129 0A       		.uleb128 0xa
 1608 012a 00       		.byte	0
 1609 012b 00       		.byte	0
 1610 012c 17       		.uleb128 0x17
 1611 012d 34       		.uleb128 0x34
 1612 012e 00       		.byte	0
 1613 012f 03       		.uleb128 0x3
 1614 0130 0E       		.uleb128 0xe
 1615 0131 3A       		.uleb128 0x3a
 1616 0132 0B       		.uleb128 0xb
 1617 0133 3B       		.uleb128 0x3b
 1618 0134 0B       		.uleb128 0xb
 1619 0135 49       		.uleb128 0x49
 1620 0136 13       		.uleb128 0x13
 1621 0137 02       		.uleb128 0x2
 1622 0138 06       		.uleb128 0x6
 1623 0139 00       		.byte	0
 1624 013a 00       		.byte	0
 1625 013b 18       		.uleb128 0x18
 1626 013c 0A       		.uleb128 0xa
 1627 013d 00       		.byte	0
 1628 013e 03       		.uleb128 0x3
 1629 013f 0E       		.uleb128 0xe
 1630 0140 3A       		.uleb128 0x3a
 1631 0141 0B       		.uleb128 0xb
 1632 0142 3B       		.uleb128 0x3b
 1633 0143 0B       		.uleb128 0xb
 1634 0144 11       		.uleb128 0x11
 1635 0145 01       		.uleb128 0x1
 1636 0146 00       		.byte	0
 1637 0147 00       		.byte	0
 1638 0148 19       		.uleb128 0x19
 1639 0149 898201   		.uleb128 0x4109
 1640 014c 01       		.byte	0x1
 1641 014d 11       		.uleb128 0x11
 1642 014e 01       		.uleb128 0x1
 1643 014f 01       		.uleb128 0x1
 1644 0150 13       		.uleb128 0x13
 1645 0151 00       		.byte	0
 1646 0152 00       		.byte	0
 1647 0153 1A       		.uleb128 0x1a
 1648 0154 8A8201   		.uleb128 0x410a
 1649 0157 00       		.byte	0
 1650 0158 02       		.uleb128 0x2
 1651 0159 0A       		.uleb128 0xa
 1652 015a 9142     		.uleb128 0x2111
ARM GAS  C:\DOCUME~1\ADMINI~1\LOCALS~1\Temp\cckZ5ZEo.s 			page 30


 1653 015c 0A       		.uleb128 0xa
 1654 015d 00       		.byte	0
 1655 015e 00       		.byte	0
 1656 015f 1B       		.uleb128 0x1b
 1657 0160 898201   		.uleb128 0x4109
 1658 0163 01       		.byte	0x1
 1659 0164 11       		.uleb128 0x11
 1660 0165 01       		.uleb128 0x1
 1661 0166 31       		.uleb128 0x31
 1662 0167 13       		.uleb128 0x13
 1663 0168 01       		.uleb128 0x1
 1664 0169 13       		.uleb128 0x13
 1665 016a 00       		.byte	0
 1666 016b 00       		.byte	0
 1667 016c 1C       		.uleb128 0x1c
 1668 016d 898201   		.uleb128 0x4109
 1669 0170 01       		.byte	0x1
 1670 0171 11       		.uleb128 0x11
 1671 0172 01       		.uleb128 0x1
 1672 0173 00       		.byte	0
 1673 0174 00       		.byte	0
 1674 0175 1D       		.uleb128 0x1d
 1675 0176 01       		.uleb128 0x1
 1676 0177 01       		.byte	0x1
 1677 0178 49       		.uleb128 0x49
 1678 0179 13       		.uleb128 0x13
 1679 017a 00       		.byte	0
 1680 017b 00       		.byte	0
 1681 017c 1E       		.uleb128 0x1e
 1682 017d 21       		.uleb128 0x21
 1683 017e 00       		.byte	0
 1684 017f 49       		.uleb128 0x49
 1685 0180 13       		.uleb128 0x13
 1686 0181 2F       		.uleb128 0x2f
 1687 0182 0B       		.uleb128 0xb
 1688 0183 00       		.byte	0
 1689 0184 00       		.byte	0
 1690 0185 00       		.byte	0
 1691              		.section	.debug_loc,"",%progbits
 1692              	.Ldebug_loc0:
 1693              	.LLST0:
 1694 0000 00000000 		.4byte	.LFB7
 1695 0004 02000000 		.4byte	.LCFI0
 1696 0008 0200     		.2byte	0x2
 1697 000a 7D       		.byte	0x7d
 1698 000b 00       		.sleb128 0
 1699 000c 02000000 		.4byte	.LCFI0
 1700 0010 44000000 		.4byte	.LFE7
 1701 0014 0200     		.2byte	0x2
 1702 0016 7D       		.byte	0x7d
 1703 0017 0C       		.sleb128 12
 1704 0018 00000000 		.4byte	0
 1705 001c 00000000 		.4byte	0
 1706              	.LLST1:
 1707 0020 00000000 		.4byte	.LVL0
 1708 0024 3C000000 		.4byte	.LVL15
 1709 0028 0100     		.2byte	0x1
ARM GAS  C:\DOCUME~1\ADMINI~1\LOCALS~1\Temp\cckZ5ZEo.s 			page 31


 1710 002a 50       		.byte	0x50
 1711 002b 3C000000 		.4byte	.LVL15
 1712 002f 44000000 		.4byte	.LFE7
 1713 0033 0100     		.2byte	0x1
 1714 0035 50       		.byte	0x50
 1715 0036 00000000 		.4byte	0
 1716 003a 00000000 		.4byte	0
 1717              	.LLST2:
 1718 003e 00000000 		.4byte	.LVL0
 1719 0042 12000000 		.4byte	.LVL3
 1720 0046 0100     		.2byte	0x1
 1721 0048 51       		.byte	0x51
 1722 0049 24000000 		.4byte	.LVL8
 1723 004d 2E000000 		.4byte	.LVL11
 1724 0051 0100     		.2byte	0x1
 1725 0053 51       		.byte	0x51
 1726 0054 00000000 		.4byte	0
 1727 0058 00000000 		.4byte	0
 1728              	.LLST3:
 1729 005c 00000000 		.4byte	.LVL0
 1730 0060 30000000 		.4byte	.LVL12
 1731 0064 0100     		.2byte	0x1
 1732 0066 52       		.byte	0x52
 1733 0067 30000000 		.4byte	.LVL12
 1734 006b 44000000 		.4byte	.LFE7
 1735 006f 0400     		.2byte	0x4
 1736 0071 F3       		.byte	0xf3
 1737 0072 01       		.uleb128 0x1
 1738 0073 52       		.byte	0x52
 1739 0074 9F       		.byte	0x9f
 1740 0075 00000000 		.4byte	0
 1741 0079 00000000 		.4byte	0
 1742              	.LLST4:
 1743 007d 12000000 		.4byte	.LVL3
 1744 0081 16000000 		.4byte	.LVL4
 1745 0085 0100     		.2byte	0x1
 1746 0087 51       		.byte	0x51
 1747 0088 16000000 		.4byte	.LVL4
 1748 008c 20000000 		.4byte	.LVL6
 1749 0090 0100     		.2byte	0x1
 1750 0092 53       		.byte	0x53
 1751 0093 2C000000 		.4byte	.LVL10
 1752 0097 2E000000 		.4byte	.LVL11
 1753 009b 0600     		.2byte	0x6
 1754 009d 76       		.byte	0x76
 1755 009e 00       		.sleb128 0
 1756 009f 75       		.byte	0x75
 1757 00a0 00       		.sleb128 0
 1758 00a1 1C       		.byte	0x1c
 1759 00a2 9F       		.byte	0x9f
 1760 00a3 2E000000 		.4byte	.LVL11
 1761 00a7 32000000 		.4byte	.LVL13
 1762 00ab 0100     		.2byte	0x1
 1763 00ad 51       		.byte	0x51
 1764 00ae 32000000 		.4byte	.LVL13
 1765 00b2 34000000 		.4byte	.LVL14
 1766 00b6 0600     		.2byte	0x6
ARM GAS  C:\DOCUME~1\ADMINI~1\LOCALS~1\Temp\cckZ5ZEo.s 			page 32


 1767 00b8 76       		.byte	0x76
 1768 00b9 00       		.sleb128 0
 1769 00ba 75       		.byte	0x75
 1770 00bb 00       		.sleb128 0
 1771 00bc 1C       		.byte	0x1c
 1772 00bd 9F       		.byte	0x9f
 1773 00be 00000000 		.4byte	0
 1774 00c2 00000000 		.4byte	0
 1775              	.LLST5:
 1776 00c6 06000000 		.4byte	.LVL1
 1777 00ca 0A000000 		.4byte	.LVL2
 1778 00ce 0100     		.2byte	0x1
 1779 00d0 56       		.byte	0x56
 1780 00d1 24000000 		.4byte	.LVL8
 1781 00d5 28000000 		.4byte	.LVL9
 1782 00d9 0100     		.2byte	0x1
 1783 00db 54       		.byte	0x54
 1784 00dc 28000000 		.4byte	.LVL9
 1785 00e0 34000000 		.4byte	.LVL14
 1786 00e4 0100     		.2byte	0x1
 1787 00e6 55       		.byte	0x55
 1788 00e7 00000000 		.4byte	0
 1789 00eb 00000000 		.4byte	0
 1790              	.LLST6:
 1791 00ef 00000000 		.4byte	.LFB8
 1792 00f3 02000000 		.4byte	.LCFI1
 1793 00f7 0200     		.2byte	0x2
 1794 00f9 7D       		.byte	0x7d
 1795 00fa 00       		.sleb128 0
 1796 00fb 02000000 		.4byte	.LCFI1
 1797 00ff 06000000 		.4byte	.LCFI2
 1798 0103 0200     		.2byte	0x2
 1799 0105 7D       		.byte	0x7d
 1800 0106 0C       		.sleb128 12
 1801 0107 06000000 		.4byte	.LCFI2
 1802 010b 08000000 		.4byte	.LCFI3
 1803 010f 0200     		.2byte	0x2
 1804 0111 7D       		.byte	0x7d
 1805 0112 30       		.sleb128 48
 1806 0113 08000000 		.4byte	.LCFI3
 1807 0117 DC020000 		.4byte	.LFE8
 1808 011b 0300     		.2byte	0x3
 1809 011d 7D       		.byte	0x7d
 1810 011e C800     		.sleb128 72
 1811 0120 00000000 		.4byte	0
 1812 0124 00000000 		.4byte	0
 1813              	.LLST7:
 1814 0128 00000000 		.4byte	.LVL16
 1815 012c 24000000 		.4byte	.LVL17
 1816 0130 0100     		.2byte	0x1
 1817 0132 50       		.byte	0x50
 1818 0133 24000000 		.4byte	.LVL17
 1819 0137 DC020000 		.4byte	.LFE8
 1820 013b 0100     		.2byte	0x1
 1821 013d 55       		.byte	0x55
 1822 013e 00000000 		.4byte	0
 1823 0142 00000000 		.4byte	0
ARM GAS  C:\DOCUME~1\ADMINI~1\LOCALS~1\Temp\cckZ5ZEo.s 			page 33


 1824              	.LLST8:
 1825 0146 00000000 		.4byte	.LVL16
 1826 014a 24000000 		.4byte	.LVL17
 1827 014e 0200     		.2byte	0x2
 1828 0150 91       		.byte	0x91
 1829 0151 74       		.sleb128 -12
 1830 0152 24000000 		.4byte	.LVL17
 1831 0156 2A000000 		.4byte	.LVL18
 1832 015a 0100     		.2byte	0x1
 1833 015c 54       		.byte	0x54
 1834 015d 2A000000 		.4byte	.LVL18
 1835 0161 3E000000 		.4byte	.LVL20
 1836 0165 0100     		.2byte	0x1
 1837 0167 56       		.byte	0x56
 1838 0168 3E000000 		.4byte	.LVL20
 1839 016c 44000000 		.4byte	.LVL22
 1840 0170 0100     		.2byte	0x1
 1841 0172 54       		.byte	0x54
 1842 0173 44000000 		.4byte	.LVL22
 1843 0177 6E000000 		.4byte	.LVL27
 1844 017b 0100     		.2byte	0x1
 1845 017d 56       		.byte	0x56
 1846 017e 6E000000 		.4byte	.LVL27
 1847 0182 2A010000 		.4byte	.LVL43
 1848 0186 0100     		.2byte	0x1
 1849 0188 54       		.byte	0x54
 1850 0189 2E010000 		.4byte	.LVL44
 1851 018d 88020000 		.4byte	.LVL100
 1852 0191 0100     		.2byte	0x1
 1853 0193 54       		.byte	0x54
 1854 0194 88020000 		.4byte	.LVL100
 1855 0198 8E020000 		.4byte	.LVL101
 1856 019c 0300     		.2byte	0x3
 1857 019e 76       		.byte	0x76
 1858 019f 01       		.sleb128 1
 1859 01a0 9F       		.byte	0x9f
 1860 01a1 8E020000 		.4byte	.LVL101
 1861 01a5 9A020000 		.4byte	.LVL104
 1862 01a9 0100     		.2byte	0x1
 1863 01ab 56       		.byte	0x56
 1864 01ac 9A020000 		.4byte	.LVL104
 1865 01b0 DC020000 		.4byte	.LFE8
 1866 01b4 0100     		.2byte	0x1
 1867 01b6 54       		.byte	0x54
 1868 01b7 00000000 		.4byte	0
 1869 01bb 00000000 		.4byte	0
 1870              	.LLST9:
 1871 01bf 52000000 		.4byte	.LVL24
 1872 01c3 80010000 		.4byte	.LVL52
 1873 01c7 0100     		.2byte	0x1
 1874 01c9 59       		.byte	0x59
 1875 01ca 80010000 		.4byte	.LVL52
 1876 01ce 8C010000 		.4byte	.LVL55
 1877 01d2 0100     		.2byte	0x1
 1878 01d4 5A       		.byte	0x5a
 1879 01d5 8C010000 		.4byte	.LVL55
 1880 01d9 92010000 		.4byte	.LVL56
ARM GAS  C:\DOCUME~1\ADMINI~1\LOCALS~1\Temp\cckZ5ZEo.s 			page 34


 1881 01dd 0100     		.2byte	0x1
 1882 01df 52       		.byte	0x52
 1883 01e0 92010000 		.4byte	.LVL56
 1884 01e4 96010000 		.4byte	.LVL57
 1885 01e8 0100     		.2byte	0x1
 1886 01ea 53       		.byte	0x53
 1887 01eb 96010000 		.4byte	.LVL57
 1888 01ef A6010000 		.4byte	.LVL59
 1889 01f3 0100     		.2byte	0x1
 1890 01f5 52       		.byte	0x52
 1891 01f6 EA010000 		.4byte	.LVL69
 1892 01fa FA010000 		.4byte	.LVL72
 1893 01fe 0100     		.2byte	0x1
 1894 0200 59       		.byte	0x59
 1895 0201 FA010000 		.4byte	.LVL72
 1896 0205 FE010000 		.4byte	.LVL73
 1897 0209 0200     		.2byte	0x2
 1898 020b 7D       		.byte	0x7d
 1899 020c 00       		.sleb128 0
 1900 020d 2E020000 		.4byte	.LVL81
 1901 0211 40020000 		.4byte	.LVL85
 1902 0215 0100     		.2byte	0x1
 1903 0217 59       		.byte	0x59
 1904 0218 40020000 		.4byte	.LVL85
 1905 021c 48020000 		.4byte	.LVL86
 1906 0220 0100     		.2byte	0x1
 1907 0222 50       		.byte	0x50
 1908 0223 48020000 		.4byte	.LVL86
 1909 0227 6A020000 		.4byte	.LVL95
 1910 022b 0100     		.2byte	0x1
 1911 022d 59       		.byte	0x59
 1912 022e 6A020000 		.4byte	.LVL95
 1913 0232 6F020000 		.4byte	.LVL96-1
 1914 0236 0100     		.2byte	0x1
 1915 0238 50       		.byte	0x50
 1916 0239 70020000 		.4byte	.LVL96
 1917 023d 78020000 		.4byte	.LVL97
 1918 0241 0100     		.2byte	0x1
 1919 0243 50       		.byte	0x50
 1920 0244 78020000 		.4byte	.LVL97
 1921 0248 7C020000 		.4byte	.LVL98
 1922 024c 0100     		.2byte	0x1
 1923 024e 59       		.byte	0x59
 1924 024f 7C020000 		.4byte	.LVL98
 1925 0253 84020000 		.4byte	.LVL99
 1926 0257 0200     		.2byte	0x2
 1927 0259 7D       		.byte	0x7d
 1928 025a 00       		.sleb128 0
 1929 025b 84020000 		.4byte	.LVL99
 1930 025f AC020000 		.4byte	.LVL107
 1931 0263 0100     		.2byte	0x1
 1932 0265 59       		.byte	0x59
 1933 0266 AC020000 		.4byte	.LVL107
 1934 026a B4020000 		.4byte	.LVL109
 1935 026e 0200     		.2byte	0x2
 1936 0270 7D       		.byte	0x7d
 1937 0271 00       		.sleb128 0
ARM GAS  C:\DOCUME~1\ADMINI~1\LOCALS~1\Temp\cckZ5ZEo.s 			page 35


 1938 0272 CE020000 		.4byte	.LVL113
 1939 0276 D6020000 		.4byte	.LVL114
 1940 027a 0100     		.2byte	0x1
 1941 027c 52       		.byte	0x52
 1942 027d D6020000 		.4byte	.LVL114
 1943 0281 DC020000 		.4byte	.LFE8
 1944 0285 0100     		.2byte	0x1
 1945 0287 5A       		.byte	0x5a
 1946 0288 00000000 		.4byte	0
 1947 028c 00000000 		.4byte	0
 1948              	.LLST10:
 1949 0290 52000000 		.4byte	.LVL24
 1950 0294 62010000 		.4byte	.LVL50
 1951 0298 0100     		.2byte	0x1
 1952 029a 59       		.byte	0x59
 1953 029b 62010000 		.4byte	.LVL50
 1954 029f C2010000 		.4byte	.LVL64
 1955 02a3 0100     		.2byte	0x1
 1956 02a5 5A       		.byte	0x5a
 1957 02a6 C2010000 		.4byte	.LVL64
 1958 02aa CC010000 		.4byte	.LVL65
 1959 02ae 0300     		.2byte	0x3
 1960 02b0 7A       		.byte	0x7a
 1961 02b1 7F       		.sleb128 -1
 1962 02b2 9F       		.byte	0x9f
 1963 02b3 CC010000 		.4byte	.LVL65
 1964 02b7 EA010000 		.4byte	.LVL69
 1965 02bb 0100     		.2byte	0x1
 1966 02bd 5A       		.byte	0x5a
 1967 02be EA010000 		.4byte	.LVL69
 1968 02c2 FE010000 		.4byte	.LVL73
 1969 02c6 0100     		.2byte	0x1
 1970 02c8 59       		.byte	0x59
 1971 02c9 FE010000 		.4byte	.LVL73
 1972 02cd 1A020000 		.4byte	.LVL78
 1973 02d1 0100     		.2byte	0x1
 1974 02d3 5A       		.byte	0x5a
 1975 02d4 2E020000 		.4byte	.LVL81
 1976 02d8 B4020000 		.4byte	.LVL109
 1977 02dc 0100     		.2byte	0x1
 1978 02de 59       		.byte	0x59
 1979 02df B4020000 		.4byte	.LVL109
 1980 02e3 DC020000 		.4byte	.LFE8
 1981 02e7 0100     		.2byte	0x1
 1982 02e9 5A       		.byte	0x5a
 1983 02ea 00000000 		.4byte	0
 1984 02ee 00000000 		.4byte	0
 1985              	.LLST11:
 1986 02f2 2A000000 		.4byte	.LVL18
 1987 02f6 2C000000 		.4byte	.LVL19
 1988 02fa 0200     		.2byte	0x2
 1989 02fc 74       		.byte	0x74
 1990 02fd 00       		.sleb128 0
 1991 02fe 44000000 		.4byte	.LVL22
 1992 0302 48000000 		.4byte	.LVL23
 1993 0306 0200     		.2byte	0x2
 1994 0308 74       		.byte	0x74
ARM GAS  C:\DOCUME~1\ADMINI~1\LOCALS~1\Temp\cckZ5ZEo.s 			page 36


 1995 0309 00       		.sleb128 0
 1996 030a 70000000 		.4byte	.LVL28
 1997 030e 72000000 		.4byte	.LVL29
 1998 0312 0100     		.2byte	0x1
 1999 0314 53       		.byte	0x53
 2000 0315 72000000 		.4byte	.LVL29
 2001 0319 74000000 		.4byte	.LVL30
 2002 031d 0200     		.2byte	0x2
 2003 031f 71       		.byte	0x71
 2004 0320 00       		.sleb128 0
 2005 0321 74000000 		.4byte	.LVL30
 2006 0325 7E000000 		.4byte	.LVL32
 2007 0329 0100     		.2byte	0x1
 2008 032b 52       		.byte	0x52
 2009 032c 7E000000 		.4byte	.LVL32
 2010 0330 9E000000 		.4byte	.LVL36
 2011 0334 0100     		.2byte	0x1
 2012 0336 53       		.byte	0x53
 2013 0337 A4000000 		.4byte	.LVL37
 2014 033b A6000000 		.4byte	.LVL38
 2015 033f 0200     		.2byte	0x2
 2016 0341 74       		.byte	0x74
 2017 0342 00       		.sleb128 0
 2018 0343 A6000000 		.4byte	.LVL38
 2019 0347 AA000000 		.4byte	.LVL39
 2020 034b 0200     		.2byte	0x2
 2021 034d 74       		.byte	0x74
 2022 034e 7F       		.sleb128 -1
 2023 034f AA000000 		.4byte	.LVL39
 2024 0353 22010000 		.4byte	.LVL40
 2025 0357 0100     		.2byte	0x1
 2026 0359 53       		.byte	0x53
 2027 035a 22010000 		.4byte	.LVL40
 2028 035e 24010000 		.4byte	.LVL41
 2029 0362 0200     		.2byte	0x2
 2030 0364 74       		.byte	0x74
 2031 0365 7F       		.sleb128 -1
 2032 0366 24010000 		.4byte	.LVL41
 2033 036a 26010000 		.4byte	.LVL42
 2034 036e 0200     		.2byte	0x2
 2035 0370 71       		.byte	0x71
 2036 0371 00       		.sleb128 0
 2037 0372 26010000 		.4byte	.LVL42
 2038 0376 2A010000 		.4byte	.LVL43
 2039 037a 0100     		.2byte	0x1
 2040 037c 52       		.byte	0x52
 2041 037d 2E010000 		.4byte	.LVL44
 2042 0381 4A010000 		.4byte	.LVL45
 2043 0385 0200     		.2byte	0x2
 2044 0387 74       		.byte	0x74
 2045 0388 7F       		.sleb128 -1
 2046 0389 58010000 		.4byte	.LVL47
 2047 038d 5A010000 		.4byte	.LVL48
 2048 0391 0100     		.2byte	0x1
 2049 0393 53       		.byte	0x53
 2050 0394 5A010000 		.4byte	.LVL48
 2051 0398 5E010000 		.4byte	.LVL49
ARM GAS  C:\DOCUME~1\ADMINI~1\LOCALS~1\Temp\cckZ5ZEo.s 			page 37


 2052 039c 0400     		.2byte	0x4
 2053 039e 72       		.byte	0x72
 2054 039f C400     		.sleb128 68
 2055 03a1 9F       		.byte	0x9f
 2056 03a2 EA010000 		.4byte	.LVL69
 2057 03a6 EC010000 		.4byte	.LVL70
 2058 03aa 0100     		.2byte	0x1
 2059 03ac 53       		.byte	0x53
 2060 03ad EC010000 		.4byte	.LVL70
 2061 03b1 F2010000 		.4byte	.LVL71
 2062 03b5 0400     		.2byte	0x4
 2063 03b7 72       		.byte	0x72
 2064 03b8 C400     		.sleb128 68
 2065 03ba 9F       		.byte	0x9f
 2066 03bb 2E020000 		.4byte	.LVL81
 2067 03bf 30020000 		.4byte	.LVL82
 2068 03c3 0100     		.2byte	0x1
 2069 03c5 53       		.byte	0x53
 2070 03c6 48020000 		.4byte	.LVL86
 2071 03ca 4A020000 		.4byte	.LVL87
 2072 03ce 0100     		.2byte	0x1
 2073 03d0 53       		.byte	0x53
 2074 03d1 58020000 		.4byte	.LVL90
 2075 03d5 5A020000 		.4byte	.LVL91
 2076 03d9 0100     		.2byte	0x1
 2077 03db 53       		.byte	0x53
 2078 03dc 5A020000 		.4byte	.LVL91
 2079 03e0 5C020000 		.4byte	.LVL92
 2080 03e4 0400     		.2byte	0x4
 2081 03e6 72       		.byte	0x72
 2082 03e7 C400     		.sleb128 68
 2083 03e9 9F       		.byte	0x9f
 2084 03ea 78020000 		.4byte	.LVL97
 2085 03ee 84020000 		.4byte	.LVL99
 2086 03f2 0100     		.2byte	0x1
 2087 03f4 53       		.byte	0x53
 2088 03f5 84020000 		.4byte	.LVL99
 2089 03f9 88020000 		.4byte	.LVL100
 2090 03fd 0200     		.2byte	0x2
 2091 03ff 38       		.byte	0x38
 2092 0400 9F       		.byte	0x9f
 2093 0401 00000000 		.4byte	0
 2094 0405 00000000 		.4byte	0
 2095              	.LLST12:
 2096 0409 60000000 		.4byte	.LVL25
 2097 040d 68000000 		.4byte	.LVL26
 2098 0411 0300     		.2byte	0x3
 2099 0413 08       		.byte	0x8
 2100 0414 20       		.byte	0x20
 2101 0415 9F       		.byte	0x9f
 2102 0416 68000000 		.4byte	.LVL26
 2103 041a 58010000 		.4byte	.LVL47
 2104 041e 0100     		.2byte	0x1
 2105 0420 57       		.byte	0x57
 2106 0421 58010000 		.4byte	.LVL47
 2107 0425 A6010000 		.4byte	.LVL59
 2108 0429 0300     		.2byte	0x3
ARM GAS  C:\DOCUME~1\ADMINI~1\LOCALS~1\Temp\cckZ5ZEo.s 			page 38


 2109 042b 08       		.byte	0x8
 2110 042c 20       		.byte	0x20
 2111 042d 9F       		.byte	0x9f
 2112 042e A6010000 		.4byte	.LVL59
 2113 0432 B0010000 		.4byte	.LVL61
 2114 0436 0100     		.2byte	0x1
 2115 0438 57       		.byte	0x57
 2116 0439 EA010000 		.4byte	.LVL69
 2117 043d FE010000 		.4byte	.LVL73
 2118 0441 0300     		.2byte	0x3
 2119 0443 08       		.byte	0x8
 2120 0444 20       		.byte	0x20
 2121 0445 9F       		.byte	0x9f
 2122 0446 FE010000 		.4byte	.LVL73
 2123 044a 0C020000 		.4byte	.LVL76
 2124 044e 0100     		.2byte	0x1
 2125 0450 57       		.byte	0x57
 2126 0451 2E020000 		.4byte	.LVL81
 2127 0455 88020000 		.4byte	.LVL100
 2128 0459 0100     		.2byte	0x1
 2129 045b 57       		.byte	0x57
 2130 045c 88020000 		.4byte	.LVL100
 2131 0460 90020000 		.4byte	.LVL102
 2132 0464 0300     		.2byte	0x3
 2133 0466 08       		.byte	0x8
 2134 0467 30       		.byte	0x30
 2135 0468 9F       		.byte	0x9f
 2136 0469 9A020000 		.4byte	.LVL104
 2137 046d B4020000 		.4byte	.LVL109
 2138 0471 0100     		.2byte	0x1
 2139 0473 57       		.byte	0x57
 2140 0474 CE020000 		.4byte	.LVL113
 2141 0478 DC020000 		.4byte	.LFE8
 2142 047c 0300     		.2byte	0x3
 2143 047e 08       		.byte	0x8
 2144 047f 20       		.byte	0x20
 2145 0480 9F       		.byte	0x9f
 2146 0481 00000000 		.4byte	0
 2147 0485 00000000 		.4byte	0
 2148              	.LLST13:
 2149 0489 A6010000 		.4byte	.LVL59
 2150 048d B0010000 		.4byte	.LVL61
 2151 0491 0100     		.2byte	0x1
 2152 0493 5B       		.byte	0x5b
 2153 0494 B0010000 		.4byte	.LVL61
 2154 0498 BC010000 		.4byte	.LVL63
 2155 049c 0300     		.2byte	0x3
 2156 049e 7B       		.byte	0x7b
 2157 049f 7F       		.sleb128 -1
 2158 04a0 9F       		.byte	0x9f
 2159 04a1 FE010000 		.4byte	.LVL73
 2160 04a5 1A020000 		.4byte	.LVL78
 2161 04a9 0100     		.2byte	0x1
 2162 04ab 5B       		.byte	0x5b
 2163 04ac B4020000 		.4byte	.LVL109
 2164 04b0 CE020000 		.4byte	.LVL113
 2165 04b4 0100     		.2byte	0x1
ARM GAS  C:\DOCUME~1\ADMINI~1\LOCALS~1\Temp\cckZ5ZEo.s 			page 39


 2166 04b6 5B       		.byte	0x5b
 2167 04b7 00000000 		.4byte	0
 2168 04bb 00000000 		.4byte	0
 2169              	.LLST14:
 2170 04bf 94000000 		.4byte	.LVL34
 2171 04c3 96000000 		.4byte	.LVL35
 2172 04c7 0200     		.2byte	0x2
 2173 04c9 30       		.byte	0x30
 2174 04ca 9F       		.byte	0x9f
 2175 04cb 96000000 		.4byte	.LVL35
 2176 04cf 26010000 		.4byte	.LVL42
 2177 04d3 0100     		.2byte	0x1
 2178 04d5 50       		.byte	0x50
 2179 04d6 26010000 		.4byte	.LVL42
 2180 04da 2A010000 		.4byte	.LVL43
 2181 04de 0500     		.2byte	0x5
 2182 04e0 7C       		.byte	0x7c
 2183 04e1 00       		.sleb128 0
 2184 04e2 31       		.byte	0x31
 2185 04e3 24       		.byte	0x24
 2186 04e4 9F       		.byte	0x9f
 2187 04e5 2A010000 		.4byte	.LVL43
 2188 04e9 86010000 		.4byte	.LVL53
 2189 04ed 0100     		.2byte	0x1
 2190 04ef 50       		.byte	0x50
 2191 04f0 86010000 		.4byte	.LVL53
 2192 04f4 8A010000 		.4byte	.LVL54
 2193 04f8 0300     		.2byte	0x3
 2194 04fa 70       		.byte	0x70
 2195 04fb 7F       		.sleb128 -1
 2196 04fc 9F       		.byte	0x9f
 2197 04fd EA010000 		.4byte	.LVL69
 2198 0501 FE010000 		.4byte	.LVL73
 2199 0505 0100     		.2byte	0x1
 2200 0507 50       		.byte	0x50
 2201 0508 2E020000 		.4byte	.LVL81
 2202 050c 3A020000 		.4byte	.LVL84
 2203 0510 0100     		.2byte	0x1
 2204 0512 50       		.byte	0x50
 2205 0513 48020000 		.4byte	.LVL86
 2206 0517 52020000 		.4byte	.LVL88
 2207 051b 0100     		.2byte	0x1
 2208 051d 50       		.byte	0x50
 2209 051e 58020000 		.4byte	.LVL90
 2210 0522 68020000 		.4byte	.LVL94
 2211 0526 0100     		.2byte	0x1
 2212 0528 50       		.byte	0x50
 2213 0529 78020000 		.4byte	.LVL97
 2214 052d 88020000 		.4byte	.LVL100
 2215 0531 0100     		.2byte	0x1
 2216 0533 50       		.byte	0x50
 2217 0534 9A020000 		.4byte	.LVL104
 2218 0538 A4020000 		.4byte	.LVL106
 2219 053c 0100     		.2byte	0x1
 2220 053e 50       		.byte	0x50
 2221 053f D6020000 		.4byte	.LVL114
 2222 0543 DC020000 		.4byte	.LFE8
ARM GAS  C:\DOCUME~1\ADMINI~1\LOCALS~1\Temp\cckZ5ZEo.s 			page 40


 2223 0547 0100     		.2byte	0x1
 2224 0549 50       		.byte	0x50
 2225 054a 00000000 		.4byte	0
 2226 054e 00000000 		.4byte	0
 2227              	.LLST15:
 2228 0552 68000000 		.4byte	.LVL26
 2229 0556 70000000 		.4byte	.LVL28
 2230 055a 0200     		.2byte	0x2
 2231 055c 30       		.byte	0x30
 2232 055d 9F       		.byte	0x9f
 2233 055e 70000000 		.4byte	.LVL28
 2234 0562 78000000 		.4byte	.LVL31
 2235 0566 0100     		.2byte	0x1
 2236 0568 56       		.byte	0x56
 2237 0569 7E000000 		.4byte	.LVL32
 2238 056d A4010000 		.4byte	.LVL58
 2239 0571 0100     		.2byte	0x1
 2240 0573 56       		.byte	0x56
 2241 0574 A6010000 		.4byte	.LVL59
 2242 0578 BC010000 		.4byte	.LVL63
 2243 057c 0100     		.2byte	0x1
 2244 057e 56       		.byte	0x56
 2245 057f D0010000 		.4byte	.LVL66
 2246 0583 E4010000 		.4byte	.LVL67
 2247 0587 0100     		.2byte	0x1
 2248 0589 56       		.byte	0x56
 2249 058a E4010000 		.4byte	.LVL67
 2250 058e E6010000 		.4byte	.LVL68
 2251 0592 0300     		.2byte	0x3
 2252 0594 76       		.byte	0x76
 2253 0595 7F       		.sleb128 -1
 2254 0596 9F       		.byte	0x9f
 2255 0597 E6010000 		.4byte	.LVL68
 2256 059b 28020000 		.4byte	.LVL79
 2257 059f 0100     		.2byte	0x1
 2258 05a1 56       		.byte	0x56
 2259 05a2 28020000 		.4byte	.LVL79
 2260 05a6 2A020000 		.4byte	.LVL80
 2261 05aa 0300     		.2byte	0x3
 2262 05ac 76       		.byte	0x76
 2263 05ad 01       		.sleb128 1
 2264 05ae 9F       		.byte	0x9f
 2265 05af 2A020000 		.4byte	.LVL80
 2266 05b3 88020000 		.4byte	.LVL100
 2267 05b7 0100     		.2byte	0x1
 2268 05b9 56       		.byte	0x56
 2269 05ba 9A020000 		.4byte	.LVL104
 2270 05be DC020000 		.4byte	.LFE8
 2271 05c2 0100     		.2byte	0x1
 2272 05c4 56       		.byte	0x56
 2273 05c5 00000000 		.4byte	0
 2274 05c9 00000000 		.4byte	0
 2275              	.LLST16:
 2276 05cd 9E000000 		.4byte	.LVL36
 2277 05d1 AA000000 		.4byte	.LVL39
 2278 05d5 0200     		.2byte	0x2
 2279 05d7 31       		.byte	0x31
ARM GAS  C:\DOCUME~1\ADMINI~1\LOCALS~1\Temp\cckZ5ZEo.s 			page 41


 2280 05d8 9F       		.byte	0x9f
 2281 05d9 AA000000 		.4byte	.LVL39
 2282 05dd 22010000 		.4byte	.LVL40
 2283 05e1 0100     		.2byte	0x1
 2284 05e3 51       		.byte	0x51
 2285 05e4 56010000 		.4byte	.LVL46
 2286 05e8 8C010000 		.4byte	.LVL55
 2287 05ec 0100     		.2byte	0x1
 2288 05ee 51       		.byte	0x51
 2289 05ef EA010000 		.4byte	.LVL69
 2290 05f3 FE010000 		.4byte	.LVL73
 2291 05f7 0100     		.2byte	0x1
 2292 05f9 51       		.byte	0x51
 2293 05fa 2E020000 		.4byte	.LVL81
 2294 05fe 36020000 		.4byte	.LVL83
 2295 0602 0100     		.2byte	0x1
 2296 0604 51       		.byte	0x51
 2297 0605 48020000 		.4byte	.LVL86
 2298 0609 54020000 		.4byte	.LVL89
 2299 060d 0100     		.2byte	0x1
 2300 060f 51       		.byte	0x51
 2301 0610 58020000 		.4byte	.LVL90
 2302 0614 60020000 		.4byte	.LVL93
 2303 0618 0100     		.2byte	0x1
 2304 061a 51       		.byte	0x51
 2305 061b 78020000 		.4byte	.LVL97
 2306 061f 88020000 		.4byte	.LVL100
 2307 0623 0100     		.2byte	0x1
 2308 0625 51       		.byte	0x51
 2309 0626 9A020000 		.4byte	.LVL104
 2310 062a 9C020000 		.4byte	.LVL105
 2311 062e 0100     		.2byte	0x1
 2312 0630 51       		.byte	0x51
 2313 0631 D6020000 		.4byte	.LVL114
 2314 0635 DC020000 		.4byte	.LFE8
 2315 0639 0100     		.2byte	0x1
 2316 063b 51       		.byte	0x51
 2317 063c 00000000 		.4byte	0
 2318 0640 00000000 		.4byte	0
 2319              	.LLST17:
 2320 0644 52000000 		.4byte	.LVL24
 2321 0648 60000000 		.4byte	.LVL25
 2322 064c 0200     		.2byte	0x2
 2323 064e 30       		.byte	0x30
 2324 064f 9F       		.byte	0x9f
 2325 0650 60000000 		.4byte	.LVL25
 2326 0654 BA010000 		.4byte	.LVL62
 2327 0658 0100     		.2byte	0x1
 2328 065a 58       		.byte	0x58
 2329 065b EA010000 		.4byte	.LVL69
 2330 065f 90020000 		.4byte	.LVL102
 2331 0663 0100     		.2byte	0x1
 2332 0665 58       		.byte	0x58
 2333 0666 90020000 		.4byte	.LVL102
 2334 066a 92020000 		.4byte	.LVL103
 2335 066e 0200     		.2byte	0x2
 2336 0670 30       		.byte	0x30
ARM GAS  C:\DOCUME~1\ADMINI~1\LOCALS~1\Temp\cckZ5ZEo.s 			page 42


 2337 0671 9F       		.byte	0x9f
 2338 0672 92020000 		.4byte	.LVL103
 2339 0676 9A020000 		.4byte	.LVL104
 2340 067a 0200     		.2byte	0x2
 2341 067c 31       		.byte	0x31
 2342 067d 9F       		.byte	0x9f
 2343 067e 9A020000 		.4byte	.LVL104
 2344 0682 DC020000 		.4byte	.LFE8
 2345 0686 0100     		.2byte	0x1
 2346 0688 58       		.byte	0x58
 2347 0689 00000000 		.4byte	0
 2348 068d 00000000 		.4byte	0
 2349              	.LLST18:
 2350 0691 3A020000 		.4byte	.LVL84
 2351 0695 3F020000 		.4byte	.LVL85-1
 2352 0699 0100     		.2byte	0x1
 2353 069b 51       		.byte	0x51
 2354 069c 54020000 		.4byte	.LVL89
 2355 06a0 58020000 		.4byte	.LVL90
 2356 06a4 0100     		.2byte	0x1
 2357 06a6 51       		.byte	0x51
 2358 06a7 60020000 		.4byte	.LVL93
 2359 06ab 6F020000 		.4byte	.LVL96-1
 2360 06af 0100     		.2byte	0x1
 2361 06b1 51       		.byte	0x51
 2362 06b2 9C020000 		.4byte	.LVL105
 2363 06b6 B4020000 		.4byte	.LVL109
 2364 06ba 0100     		.2byte	0x1
 2365 06bc 51       		.byte	0x51
 2366 06bd 00000000 		.4byte	0
 2367 06c1 00000000 		.4byte	0
 2368              		.section	.debug_aranges,"",%progbits
 2369 0000 24000000 		.4byte	0x24
 2370 0004 0200     		.2byte	0x2
 2371 0006 00000000 		.4byte	.Ldebug_info0
 2372 000a 04       		.byte	0x4
 2373 000b 00       		.byte	0
 2374 000c 0000     		.2byte	0
 2375 000e 0000     		.2byte	0
 2376 0010 00000000 		.4byte	.LFB7
 2377 0014 44000000 		.4byte	.LFE7-.LFB7
 2378 0018 00000000 		.4byte	.LFB8
 2379 001c DC020000 		.4byte	.LFE8-.LFB8
 2380 0020 00000000 		.4byte	0
 2381 0024 00000000 		.4byte	0
 2382              		.section	.debug_ranges,"",%progbits
 2383              	.Ldebug_ranges0:
 2384 0000 00000000 		.4byte	.LFB7
 2385 0004 44000000 		.4byte	.LFE7
 2386 0008 00000000 		.4byte	.LFB8
 2387 000c DC020000 		.4byte	.LFE8
 2388 0010 00000000 		.4byte	0
 2389 0014 00000000 		.4byte	0
 2390              		.section	.debug_line,"",%progbits
 2391              	.Ldebug_line0:
 2392 0000 97020000 		.section	.debug_str,"MS",%progbits,1
 2392      02003401 
ARM GAS  C:\DOCUME~1\ADMINI~1\LOCALS~1\Temp\cckZ5ZEo.s 			page 43


 2392      00000201 
 2392      FB0E0D00 
 2392      01010101 
 2393              	.LASF2:
 2394 0000 73697A65 		.ascii	"size_t\000"
 2394      5F7400
 2395              	.LASF17:
 2396 0007 73797374 		.ascii	"systime_t\000"
 2396      696D655F 
 2396      7400
 2397              	.LASF39:
 2398 0011 5F5F6170 		.ascii	"__ap\000"
 2398      00
 2399              	.LASF34:
 2400 0016 69735F6C 		.ascii	"is_long\000"
 2400      6F6E6700 
 2401              	.LASF3:
 2402 001e 756E7369 		.ascii	"unsigned int\000"
 2402      676E6564 
 2402      20696E74 
 2402      00
 2403              	.LASF15:
 2404 002b 626F6F6C 		.ascii	"bool_t\000"
 2404      5F7400
 2405              	.LASF26:
 2406 0032 77726974 		.ascii	"writet\000"
 2406      657400
 2407              	.LASF1:
 2408 0039 76615F6C 		.ascii	"va_list\000"
 2408      69737400 
 2409              	.LASF6:
 2410 0041 756E7369 		.ascii	"unsigned char\000"
 2410      676E6564 
 2410      20636861 
 2410      7200
 2411              	.LASF27:
 2412 004f 72656164 		.ascii	"readt\000"
 2412      7400
 2413              	.LASF12:
 2414 0055 6C6F6E67 		.ascii	"long unsigned int\000"
 2414      20756E73 
 2414      69676E65 
 2414      6420696E 
 2414      7400
 2415              	.LASF8:
 2416 0067 73686F72 		.ascii	"short unsigned int\000"
 2416      7420756E 
 2416      7369676E 
 2416      65642069 
 2416      6E7400
 2417              	.LASF22:
 2418 007a 77726974 		.ascii	"write\000"
 2418      6500
 2419              	.LASF33:
 2420 0080 77696474 		.ascii	"width\000"
 2420      6800
 2421              	.LASF41:
ARM GAS  C:\DOCUME~1\ADMINI~1\LOCALS~1\Temp\cckZ5ZEo.s 			page 44


 2422 0086 63687072 		.ascii	"chprintf\000"
 2422      696E7466 
 2422      00
 2423              	.LASF24:
 2424 008f 70757477 		.ascii	"putwouldblock\000"
 2424      6F756C64 
 2424      626C6F63 
 2424      6B00
 2425              	.LASF0:
 2426 009d 5F5F676E 		.ascii	"__gnuc_va_list\000"
 2426      75635F76 
 2426      615F6C69 
 2426      737400
 2427              	.LASF23:
 2428 00ac 72656164 		.ascii	"read\000"
 2428      00
 2429              	.LASF31:
 2430 00b1 66696C6C 		.ascii	"filler\000"
 2430      657200
 2431              	.LASF37:
 2432 00b8 2E2E2F2E 		.ascii	"../../os/various/chprintf.c\000"
 2432      2E2F6F73 
 2432      2F766172 
 2432      696F7573 
 2432      2F636870 
 2433              	.LASF14:
 2434 00d4 6C6F6E67 		.ascii	"long long unsigned int\000"
 2434      206C6F6E 
 2434      6720756E 
 2434      7369676E 
 2434      65642069 
 2435              	.LASF5:
 2436 00eb 75696E74 		.ascii	"uint8_t\000"
 2436      385F7400 
 2437              	.LASF29:
 2438 00f3 72616469 		.ascii	"radix\000"
 2438      7800
 2439              	.LASF25:
 2440 00f9 67657477 		.ascii	"getwouldblock\000"
 2440      6F756C64 
 2440      626C6F63 
 2440      6B00
 2441              	.LASF16:
 2442 0107 6D73675F 		.ascii	"msg_t\000"
 2442      7400
 2443              	.LASF21:
 2444 010d 42617365 		.ascii	"BaseChannelVMT\000"
 2444      4368616E 
 2444      6E656C56 
 2444      4D5400
 2445              	.LASF9:
 2446 011c 696E7433 		.ascii	"int32_t\000"
 2446      325F7400 
 2447              	.LASF18:
 2448 0124 73697A65 		.ascii	"sizetype\000"
 2448      74797065 
 2448      00
ARM GAS  C:\DOCUME~1\ADMINI~1\LOCALS~1\Temp\cckZ5ZEo.s 			page 45


 2449              	.LASF30:
 2450 012d 746D7062 		.ascii	"tmpbuf\000"
 2450      756600
 2451              	.LASF20:
 2452 0134 5F5F7661 		.ascii	"__va_list\000"
 2452      5F6C6973 
 2452      7400
 2453              	.LASF13:
 2454 013e 6C6F6E67 		.ascii	"long long int\000"
 2454      206C6F6E 
 2454      6720696E 
 2454      7400
 2455              	.LASF32:
 2456 014c 70726563 		.ascii	"precision\000"
 2456      6973696F 
 2456      6E00
 2457              	.LASF19:
 2458 0156 63686172 		.ascii	"char\000"
 2458      00
 2459              	.LASF36:
 2460 015b 474E5520 		.ascii	"GNU C 4.7.1\000"
 2460      4320342E 
 2460      372E3100 
 2461              	.LASF35:
 2462 0167 6C656674 		.ascii	"left_align\000"
 2462      5F616C69 
 2462      676E00
 2463              	.LASF7:
 2464 0172 73686F72 		.ascii	"short int\000"
 2464      7420696E 
 2464      7400
 2465              	.LASF42:
 2466 017c 756E7369 		.ascii	"unsigned_common\000"
 2466      676E6564 
 2466      5F636F6D 
 2466      6D6F6E00 
 2467              	.LASF11:
 2468 018c 75696E74 		.ascii	"uint32_t\000"
 2468      33325F74 
 2468      00
 2469              	.LASF10:
 2470 0195 6C6F6E67 		.ascii	"long int\000"
 2470      20696E74 
 2470      00
 2471              	.LASF4:
 2472 019e 7369676E 		.ascii	"signed char\000"
 2472      65642063 
 2472      68617200 
 2473              	.LASF40:
 2474 01aa 6C746F61 		.ascii	"ltoa\000"
 2474      00
 2475              	.LASF38:
 2476 01af 433A5C70 		.ascii	"C:\\projects\\ChibiOS_2.4.2\\demos\\TOAST2\000"
 2476      726F6A65 
 2476      6374735C 
 2476      43686962 
 2476      694F535F 
ARM GAS  C:\DOCUME~1\ADMINI~1\LOCALS~1\Temp\cckZ5ZEo.s 			page 46


 2477              	.LASF28:
 2478 01d6 42617365 		.ascii	"BaseChannel\000"
 2478      4368616E 
 2478      6E656C00 
 2479              		.ident	"GCC: (GNU) 4.7.1"
ARM GAS  C:\DOCUME~1\ADMINI~1\LOCALS~1\Temp\cckZ5ZEo.s 			page 47


DEFINED SYMBOLS
                            *ABS*:00000000 chprintf.c
C:\DOCUME~1\ADMINI~1\LOCALS~1\Temp\cckZ5ZEo.s:19     .text.ltoa:00000000 $t
C:\DOCUME~1\ADMINI~1\LOCALS~1\Temp\cckZ5ZEo.s:23     .text.ltoa:00000000 ltoa
C:\DOCUME~1\ADMINI~1\LOCALS~1\Temp\cckZ5ZEo.s:99     .text.chprintf:00000000 $t
C:\DOCUME~1\ADMINI~1\LOCALS~1\Temp\cckZ5ZEo.s:104    .text.chprintf:00000000 chprintf
C:\DOCUME~1\ADMINI~1\LOCALS~1\Temp\cckZ5ZEo.s:274    .text.chprintf:000000b8 $d
C:\DOCUME~1\ADMINI~1\LOCALS~1\Temp\cckZ5ZEo.s:330    .text.chprintf:00000122 $t
C:\DOCUME~1\ADMINI~1\LOCALS~1\Temp\cckZ5ZEo.s:699    .rodata.str1.4:00000000 .LC0
C:\DOCUME~1\ADMINI~1\LOCALS~1\Temp\cckZ5ZEo.s:698    .rodata.str1.4:00000000 $d
                     .debug_frame:00000010 $d

NO UNDEFINED SYMBOLS
