ARM GAS  C:\DOCUME~1\ADMINI~1\LOCALS~1\Temp\cckZ5ZEo.s 			page 1


   1              		.syntax unified
   2              		.cpu cortex-m3
   3              		.fpu softvfp
   4              		.eabi_attribute 20, 1
   5              		.eabi_attribute 21, 1
   6              		.eabi_attribute 23, 3
   7              		.eabi_attribute 24, 1
   8              		.eabi_attribute 25, 1
   9              		.eabi_attribute 26, 1
  10              		.eabi_attribute 30, 2
  11              		.eabi_attribute 34, 1
  12              		.eabi_attribute 18, 4
  13              		.thumb
  14              		.file	"chprintf.c"
  15              		.text
  16              	.Ltext0:
  17              		.cfi_sections	.debug_frame
  18              		.section	.text.ltoa,"ax",%progbits
  19              		.align	2
  20              		.thumb
  21              		.thumb_func
  22              		.type	ltoa, %function
  23              	ltoa:
  24              	.LFB7:
  25              		.file 1 "../../os/various/chprintf.c"
  26              		.loc 1 42 0
  27              		.cfi_startproc
  28              		@ args = 0, pretend = 0, frame = 0
  29              		@ frame_needed = 0, uses_anonymous_args = 0
  30              		@ link register save eliminated.
  31              	.LVL0:
  32 0000 70B4     		push	{r4, r5, r6}
  33              	.LCFI0:
  34              		.cfi_def_cfa_offset 12
  35              		.cfi_offset 4, -12
  36              		.cfi_offset 5, -8
  37              		.cfi_offset 6, -4
  38              		.loc 1 46 0
  39 0002 00F10B06 		add	r6, r0, #11
  40              	.LVL1:
  41              		.loc 1 42 0
  42 0006 00F10A04 		add	r4, r0, #10
  43              	.LVL2:
  44              	.L3:
  45              		.loc 1 48 0
  46 000a B1FBF2F5 		udiv	r5, r1, r2
  47 000e 02FB1511 		mls	r1, r2, r5, r1
  48              	.LVL3:
  49              		.loc 1 49 0
  50 0012 01F13003 		add	r3, r1, #48
  51              	.LVL4:
  52              		.loc 1 50 0
  53 0016 392B     		cmp	r3, #57
  54              		.loc 1 51 0
  55 0018 C8BF     		it	gt
  56 001a 01F13703 		addgt	r3, r1, #55
  57              	.LVL5:
ARM GAS  C:\DOCUME~1\ADMINI~1\LOCALS~1\Temp\cckZ5ZEo.s 			page 2


  58              		.loc 1 52 0
  59 001e DBB2     		uxtb	r3, r3
  60              	.LVL6:
  61              		.loc 1 53 0
  62 0020 2946     		mov	r1, r5
  63              	.LVL7:
  64              		.loc 1 52 0
  65 0022 2546     		mov	r5, r4
  66              	.LVL8:
  67 0024 04F80139 		strb	r3, [r4], #-1
  68              	.LVL9:
  69              		.loc 1 53 0
  70 0028 0029     		cmp	r1, #0
  71 002a EED1     		bne	.L3
  72              	.LVL10:
  73              		.loc 1 55 0
  74 002c 711B     		subs	r1, r6, r5
  75              	.LVL11:
  76 002e 2A46     		mov	r2, r5
  77              	.LVL12:
  78              		.loc 1 42 0
  79 0030 4118     		adds	r1, r0, r1
  80              	.LVL13:
  81 0032 01E0     		b	.L5
  82              	.LVL14:
  83              	.L9:
  84 0034 12F8013F 		ldrb	r3, [r2, #1]!	@ zero_extendqisi2
  85              	.L5:
  86              		.loc 1 57 0 discriminator 1
  87 0038 00F8013B 		strb	r3, [r0], #1
  88              	.LVL15:
  89              		.loc 1 58 0 discriminator 1
  90 003c 8842     		cmp	r0, r1
  91 003e F9D1     		bne	.L9
  92              		.loc 1 61 0
  93 0040 70BC     		pop	{r4, r5, r6}
  94 0042 7047     		bx	lr
  95              		.cfi_endproc
  96              	.LFE7:
  97              		.size	ltoa, .-ltoa
  98              		.section	.text.chprintf,"ax",%progbits
  99              		.align	2
 100              		.global	chprintf
 101              		.thumb
 102              		.thumb_func
 103              		.type	chprintf, %function
 104              	chprintf:
 105              	.LFB8:
 106              		.loc 1 86 0
 107              		.cfi_startproc
 108              		@ args = 4, pretend = 12, frame = 24
 109              		@ frame_needed = 0, uses_anonymous_args = 1
 110              	.LVL16:
 111 0000 0EB4     		push	{r1, r2, r3}
 112              	.LCFI1:
 113              		.cfi_def_cfa_offset 12
 114              		.cfi_offset 1, -12
ARM GAS  C:\DOCUME~1\ADMINI~1\LOCALS~1\Temp\cckZ5ZEo.s 			page 3


 115              		.cfi_offset 2, -8
 116              		.cfi_offset 3, -4
 117 0002 2DE9F04F 		push	{r4, r5, r6, r7, r8, r9, sl, fp, lr}
 118              	.LCFI2:
 119              		.cfi_def_cfa_offset 48
 120              		.cfi_offset 4, -48
 121              		.cfi_offset 5, -44
 122              		.cfi_offset 6, -40
 123              		.cfi_offset 7, -36
 124              		.cfi_offset 8, -32
 125              		.cfi_offset 9, -28
 126              		.cfi_offset 10, -24
 127              		.cfi_offset 11, -20
 128              		.cfi_offset 14, -16
 129 0006 86B0     		sub	sp, sp, #24
 130              	.LCFI3:
 131              		.cfi_def_cfa_offset 72
 132              		.loc 1 86 0
 133 0008 0FAB     		add	r3, sp, #60
 134 000a 53F8044B 		ldr	r4, [r3], #4
 135              		.loc 1 197 0
 136 000e 0DF10D0C 		add	ip, sp, #13
 137              		.loc 1 105 0
 138 0012 0DF10C09 		add	r9, sp, #12
 139              		.loc 1 94 0
 140 0016 0293     		str	r3, [sp, #8]
 141 0018 C9EB0C03 		rsb	r3, r9, ip
 142              		.loc 1 197 0
 143 001c CDF800C0 		str	ip, [sp, #0]
 144              		.loc 1 86 0
 145 0020 0546     		mov	r5, r0
 146 0022 0193     		str	r3, [sp, #4]
 147              	.LVL17:
 148              	.L71:
 149              		.loc 1 96 0
 150 0024 2646     		mov	r6, r4
 151 0026 16F8011B 		ldrb	r1, [r6], #1	@ zero_extendqisi2
 152              	.LVL18:
 153              		.loc 1 97 0
 154 002a 69B1     		cbz	r1, .L70
 155              	.LVL19:
 156              	.L75:
 157              		.loc 1 101 0
 158 002c 2529     		cmp	r1, #37
 159 002e 10D0     		beq	.L13
 160              		.loc 1 102 0
 161 0030 2B68     		ldr	r3, [r5, #0]
 162              		.loc 1 96 0
 163 0032 3446     		mov	r4, r6
 164              		.loc 1 102 0
 165 0034 2846     		mov	r0, r5
 166 0036 1B69     		ldr	r3, [r3, #16]
 167 0038 4FF0FF32 		mov	r2, #-1
 168              		.loc 1 96 0
 169 003c 2646     		mov	r6, r4
 170              	.LVL20:
 171              		.loc 1 102 0
ARM GAS  C:\DOCUME~1\ADMINI~1\LOCALS~1\Temp\cckZ5ZEo.s 			page 4


 172 003e 9847     		blx	r3
 173              	.LVL21:
 174              		.loc 1 96 0
 175 0040 16F8011B 		ldrb	r1, [r6], #1	@ zero_extendqisi2
 176              	.LVL22:
 177              		.loc 1 97 0
 178 0044 0029     		cmp	r1, #0
 179 0046 F1D1     		bne	.L75
 180              	.LVL23:
 181              	.L70:
 182              		.loc 1 222 0
 183 0048 06B0     		add	sp, sp, #24
 184 004a BDE8F04F 		pop	{r4, r5, r6, r7, r8, r9, sl, fp, lr}
 185 004e 03B0     		add	sp, sp, #12
 186 0050 7047     		bx	lr
 187              	.L13:
 188              	.LVL24:
 189              		.loc 1 108 0
 190 0052 6378     		ldrb	r3, [r4, #1]	@ zero_extendqisi2
 191 0054 2D2B     		cmp	r3, #45
 192              		.loc 1 107 0
 193 0056 18BF     		it	ne
 194 0058 4FF00008 		movne	r8, #0
 195              		.loc 1 108 0
 196 005c 00F01881 		beq	.L76
 197              	.LVL25:
 198              	.L15:
 199              		.loc 1 112 0
 200 0060 2027     		movs	r7, #32
 201              		.loc 1 113 0
 202 0062 2E2B     		cmp	r3, #46
 203 0064 00F01081 		beq	.L77
 204              	.LVL26:
 205              	.L16:
 206              		.loc 1 115 0
 207 0068 3446     		mov	r4, r6
 208 006a 0299     		ldr	r1, [sp, #8]
 209              		.loc 1 117 0
 210 006c 0026     		movs	r6, #0
 211              	.LVL27:
 212 006e 06E0     		b	.L19
 213              	.LVL28:
 214              	.L78:
 215              		.loc 1 123 0
 216 0070 0A78     		ldrb	r2, [r1, #0]	@ zero_extendqisi2
 217              	.LVL29:
 218 0072 0431     		adds	r1, r1, #4
 219              	.LVL30:
 220              	.L17:
 221              		.loc 1 126 0
 222 0074 06EB8606 		add	r6, r6, r6, lsl #2
 223              	.LVL31:
 224 0078 2378     		ldrb	r3, [r4, #0]	@ zero_extendqisi2
 225 007a 02EB4606 		add	r6, r2, r6, lsl #1
 226              	.LVL32:
 227              	.L19:
 228              		.loc 1 120 0
ARM GAS  C:\DOCUME~1\ADMINI~1\LOCALS~1\Temp\cckZ5ZEo.s 			page 5


 229 007e A3F13002 		sub	r2, r3, #48
 230 0082 D2B2     		uxtb	r2, r2
 231              		.loc 1 119 0
 232 0084 0134     		adds	r4, r4, #1
 233              	.LVL33:
 234              		.loc 1 120 0
 235 0086 092A     		cmp	r2, #9
 236 0088 F4D9     		bls	.L17
 237              		.loc 1 122 0
 238 008a 2A2B     		cmp	r3, #42
 239 008c F0D0     		beq	.L78
 240              		.loc 1 129 0
 241 008e 0020     		movs	r0, #0
 242 0090 2E2B     		cmp	r3, #46
 243 0092 0291     		str	r1, [sp, #8]
 244              	.LVL34:
 245 0094 49D0     		beq	.L23
 246              	.LVL35:
 247              		.loc 1 143 0
 248 0096 03F0DF02 		and	r2, r3, #223
 249 009a 4C2A     		cmp	r2, #76
 250 009c 55D1     		bne	.L24
 251              	.LVL36:
 252              	.L79:
 253              		.loc 1 145 0
 254 009e 2278     		ldrb	r2, [r4, #0]	@ zero_extendqisi2
 255              		.loc 1 144 0
 256 00a0 0121     		movs	r1, #1
 257              		.loc 1 145 0
 258 00a2 12B1     		cbz	r2, .L25
 259              	.LVL37:
 260              		.loc 1 146 0
 261 00a4 0134     		adds	r4, r4, #1
 262              	.LVL38:
 263 00a6 1346     		mov	r3, r2
 264              		.loc 1 144 0
 265 00a8 0121     		movs	r1, #1
 266              	.LVL39:
 267              	.L25:
 268              		.loc 1 152 0
 269 00aa A3F14402 		sub	r2, r3, #68
 270 00ae 342A     		cmp	r2, #52
 271 00b0 00F2E280 		bhi	.L26
 272 00b4 DFE812F0 		tbh	[pc, r2, lsl #1]
 273              	.L33:
 274 00b8 D000     		.2byte	(.L27-.L33)/2
 275 00ba E000     		.2byte	(.L26-.L33)/2
 276 00bc E000     		.2byte	(.L26-.L33)/2
 277 00be E000     		.2byte	(.L26-.L33)/2
 278 00c0 E000     		.2byte	(.L26-.L33)/2
 279 00c2 E000     		.2byte	(.L26-.L33)/2
 280 00c4 E000     		.2byte	(.L26-.L33)/2
 281 00c6 E000     		.2byte	(.L26-.L33)/2
 282 00c8 E000     		.2byte	(.L26-.L33)/2
 283 00ca E000     		.2byte	(.L26-.L33)/2
 284 00cc E000     		.2byte	(.L26-.L33)/2
 285 00ce E600     		.2byte	(.L28-.L33)/2
ARM GAS  C:\DOCUME~1\ADMINI~1\LOCALS~1\Temp\cckZ5ZEo.s 			page 6


 286 00d0 E000     		.2byte	(.L26-.L33)/2
 287 00d2 E000     		.2byte	(.L26-.L33)/2
 288 00d4 E000     		.2byte	(.L26-.L33)/2
 289 00d6 E000     		.2byte	(.L26-.L33)/2
 290 00d8 E000     		.2byte	(.L26-.L33)/2
 291 00da C800     		.2byte	(.L56-.L33)/2
 292 00dc E000     		.2byte	(.L26-.L33)/2
 293 00de E000     		.2byte	(.L26-.L33)/2
 294 00e0 BB00     		.2byte	(.L30-.L33)/2
 295 00e2 E000     		.2byte	(.L26-.L33)/2
 296 00e4 E000     		.2byte	(.L26-.L33)/2
 297 00e6 E000     		.2byte	(.L26-.L33)/2
 298 00e8 E000     		.2byte	(.L26-.L33)/2
 299 00ea E000     		.2byte	(.L26-.L33)/2
 300 00ec E000     		.2byte	(.L26-.L33)/2
 301 00ee E000     		.2byte	(.L26-.L33)/2
 302 00f0 E000     		.2byte	(.L26-.L33)/2
 303 00f2 E000     		.2byte	(.L26-.L33)/2
 304 00f4 E000     		.2byte	(.L26-.L33)/2
 305 00f6 9900     		.2byte	(.L31-.L33)/2
 306 00f8 D000     		.2byte	(.L27-.L33)/2
 307 00fa E000     		.2byte	(.L26-.L33)/2
 308 00fc E000     		.2byte	(.L26-.L33)/2
 309 00fe E000     		.2byte	(.L26-.L33)/2
 310 0100 E000     		.2byte	(.L26-.L33)/2
 311 0102 E000     		.2byte	(.L26-.L33)/2
 312 0104 E000     		.2byte	(.L26-.L33)/2
 313 0106 E000     		.2byte	(.L26-.L33)/2
 314 0108 E000     		.2byte	(.L26-.L33)/2
 315 010a E000     		.2byte	(.L26-.L33)/2
 316 010c E000     		.2byte	(.L26-.L33)/2
 317 010e E600     		.2byte	(.L28-.L33)/2
 318 0110 E000     		.2byte	(.L26-.L33)/2
 319 0112 E000     		.2byte	(.L26-.L33)/2
 320 0114 E000     		.2byte	(.L26-.L33)/2
 321 0116 5000     		.2byte	(.L32-.L33)/2
 322 0118 E000     		.2byte	(.L26-.L33)/2
 323 011a C800     		.2byte	(.L56-.L33)/2
 324 011c E000     		.2byte	(.L26-.L33)/2
 325 011e E000     		.2byte	(.L26-.L33)/2
 326 0120 BB00     		.2byte	(.L30-.L33)/2
 327              	.LVL40:
 328              	.L22:
 329              		.loc 1 135 0
 330 0122 0A78     		ldrb	r2, [r1, #0]	@ zero_extendqisi2
 331              	.LVL41:
 332 0124 0431     		adds	r1, r1, #4
 333              	.LVL42:
 334              	.L21:
 335              		.loc 1 139 0
 336 0126 02EB4C00 		add	r0, r2, ip, lsl #1
 337              	.LVL43:
 338              	.L23:
 339              		.loc 1 131 0
 340 012a 14F8013B 		ldrb	r3, [r4], #1	@ zero_extendqisi2
 341              	.LVL44:
 342              		.loc 1 138 0
ARM GAS  C:\DOCUME~1\ADMINI~1\LOCALS~1\Temp\cckZ5ZEo.s 			page 7


 343 012e 00EB800C 		add	ip, r0, r0, lsl #2
 344              		.loc 1 132 0
 345 0132 A3F13002 		sub	r2, r3, #48
 346 0136 D2B2     		uxtb	r2, r2
 347 0138 092A     		cmp	r2, #9
 348 013a F4D9     		bls	.L21
 349              		.loc 1 134 0
 350 013c 2A2B     		cmp	r3, #42
 351 013e F0D0     		beq	.L22
 352              		.loc 1 143 0
 353 0140 03F0DF02 		and	r2, r3, #223
 354 0144 4C2A     		cmp	r2, #76
 355 0146 0291     		str	r1, [sp, #8]
 356 0148 A9D0     		beq	.L79
 357              	.LVL45:
 358              	.L24:
 359              		.loc 1 149 0
 360 014a A3F14101 		sub	r1, r3, #65
 361 014e 1929     		cmp	r1, #25
 362 0150 8CBF     		ite	hi
 363 0152 0021     		movhi	r1, #0
 364 0154 0121     		movls	r1, #1
 365              	.LVL46:
 366 0156 A8E7     		b	.L25
 367              	.LVL47:
 368              	.L32:
 369              		.loc 1 159 0
 370 0158 029B     		ldr	r3, [sp, #8]
 371              	.LVL48:
 372              		.loc 1 160 0
 373 015a 40F20002 		movw	r2, #:lower16:.LC0
 374              	.LVL49:
 375              		.loc 1 159 0
 376 015e D3F800A0 		ldr	sl, [r3, #0]
 377              	.LVL50:
 378              		.loc 1 160 0
 379 0162 C0F20002 		movt	r2, #:upper16:.LC0
 380 0166 BAF1000F 		cmp	sl, #0
 381 016a 08BF     		it	eq
 382 016c 9246     		moveq	sl, r2
 383              	.LVL51:
 384              		.loc 1 159 0
 385 016e 0433     		adds	r3, r3, #4
 386              		.loc 1 163 0
 387 0170 9AF80020 		ldrb	r2, [sl, #0]	@ zero_extendqisi2
 388              		.loc 1 159 0
 389 0174 0293     		str	r3, [sp, #8]
 390              		.loc 1 162 0
 391 0176 47F6FF73 		movw	r3, #32767
 392 017a 0028     		cmp	r0, #0
 393 017c 08BF     		it	eq
 394 017e 1846     		moveq	r0, r3
 395              	.LVL52:
 396              		.loc 1 163 0
 397 0180 002A     		cmp	r2, #0
 398 0182 00F0A880 		beq	.L59
 399              	.LVL53:
ARM GAS  C:\DOCUME~1\ADMINI~1\LOCALS~1\Temp\cckZ5ZEo.s 			page 8


 400 0186 5346     		mov	r3, sl
 401              		.loc 1 86 0
 402 0188 5044     		add	r0, sl, r0
 403              	.LVL54:
 404 018a 02E0     		b	.L38
 405              	.LVL55:
 406              	.L37:
 407              		.loc 1 163 0 discriminator 2
 408 018c 9042     		cmp	r0, r2
 409 018e 00F09E80 		beq	.L80
 410              	.LVL56:
 411              	.L38:
 412              		.loc 1 163 0 is_stmt 0 discriminator 1
 413 0192 5978     		ldrb	r1, [r3, #1]	@ zero_extendqisi2
 414              		.loc 1 86 0 is_stmt 1 discriminator 1
 415 0194 5A1C     		adds	r2, r3, #1
 416              	.LVL57:
 417 0196 1346     		mov	r3, r2
 418              		.loc 1 163 0 discriminator 1
 419 0198 0029     		cmp	r1, #0
 420 019a F7D1     		bne	.L37
 421 019c CAEB020B 		rsb	fp, sl, r2
 422              		.loc 1 201 0
 423 01a0 CBEB0606 		rsb	r6, fp, r6
 424              	.LVL58:
 425              		.loc 1 158 0
 426 01a4 2027     		movs	r7, #32
 427              	.LVL59:
 428 01a6 26EAE676 		bic	r6, r6, r6, asr #31
 429              	.LVL60:
 430              		.loc 1 203 0
 431 01aa B8F1000F 		cmp	r8, #0
 432 01ae 2DD0     		beq	.L81
 433              	.LVL61:
 434              	.L44:
 435              		.loc 1 214 0 discriminator 1
 436 01b0 BBF1000F 		cmp	fp, #0
 437              		.loc 1 86 0 discriminator 1
 438 01b4 C8BF     		it	gt
 439 01b6 0AEB0B08 		addgt	r8, sl, fp
 440              	.LVL62:
 441              		.loc 1 214 0 discriminator 1
 442 01ba 09DD     		ble	.L50
 443              	.LVL63:
 444              	.L49:
 445              		.loc 1 215 0
 446 01bc 2B68     		ldr	r3, [r5, #0]
 447 01be 1AF8011B 		ldrb	r1, [sl], #1	@ zero_extendqisi2
 448              	.LVL64:
 449 01c2 1B69     		ldr	r3, [r3, #16]
 450 01c4 2846     		mov	r0, r5
 451 01c6 4FF0FF32 		mov	r2, #-1
 452 01ca 9847     		blx	r3
 453              	.LVL65:
 454              		.loc 1 214 0
 455 01cc C245     		cmp	sl, r8
 456 01ce F5D1     		bne	.L49
ARM GAS  C:\DOCUME~1\ADMINI~1\LOCALS~1\Temp\cckZ5ZEo.s 			page 9


 457              	.L50:
 458              	.LVL66:
 459              		.loc 1 217 0
 460 01d0 002E     		cmp	r6, #0
 461 01d2 3FF427AF 		beq	.L71
 462              	.L63:
 463              		.loc 1 218 0
 464 01d6 2B68     		ldr	r3, [r5, #0]
 465 01d8 2846     		mov	r0, r5
 466 01da 1B69     		ldr	r3, [r3, #16]
 467 01dc 3946     		mov	r1, r7
 468 01de 4FF0FF32 		mov	r2, #-1
 469 01e2 9847     		blx	r3
 470              	.LVL67:
 471              		.loc 1 217 0
 472 01e4 013E     		subs	r6, r6, #1
 473              	.LVL68:
 474 01e6 F6D1     		bne	.L63
 475 01e8 1CE7     		b	.L71
 476              	.LVL69:
 477              	.L31:
 478              		.loc 1 155 0
 479 01ea 029B     		ldr	r3, [sp, #8]
 480              	.LVL70:
 481 01ec DDF804B0 		ldr	fp, [sp, #4]
 482 01f0 1A68     		ldr	r2, [r3, #0]
 483              	.LVL71:
 484 01f2 0433     		adds	r3, r3, #4
 485 01f4 0293     		str	r3, [sp, #8]
 486 01f6 8DF80C20 		strb	r2, [sp, #12]
 487              	.LVL72:
 488              		.loc 1 154 0
 489 01fa 2027     		movs	r7, #32
 490              		.loc 1 106 0
 491 01fc CA46     		mov	sl, r9
 492              	.LVL73:
 493              	.L34:
 494              		.loc 1 201 0
 495 01fe CBEB0606 		rsb	r6, fp, r6
 496              	.LVL74:
 497 0202 26EAE676 		bic	r6, r6, r6, asr #31
 498              	.LVL75:
 499              		.loc 1 203 0
 500 0206 B8F1000F 		cmp	r8, #0
 501 020a D1D1     		bne	.L44
 502              	.LVL76:
 503              	.L81:
 504              		.loc 1 204 0
 505 020c 7642     		negs	r6, r6
 506              	.LVL77:
 507              		.loc 1 205 0
 508 020e 002E     		cmp	r6, #0
 509 0210 CED0     		beq	.L44
 510              		.loc 1 206 0
 511 0212 9AF80010 		ldrb	r1, [sl, #0]	@ zero_extendqisi2
 512 0216 2D29     		cmp	r1, #45
 513 0218 4CD0     		beq	.L82
ARM GAS  C:\DOCUME~1\ADMINI~1\LOCALS~1\Temp\cckZ5ZEo.s 			page 10


 514              	.LVL78:
 515              	.L64:
 516              		.loc 1 211 0 discriminator 1
 517 021a 2B68     		ldr	r3, [r5, #0]
 518 021c 2846     		mov	r0, r5
 519 021e 1B69     		ldr	r3, [r3, #16]
 520 0220 3946     		mov	r1, r7
 521 0222 4FF0FF32 		mov	r2, #-1
 522 0226 9847     		blx	r3
 523              	.LVL79:
 524              		.loc 1 212 0 discriminator 1
 525 0228 0136     		adds	r6, r6, #1
 526              	.LVL80:
 527 022a F6D1     		bne	.L64
 528 022c C0E7     		b	.L44
 529              	.LVL81:
 530              	.L30:
 531              		.loc 1 152 0
 532 022e 1022     		movs	r2, #16
 533              	.LVL82:
 534              	.L29:
 535              		.loc 1 191 0
 536 0230 029B     		ldr	r3, [sp, #8]
 537              		.loc 1 190 0
 538 0232 69B1     		cbz	r1, .L42
 539              	.L83:
 540              		.loc 1 191 0
 541 0234 191D     		adds	r1, r3, #4
 542              	.LVL83:
 543 0236 0291     		str	r1, [sp, #8]
 544 0238 1968     		ldr	r1, [r3, #0]
 545              	.LVL84:
 546              	.L43:
 547              		.loc 1 194 0
 548 023a 4846     		mov	r0, r9
 549 023c FFF7FEFF 		bl	ltoa
 550              	.LVL85:
 551              		.loc 1 106 0
 552 0240 CA46     		mov	sl, r9
 553 0242 C9EB000B 		rsb	fp, r9, r0
 554              		.loc 1 195 0
 555 0246 DAE7     		b	.L34
 556              	.LVL86:
 557              	.L56:
 558              		.loc 1 152 0
 559 0248 0A22     		movs	r2, #10
 560              	.LVL87:
 561              		.loc 1 191 0
 562 024a 029B     		ldr	r3, [sp, #8]
 563              		.loc 1 190 0
 564 024c 0029     		cmp	r1, #0
 565 024e F1D1     		bne	.L83
 566              	.L42:
 567              		.loc 1 193 0
 568 0250 181D     		adds	r0, r3, #4
 569              	.LVL88:
 570 0252 1968     		ldr	r1, [r3, #0]
ARM GAS  C:\DOCUME~1\ADMINI~1\LOCALS~1\Temp\cckZ5ZEo.s 			page 11


 571              	.LVL89:
 572 0254 0290     		str	r0, [sp, #8]
 573 0256 F0E7     		b	.L43
 574              	.LVL90:
 575              	.L27:
 576              		.loc 1 169 0
 577 0258 029B     		ldr	r3, [sp, #8]
 578              	.LVL91:
 579 025a 1A1D     		adds	r2, r3, #4
 580              	.LVL92:
 581              		.loc 1 168 0
 582 025c E9B9     		cbnz	r1, .L84
 583              		.loc 1 171 0
 584 025e 1968     		ldr	r1, [r3, #0]
 585              	.LVL93:
 586 0260 0292     		str	r2, [sp, #8]
 587              		.loc 1 172 0
 588 0262 0029     		cmp	r1, #0
 589              		.loc 1 105 0
 590 0264 A8BF     		it	ge
 591 0266 4846     		movge	r0, r9
 592              	.LVL94:
 593              		.loc 1 172 0
 594 0268 1DDB     		blt	.L85
 595              	.LVL95:
 596              	.L41:
 597              		.loc 1 176 0
 598 026a 0A22     		movs	r2, #10
 599 026c FFF7FEFF 		bl	ltoa
 600              	.LVL96:
 601              		.loc 1 106 0
 602 0270 CA46     		mov	sl, r9
 603 0272 C9EB000B 		rsb	fp, r9, r0
 604              		.loc 1 177 0
 605 0276 C2E7     		b	.L34
 606              	.LVL97:
 607              	.L26:
 608              		.loc 1 197 0
 609 0278 8DF80C30 		strb	r3, [sp, #12]
 610              	.LVL98:
 611 027c DDF804B0 		ldr	fp, [sp, #4]
 612              		.loc 1 106 0
 613 0280 CA46     		mov	sl, r9
 614              		.loc 1 198 0
 615 0282 BCE7     		b	.L34
 616              	.LVL99:
 617              	.L28:
 618 0284 0822     		movs	r2, #8
 619 0286 D3E7     		b	.L29
 620              	.LVL100:
 621              	.L77:
 622 0288 7378     		ldrb	r3, [r6, #1]	@ zero_extendqisi2
 623              		.loc 1 115 0
 624 028a 3027     		movs	r7, #48
 625              		.loc 1 114 0
 626 028c 0136     		adds	r6, r6, #1
 627              	.LVL101:
ARM GAS  C:\DOCUME~1\ADMINI~1\LOCALS~1\Temp\cckZ5ZEo.s 			page 12


 628 028e EBE6     		b	.L16
 629              	.LVL102:
 630              	.L76:
 631              		.loc 1 109 0
 632 0290 A61C     		adds	r6, r4, #2
 633              	.LVL103:
 634 0292 A378     		ldrb	r3, [r4, #2]	@ zero_extendqisi2
 635              		.loc 1 110 0
 636 0294 4FF00108 		mov	r8, #1
 637 0298 E2E6     		b	.L15
 638              	.LVL104:
 639              	.L84:
 640              		.loc 1 169 0
 641 029a 1968     		ldr	r1, [r3, #0]
 642              	.LVL105:
 643 029c 0292     		str	r2, [sp, #8]
 644              		.loc 1 172 0
 645 029e 0029     		cmp	r1, #0
 646              		.loc 1 105 0
 647 02a0 A8BF     		it	ge
 648 02a2 4846     		movge	r0, r9
 649              	.LVL106:
 650              		.loc 1 172 0
 651 02a4 E1DA     		bge	.L41
 652              	.L85:
 653              		.loc 1 173 0
 654 02a6 2D23     		movs	r3, #45
 655 02a8 8DF80C30 		strb	r3, [sp, #12]
 656              	.LVL107:
 657              		.loc 1 174 0
 658 02ac 4942     		negs	r1, r1
 659              	.LVL108:
 660              		.loc 1 173 0
 661 02ae 0DF10D00 		add	r0, sp, #13
 662 02b2 DAE7     		b	.L41
 663              	.LVL109:
 664              	.L82:
 665              		.loc 1 206 0 discriminator 1
 666 02b4 302F     		cmp	r7, #48
 667 02b6 B0D1     		bne	.L64
 668              		.loc 1 207 0
 669 02b8 2B68     		ldr	r3, [r5, #0]
 670 02ba 2846     		mov	r0, r5
 671 02bc 1B69     		ldr	r3, [r3, #16]
 672 02be 4FF0FF32 		mov	r2, #-1
 673 02c2 9847     		blx	r3
 674              	.LVL110:
 675 02c4 0AF1010A 		add	sl, sl, #1
 676              	.LVL111:
 677              		.loc 1 208 0
 678 02c8 0BF1FF3B 		add	fp, fp, #-1
 679              	.LVL112:
 680 02cc A5E7     		b	.L64
 681              	.LVL113:
 682              	.L80:
 683 02ce CAEB000B 		rsb	fp, sl, r0
 684              		.loc 1 158 0
ARM GAS  C:\DOCUME~1\ADMINI~1\LOCALS~1\Temp\cckZ5ZEo.s 			page 13


 685 02d2 2027     		movs	r7, #32
 686 02d4 93E7     		b	.L34
 687              	.LVL114:
 688              	.L59:
 689              		.loc 1 163 0
 690 02d6 9346     		mov	fp, r2
 691              		.loc 1 158 0
 692 02d8 2027     		movs	r7, #32
 693 02da 90E7     		b	.L34
 694              		.cfi_endproc
 695              	.LFE8:
 696              		.size	chprintf, .-chprintf
 697              		.section	.rodata.str1.4,"aMS",%progbits,1
 698              		.align	2
 699              	.LC0:
 700 0000 286E756C 		.ascii	"(null)\000"
 700      6C2900
 701 0007 00       		.text
 702              	.Letext0:
 703              		.file 2 "c:\\program files\\yagarto\\bin\\../lib/gcc/arm-none-eabi/4.7.1/include/stdarg.h"
 704              		.file 3 "c:\\program files\\yagarto\\bin\\../lib/gcc/arm-none-eabi/4.7.1/include/stddef.h"
 705              		.file 4 "c:/program files/yagarto/lib/gcc/../../arm-none-eabi/sys-include/stdint.h"
 706              		.file 5 "../../os/ports/GCC/ARMCMx/chtypes.h"
 707              		.file 6 "<built-in>"
 708              		.file 7 "../../os/kernel/include/chioch.h"