ARM GAS  C:\DOCUME~1\ADMINI~1\LOCALS~1\Temp\ccZLXRS1.s 			page 1


   1              		.syntax unified
   2              		.cpu cortex-m3
   3              		.fpu softvfp
   4              		.eabi_attribute 20, 1
   5              		.eabi_attribute 21, 1
   6              		.eabi_attribute 23, 3
   7              		.eabi_attribute 24, 1
   8              		.eabi_attribute 25, 1
   9              		.eabi_attribute 26, 1
  10              		.eabi_attribute 30, 2
  11              		.eabi_attribute 34, 1
  12              		.eabi_attribute 18, 4
  13              		.thumb
  14              		.file	"chschd.c"
  15              		.text
  16              	.Ltext0:
  17              		.cfi_sections	.debug_frame
  18              		.section	.text.wakeup,"ax",%progbits
  19              		.align	2
  20              		.thumb
  21              		.thumb_func
  22              		.type	wakeup, %function
  23              	wakeup:
  24              	.LFB10:
  25              		.file 1 "../../os/kernel/src/chschd.c"
  26              		.loc 1 133 0
  27              		.cfi_startproc
  28              		@ args = 0, pretend = 0, frame = 0
  29              		@ frame_needed = 0, uses_anonymous_args = 0
  30              		@ link register save eliminated.
  31              	.LVL0:
  32              		.loc 1 136 0
  33 0000 037F     		ldrb	r3, [r0, #28]	@ zero_extendqisi2
  34 0002 0D2B     		cmp	r3, #13
  35 0004 11D8     		bhi	.L2
  36 0006 DFE803F0 		tbb	[pc, r3]
  37              	.L6:
  38 000a 20       		.byte	(.L1-.L6)/2
  39 000b 10       		.byte	(.L2-.L6)/2
  40 000c 10       		.byte	(.L2-.L6)/2
  41 000d 07       		.byte	(.L4-.L6)/2
  42 000e 10       		.byte	(.L2-.L6)/2
  43 000f 0B       		.byte	(.L5-.L6)/2
  44 0010 10       		.byte	(.L2-.L6)/2
  45 0011 10       		.byte	(.L2-.L6)/2
  46 0012 10       		.byte	(.L2-.L6)/2
  47 0013 10       		.byte	(.L2-.L6)/2
  48 0014 10       		.byte	(.L2-.L6)/2
  49 0015 10       		.byte	(.L2-.L6)/2
  50 0016 10       		.byte	(.L2-.L6)/2
  51 0017 0B       		.byte	(.L5-.L6)/2
  52              		.align	1
  53              	.L4:
  54              		.loc 1 145 0
  55 0018 436A     		ldr	r3, [r0, #36]
  56 001a 9A68     		ldr	r2, [r3, #8]
  57 001c 0132     		adds	r2, r2, #1
ARM GAS  C:\DOCUME~1\ADMINI~1\LOCALS~1\Temp\ccZLXRS1.s 			page 2


  58 001e 9A60     		str	r2, [r3, #8]
  59              	.L5:
  60              	.LVL1:
  61              	.LBB17:
  62              	.LBB18:
  63              		.file 2 "../../os/kernel/include/chinline.h"
  64              		.loc 2 75 0
  65 0020 90E80C00 		ldmia	r0, {r2, r3}
  66 0024 1A60     		str	r2, [r3, #0]
  67              		.loc 2 76 0
  68 0026 0268     		ldr	r2, [r0, #0]
  69 0028 5360     		str	r3, [r2, #4]
  70              	.LVL2:
  71              	.L2:
  72              	.LBE18:
  73              	.LBE17:
  74              		.loc 1 158 0
  75 002a 4FF0FF32 		mov	r2, #-1
  76 002e 4262     		str	r2, [r0, #36]
  77              	.LVL3:
  78 0030 8168     		ldr	r1, [r0, #8]
  79              	.LBB19:
  80              	.LBB20:
  81              		.loc 1 91 0
  82 0032 0022     		movs	r2, #0
  83              		.loc 1 92 0
  84 0034 054B     		ldr	r3, .L10
  85              		.loc 1 91 0
  86 0036 0277     		strb	r2, [r0, #28]
  87              	.LVL4:
  88              	.L7:
  89              		.loc 1 94 0
  90 0038 1B68     		ldr	r3, [r3, #0]
  91              	.LVL5:
  92              		.loc 1 95 0
  93 003a 9A68     		ldr	r2, [r3, #8]
  94 003c 8A42     		cmp	r2, r1
  95 003e FBD2     		bcs	.L7
  96              		.loc 1 98 0
  97 0040 5A68     		ldr	r2, [r3, #4]
  98              		.loc 1 97 0
  99 0042 0360     		str	r3, [r0, #0]
 100              		.loc 1 98 0
 101 0044 4260     		str	r2, [r0, #4]
 102              		.loc 1 99 0
 103 0046 1060     		str	r0, [r2, #0]
 104 0048 5860     		str	r0, [r3, #4]
 105              	.LVL6:
 106              	.L1:
 107 004a 7047     		bx	lr
 108              	.L11:
 109              		.align	2
 110              	.L10:
 111 004c 00000000 		.word	.LANCHOR0
 112              	.LBE20:
 113              	.LBE19:
 114              		.cfi_endproc
ARM GAS  C:\DOCUME~1\ADMINI~1\LOCALS~1\Temp\ccZLXRS1.s 			page 3


 115              	.LFE10:
 116              		.size	wakeup, .-wakeup
 117              		.section	.text._scheduler_init,"ax",%progbits
 118              		.align	2
 119              		.global	_scheduler_init
 120              		.thumb
 121              		.thumb_func
 122              		.type	_scheduler_init, %function
 123              	_scheduler_init:
 124              	.LFB7:
 125              		.loc 1 55 0
 126              		.cfi_startproc
 127              		@ args = 0, pretend = 0, frame = 0
 128              		@ frame_needed = 0, uses_anonymous_args = 0
 129              		@ link register save eliminated.
 130              		.loc 1 57 0
 131 0000 40F20003 		movw	r3, #:lower16:.LANCHOR0
 132 0004 C0F20003 		movt	r3, #:upper16:.LANCHOR0
 133              		.loc 1 58 0
 134 0008 0022     		movs	r2, #0
 135 000a 9A60     		str	r2, [r3, #8]
 136              		.loc 1 60 0
 137 000c 1422     		movs	r2, #20
 138              		.loc 1 57 0
 139 000e 5B60     		str	r3, [r3, #4]
 140 0010 1B60     		str	r3, [r3, #0]
 141              		.loc 1 60 0
 142 0012 9A61     		str	r2, [r3, #24]
 143              		.loc 1 63 0
 144 0014 5B61     		str	r3, [r3, #20]
 145 0016 1B61     		str	r3, [r3, #16]
 146 0018 7047     		bx	lr
 147              		.cfi_endproc
 148              	.LFE7:
 149              		.size	_scheduler_init, .-_scheduler_init
 150 001a 00BF     		.section	.text.chSchReadyI,"ax",%progbits
 151              		.align	2
 152              		.global	chSchReadyI
 153              		.thumb
 154              		.thumb_func
 155              		.type	chSchReadyI, %function
 156              	chSchReadyI:
 157              	.LFB8:
 158              		.loc 1 82 0
 159              		.cfi_startproc
 160              		@ args = 0, pretend = 0, frame = 0
 161              		@ frame_needed = 0, uses_anonymous_args = 0
 162              		@ link register save eliminated.
 163              	.LVL7:
 164              		.loc 1 91 0
 165 0000 0022     		movs	r2, #0
 166 0002 8168     		ldr	r1, [r0, #8]
 167              		.loc 1 92 0
 168 0004 054B     		ldr	r3, .L16
 169              		.loc 1 91 0
 170 0006 0277     		strb	r2, [r0, #28]
 171              	.LVL8:
ARM GAS  C:\DOCUME~1\ADMINI~1\LOCALS~1\Temp\ccZLXRS1.s 			page 4


 172              	.L14:
 173              		.loc 1 94 0 discriminator 1
 174 0008 1B68     		ldr	r3, [r3, #0]
 175              	.LVL9:
 176              		.loc 1 95 0 discriminator 1
 177 000a 9A68     		ldr	r2, [r3, #8]
 178 000c 8A42     		cmp	r2, r1
 179 000e FBD2     		bcs	.L14
 180              		.loc 1 98 0
 181 0010 5A68     		ldr	r2, [r3, #4]
 182              		.loc 1 97 0
 183 0012 0360     		str	r3, [r0, #0]
 184              		.loc 1 98 0
 185 0014 4260     		str	r2, [r0, #4]
 186              		.loc 1 99 0
 187 0016 1060     		str	r0, [r2, #0]
 188 0018 5860     		str	r0, [r3, #4]
 189              		.loc 1 101 0
 190 001a 7047     		bx	lr
 191              	.L17:
 192              		.align	2
 193              	.L16:
 194 001c 00000000 		.word	.LANCHOR0
 195              		.cfi_endproc
 196              	.LFE8:
 197              		.size	chSchReadyI, .-chSchReadyI
 198              		.section	.text.chSchGoSleepS,"ax",%progbits
 199              		.align	2
 200              		.global	chSchGoSleepS
 201              		.thumb
 202              		.thumb_func
 203              		.type	chSchGoSleepS, %function
 204              	chSchGoSleepS:
 205              	.LFB9:
 206              		.loc 1 114 0
 207              		.cfi_startproc
 208              		@ args = 0, pretend = 0, frame = 0
 209              		@ frame_needed = 0, uses_anonymous_args = 0
 210              		@ link register save eliminated.
 211              	.LVL10:
 212              		.loc 1 119 0
 213 0000 40F20003 		movw	r3, #:lower16:.LANCHOR0
 214              		.loc 1 114 0
 215 0004 30B4     		push	{r4, r5}
 216              	.LCFI0:
 217              		.cfi_def_cfa_offset 8
 218              		.cfi_offset 4, -8
 219              		.cfi_offset 5, -4
 220              		.loc 1 119 0
 221 0006 C0F20003 		movt	r3, #:upper16:.LANCHOR0
 222              	.LBB21:
 223              	.LBB22:
 224              		.loc 2 60 0
 225 000a 1A68     		ldr	r2, [r3, #0]
 226              	.LBE22:
 227              	.LBE21:
 228              		.loc 1 119 0
ARM GAS  C:\DOCUME~1\ADMINI~1\LOCALS~1\Temp\ccZLXRS1.s 			page 5


 229 000c D969     		ldr	r1, [r3, #28]
 230              	.LVL11:
 231              	.LBB25:
 232              	.LBB23:
 233              		.loc 2 62 0
 234 000e 1468     		ldr	r4, [r2, #0]
 235              	.LBE23:
 236              	.LBE25:
 237              		.loc 1 119 0
 238 0010 0877     		strb	r0, [r1, #28]
 239              		.loc 1 121 0
 240 0012 1420     		movs	r0, #20
 241              	.LVL12:
 242 0014 9861     		str	r0, [r3, #24]
 243              	.LVL13:
 244              		.loc 1 124 0
 245 0016 0125     		movs	r5, #1
 246              		.loc 1 125 0
 247 0018 1046     		mov	r0, r2
 248              	.LBB26:
 249              	.LBB24:
 250              		.loc 2 62 0
 251 001a 6360     		str	r3, [r4, #4]
 252 001c 1C60     		str	r4, [r3, #0]
 253              	.LBE24:
 254              	.LBE26:
 255              		.loc 1 123 0
 256 001e DA61     		str	r2, [r3, #28]
 257              		.loc 1 124 0
 258 0020 1577     		strb	r5, [r2, #28]
 259              		.loc 1 126 0
 260 0022 30BC     		pop	{r4, r5}
 261              		.loc 1 125 0
 262 0024 FFF7FEBF 		b	_port_switch
 263              	.LVL14:
 264              		.cfi_endproc
 265              	.LFE9:
 266              		.size	chSchGoSleepS, .-chSchGoSleepS
 267              		.section	.text.chSchGoSleepTimeoutS,"ax",%progbits
 268              		.align	2
 269              		.global	chSchGoSleepTimeoutS
 270              		.thumb
 271              		.thumb_func
 272              		.type	chSchGoSleepTimeoutS, %function
 273              	chSchGoSleepTimeoutS:
 274              	.LFB11:
 275              		.loc 1 183 0
 276              		.cfi_startproc
 277              		@ args = 0, pretend = 0, frame = 24
 278              		@ frame_needed = 0, uses_anonymous_args = 0
 279              	.LVL15:
 280 0000 30B5     		push	{r4, r5, lr}
 281              	.LCFI1:
 282              		.cfi_def_cfa_offset 12
 283              		.cfi_offset 4, -12
 284              		.cfi_offset 5, -8
 285              		.cfi_offset 14, -4
ARM GAS  C:\DOCUME~1\ADMINI~1\LOCALS~1\Temp\ccZLXRS1.s 			page 6


 286              		.loc 1 187 0
 287 0002 4B1C     		adds	r3, r1, #1
 288              		.loc 1 183 0
 289 0004 87B0     		sub	sp, sp, #28
 290              	.LCFI2:
 291              		.cfi_def_cfa_offset 40
 292              		.loc 1 183 0
 293 0006 0546     		mov	r5, r0
 294              		.loc 1 187 0
 295 0008 11D0     		beq	.L20
 296              	.LBB27:
 297              		.loc 1 190 0
 298 000a 0B4C     		ldr	r4, .L26
 299 000c 0B4A     		ldr	r2, .L26+4
 300 000e E369     		ldr	r3, [r4, #28]
 301 0010 01A8     		add	r0, sp, #4
 302              	.LVL16:
 303 0012 FFF7FEFF 		bl	chVTSetI
 304              	.LVL17:
 305              		.loc 1 191 0
 306 0016 2846     		mov	r0, r5
 307 0018 FFF7FEFF 		bl	chSchGoSleepS
 308              	.LVL18:
 309              		.loc 1 192 0
 310 001c 049B     		ldr	r3, [sp, #16]
 311 001e 13B1     		cbz	r3, .L22
 312              		.loc 1 193 0
 313 0020 01A8     		add	r0, sp, #4
 314 0022 FFF7FEFF 		bl	chVTResetI
 315              	.LVL19:
 316              	.L22:
 317              	.LBE27:
 318              		.loc 1 197 0
 319 0026 E369     		ldr	r3, [r4, #28]
 320              		.loc 1 198 0
 321 0028 586A     		ldr	r0, [r3, #36]
 322 002a 07B0     		add	sp, sp, #28
 323 002c 30BD     		pop	{r4, r5, pc}
 324              	.LVL20:
 325              	.L20:
 326              		.loc 1 196 0
 327 002e FFF7FEFF 		bl	chSchGoSleepS
 328              	.LVL21:
 329 0032 014C     		ldr	r4, .L26
 330 0034 F7E7     		b	.L22
 331              	.L27:
 332 0036 00BF     		.align	2
 333              	.L26:
 334 0038 00000000 		.word	.LANCHOR0
 335 003c 00000000 		.word	wakeup
 336              		.cfi_endproc
 337              	.LFE11:
 338              		.size	chSchGoSleepTimeoutS, .-chSchGoSleepTimeoutS
 339              		.section	.text.chSchWakeupS,"ax",%progbits
 340              		.align	2
 341              		.global	chSchWakeupS
 342              		.thumb
ARM GAS  C:\DOCUME~1\ADMINI~1\LOCALS~1\Temp\ccZLXRS1.s 			page 7


 343              		.thumb_func
 344              		.type	chSchWakeupS, %function
 345              	chSchWakeupS:
 346              	.LFB12:
 347              		.loc 1 219 0
 348              		.cfi_startproc
 349              		@ args = 0, pretend = 0, frame = 0
 350              		@ frame_needed = 0, uses_anonymous_args = 0
 351              		@ link register save eliminated.
 352              	.LVL22:
 353 0000 F0B4     		push	{r4, r5, r6, r7}
 354              	.LCFI3:
 355              		.cfi_def_cfa_offset 16
 356              		.cfi_offset 4, -16
 357              		.cfi_offset 5, -12
 358              		.cfi_offset 6, -8
 359              		.cfi_offset 7, -4
 360              		.loc 1 228 0
 361 0002 154F     		ldr	r7, .L36
 362              		.loc 1 219 0
 363 0004 0446     		mov	r4, r0
 364              		.loc 1 228 0
 365 0006 FE69     		ldr	r6, [r7, #28]
 366 0008 8568     		ldr	r5, [r0, #8]
 367 000a B068     		ldr	r0, [r6, #8]
 368              	.LVL23:
 369              	.LBB28:
 370              	.LBB29:
 371              		.loc 1 91 0
 372 000c 0023     		movs	r3, #0
 373              	.LBE29:
 374              	.LBE28:
 375              		.loc 1 228 0
 376 000e 8542     		cmp	r5, r0
 377              		.loc 1 223 0
 378 0010 6162     		str	r1, [r4, #36]
 379              		.loc 1 228 0
 380 0012 0CD8     		bhi	.L29
 381              	.LVL24:
 382              	.LBB31:
 383              	.LBB30:
 384              		.loc 1 91 0
 385 0014 2377     		strb	r3, [r4, #28]
 386              	.LVL25:
 387              		.loc 1 92 0
 388 0016 3B46     		mov	r3, r7
 389              	.LVL26:
 390              	.L30:
 391              		.loc 1 94 0
 392 0018 1B68     		ldr	r3, [r3, #0]
 393              	.LVL27:
 394              		.loc 1 95 0
 395 001a 9A68     		ldr	r2, [r3, #8]
 396 001c 9542     		cmp	r5, r2
 397 001e FBD9     		bls	.L30
 398              		.loc 1 98 0
 399 0020 5A68     		ldr	r2, [r3, #4]
ARM GAS  C:\DOCUME~1\ADMINI~1\LOCALS~1\Temp\ccZLXRS1.s 			page 8


 400              		.loc 1 97 0
 401 0022 2360     		str	r3, [r4, #0]
 402              		.loc 1 98 0
 403 0024 6260     		str	r2, [r4, #4]
 404              		.loc 1 99 0
 405 0026 1460     		str	r4, [r2, #0]
 406 0028 5C60     		str	r4, [r3, #4]
 407              	.LBE30:
 408              	.LBE31:
 409              		.loc 1 239 0
 410 002a F0BC     		pop	{r4, r5, r6, r7}
 411 002c 7047     		bx	lr
 412              	.LVL28:
 413              	.L29:
 414              	.LBB32:
 415              	.LBB33:
 416              	.LBB34:
 417              		.loc 1 91 0
 418 002e 3377     		strb	r3, [r6, #28]
 419              	.LVL29:
 420              		.loc 1 92 0
 421 0030 3B46     		mov	r3, r7
 422              	.LVL30:
 423              	.L32:
 424              		.loc 1 94 0
 425 0032 1B68     		ldr	r3, [r3, #0]
 426              	.LVL31:
 427              		.loc 1 95 0
 428 0034 9A68     		ldr	r2, [r3, #8]
 429 0036 9042     		cmp	r0, r2
 430 0038 FBD9     		bls	.L32
 431              		.loc 1 98 0
 432 003a 5A68     		ldr	r2, [r3, #4]
 433              		.loc 1 97 0
 434 003c 3360     		str	r3, [r6, #0]
 435              		.loc 1 98 0
 436 003e 7260     		str	r2, [r6, #4]
 437              		.loc 1 99 0
 438 0040 5E60     		str	r6, [r3, #4]
 439              	.LBE34:
 440              	.LBE33:
 441              		.loc 1 236 0
 442 0042 0123     		movs	r3, #1
 443              	.LVL32:
 444              	.LBB36:
 445              	.LBB35:
 446              		.loc 1 99 0
 447 0044 1660     		str	r6, [r2, #0]
 448              	.LBE35:
 449              	.LBE36:
 450              		.loc 1 237 0
 451 0046 2046     		mov	r0, r4
 452              		.loc 1 235 0
 453 0048 FC61     		str	r4, [r7, #28]
 454              		.loc 1 237 0
 455 004a 3146     		mov	r1, r6
 456              	.LVL33:
ARM GAS  C:\DOCUME~1\ADMINI~1\LOCALS~1\Temp\ccZLXRS1.s 			page 9


 457              		.loc 1 236 0
 458 004c 2377     		strb	r3, [r4, #28]
 459              		.loc 1 233 0
 460 004e 1423     		movs	r3, #20
 461 0050 BB61     		str	r3, [r7, #24]
 462              	.LBE32:
 463              		.loc 1 239 0
 464 0052 F0BC     		pop	{r4, r5, r6, r7}
 465              	.LBB37:
 466              		.loc 1 237 0
 467 0054 FFF7FEBF 		b	_port_switch
 468              	.LVL34:
 469              	.L37:
 470              		.align	2
 471              	.L36:
 472 0058 00000000 		.word	.LANCHOR0
 473              	.LBE37:
 474              		.cfi_endproc
 475              	.LFE12:
 476              		.size	chSchWakeupS, .-chSchWakeupS
 477              		.section	.text.chSchDoReschedule,"ax",%progbits
 478              		.align	2
 479              		.global	chSchDoReschedule
 480              		.thumb
 481              		.thumb_func
 482              		.type	chSchDoReschedule, %function
 483              	chSchDoReschedule:
 484              	.LFB14:
 485              		.loc 1 298 0
 486              		.cfi_startproc
 487              		@ args = 0, pretend = 0, frame = 0
 488              		@ frame_needed = 0, uses_anonymous_args = 0
 489              		@ link register save eliminated.
 490              		.loc 1 302 0
 491 0000 0E4A     		ldr	r2, .L42
 492              		.loc 1 298 0
 493 0002 30B4     		push	{r4, r5}
 494              	.LCFI4:
 495              		.cfi_def_cfa_offset 8
 496              		.cfi_offset 4, -8
 497              		.cfi_offset 5, -4
 498              	.LBB38:
 499              	.LBB39:
 500              		.loc 2 60 0
 501 0004 1068     		ldr	r0, [r2, #0]
 502              	.LBE39:
 503              	.LBE38:
 504              		.loc 1 304 0
 505 0006 D169     		ldr	r1, [r2, #28]
 506              	.LVL35:
 507              	.LBB43:
 508              	.LBB40:
 509              		.loc 2 62 0
 510 0008 0368     		ldr	r3, [r0, #0]
 511              	.LBE40:
 512              	.LBE43:
 513              		.loc 1 302 0
ARM GAS  C:\DOCUME~1\ADMINI~1\LOCALS~1\Temp\ccZLXRS1.s 			page 10


 514 000a 1425     		movs	r5, #20
 515 000c 8C68     		ldr	r4, [r1, #8]
 516              	.LBB44:
 517              	.LBB41:
 518              		.loc 2 62 0
 519 000e 1360     		str	r3, [r2, #0]
 520              	.LBE41:
 521              	.LBE44:
 522              		.loc 1 302 0
 523 0010 9561     		str	r5, [r2, #24]
 524              	.LBB45:
 525              	.LBB42:
 526              		.loc 2 62 0
 527 0012 5A60     		str	r2, [r3, #4]
 528              	.LBE42:
 529              	.LBE45:
 530              		.loc 1 306 0
 531 0014 D061     		str	r0, [r2, #28]
 532              		.loc 1 307 0
 533 0016 0122     		movs	r2, #1
 534 0018 0277     		strb	r2, [r0, #28]
 535              	.LVL36:
 536              	.LBB46:
 537              	.LBB47:
 538              		.loc 1 91 0
 539 001a 0022     		movs	r2, #0
 540 001c 0346     		mov	r3, r0
 541 001e 0A77     		strb	r2, [r1, #28]
 542              	.LVL37:
 543 0020 00E0     		b	.L40
 544              	.LVL38:
 545              	.L41:
 546 0022 1B68     		ldr	r3, [r3, #0]
 547              	.LVL39:
 548              	.L40:
 549              		.loc 1 95 0
 550 0024 9A68     		ldr	r2, [r3, #8]
 551 0026 A242     		cmp	r2, r4
 552 0028 FBD2     		bcs	.L41
 553              		.loc 1 98 0
 554 002a 5A68     		ldr	r2, [r3, #4]
 555              		.loc 1 97 0
 556 002c 0B60     		str	r3, [r1, #0]
 557              		.loc 1 98 0
 558 002e 4A60     		str	r2, [r1, #4]
 559              		.loc 1 99 0
 560 0030 1160     		str	r1, [r2, #0]
 561 0032 5960     		str	r1, [r3, #4]
 562              	.LBE47:
 563              	.LBE46:
 564              		.loc 1 310 0
 565 0034 30BC     		pop	{r4, r5}
 566              		.loc 1 309 0
 567 0036 FFF7FEBF 		b	_port_switch
 568              	.LVL40:
 569              	.L43:
 570 003a 00BF     		.align	2
ARM GAS  C:\DOCUME~1\ADMINI~1\LOCALS~1\Temp\ccZLXRS1.s 			page 11


 571              	.L42:
 572 003c 00000000 		.word	.LANCHOR0
 573              		.cfi_endproc
 574              	.LFE14:
 575              		.size	chSchDoReschedule, .-chSchDoReschedule
 576              		.section	.text.chSchRescheduleS,"ax",%progbits
 577              		.align	2
 578              		.global	chSchRescheduleS
 579              		.thumb
 580              		.thumb_func
 581              		.type	chSchRescheduleS, %function
 582              	chSchRescheduleS:
 583              	.LFB13:
 584              		.loc 1 250 0
 585              		.cfi_startproc
 586              		@ args = 0, pretend = 0, frame = 0
 587              		@ frame_needed = 0, uses_anonymous_args = 0
 588              		@ link register save eliminated.
 589              		.loc 1 254 0
 590 0000 044B     		ldr	r3, .L47
 591 0002 1A68     		ldr	r2, [r3, #0]
 592 0004 DB69     		ldr	r3, [r3, #28]
 593 0006 9268     		ldr	r2, [r2, #8]
 594 0008 9B68     		ldr	r3, [r3, #8]
 595 000a 9A42     		cmp	r2, r3
 596 000c 00D8     		bhi	.L46
 597 000e 7047     		bx	lr
 598              	.L46:
 599              		.loc 1 256 0
 600              		.loc 1 255 0
 601 0010 FFF7FEBF 		b	chSchDoReschedule
 602              	.LVL41:
 603              	.L48:
 604              		.align	2
 605              	.L47:
 606 0014 00000000 		.word	.LANCHOR0
 607              		.cfi_endproc
 608              	.LFE13:
 609              		.size	chSchRescheduleS, .-chSchRescheduleS
 610              		.global	rlist
 611              		.section	.bss.rlist,"aw",%nobits
 612              		.align	2
 613              		.set	.LANCHOR0,. + 0
 614              		.type	rlist, %object
 615              		.size	rlist, 32
 616              	rlist:
 617 0000 00000000 		.space	32
 617      00000000 
 617      00000000 
 617      00000000 
 617      00000000 
 618              		.text
 619              	.Letext0:
 620              		.file 3 "c:/program files/yagarto/lib/gcc/../../arm-none-eabi/sys-include/stdint.h"
 621              		.file 4 "../../os/ports/GCC/ARMCMx/chtypes.h"
 622              		.file 5 "../../os/kernel/include/chlists.h"
 623              		.file 6 "../../os/kernel/include/chthreads.h"
ARM GAS  C:\DOCUME~1\ADMINI~1\LOCALS~1\Temp\ccZLXRS1.s 			page 12


 624              		.file 7 "../../os/ports/GCC/ARMCMx/chcore_v7m.h"
 625              		.file 8 "../../os/kernel/include/chvt.h"
 626              		.file 9 "../../os/kernel/include/chschd.h"
 627              		.file 10 "../../os/kernel/include/chsem.h"
 628              		.file 11 "../../os/kernel/include/chmtx.h"