ARM GAS  C:\DOCUME~1\ADMINI~1\LOCALS~1\Temp\cclPa52F.s 			page 1


   1              		.syntax unified
   2              		.cpu cortex-m3
   3              		.fpu softvfp
   4              		.eabi_attribute 20, 1
   5              		.eabi_attribute 21, 1
   6              		.eabi_attribute 23, 3
   7              		.eabi_attribute 24, 1
   8              		.eabi_attribute 25, 1
   9              		.eabi_attribute 26, 1
  10              		.eabi_attribute 30, 2
  11              		.eabi_attribute 34, 1
  12              		.eabi_attribute 18, 4
  13              		.thumb
  14              		.file	"chvt.c"
  15              		.text
  16              	.Ltext0:
  17              		.cfi_sections	.debug_frame
  18              		.section	.text._vt_init,"ax",%progbits
  19              		.align	2
  20              		.global	_vt_init
  21              		.thumb
  22              		.thumb_func
  23              		.type	_vt_init, %function
  24              	_vt_init:
  25              	.LFB7:
  26              		.file 1 "../../os/kernel/src/chvt.c"
  27              		.loc 1 50 0
  28              		.cfi_startproc
  29              		@ args = 0, pretend = 0, frame = 0
  30              		@ frame_needed = 0, uses_anonymous_args = 0
  31              		@ link register save eliminated.
  32              		.loc 1 52 0
  33 0000 40F20003 		movw	r3, #:lower16:.LANCHOR0
  34 0004 C0F20003 		movt	r3, #:upper16:.LANCHOR0
  35              		.loc 1 53 0
  36 0008 4FF0FF32 		mov	r2, #-1
  37 000c 9A60     		str	r2, [r3, #8]
  38              		.loc 1 54 0
  39 000e 0022     		movs	r2, #0
  40              		.loc 1 52 0
  41 0010 5B60     		str	r3, [r3, #4]
  42 0012 1B60     		str	r3, [r3, #0]
  43              		.loc 1 54 0
  44 0014 DA60     		str	r2, [r3, #12]
  45 0016 7047     		bx	lr
  46              		.cfi_endproc
  47              	.LFE7:
  48              		.size	_vt_init, .-_vt_init
  49              		.section	.text.chVTSetI,"ax",%progbits
  50              		.align	2
  51              		.global	chVTSetI
  52              		.thumb
  53              		.thumb_func
  54              		.type	chVTSetI, %function
  55              	chVTSetI:
  56              	.LFB8:
  57              		.loc 1 77 0
ARM GAS  C:\DOCUME~1\ADMINI~1\LOCALS~1\Temp\cclPa52F.s 			page 2


  58              		.cfi_startproc
  59              		@ args = 0, pretend = 0, frame = 0
  60              		@ frame_needed = 0, uses_anonymous_args = 0
  61              		@ link register save eliminated.
  62              	.LVL0:
  63 0000 70B4     		push	{r4, r5, r6}
  64              	.LCFI0:
  65              		.cfi_def_cfa_offset 12
  66              		.cfi_offset 4, -12
  67              		.cfi_offset 5, -8
  68              		.cfi_offset 6, -4
  69              		.loc 1 86 0
  70 0002 0D4E     		ldr	r6, .L9
  71              		.loc 1 84 0
  72 0004 0361     		str	r3, [r0, #16]
  73              		.loc 1 86 0
  74 0006 3468     		ldr	r4, [r6, #0]
  75              	.LVL1:
  76              		.loc 1 85 0
  77 0008 C260     		str	r2, [r0, #12]
  78              		.loc 1 87 0
  79 000a A568     		ldr	r5, [r4, #8]
  80 000c A942     		cmp	r1, r5
  81 000e 04D9     		bls	.L3
  82              	.L6:
  83              		.loc 1 89 0
  84 0010 2468     		ldr	r4, [r4, #0]
  85              	.LVL2:
  86              		.loc 1 88 0
  87 0012 491B     		subs	r1, r1, r5
  88              	.LVL3:
  89              		.loc 1 87 0
  90 0014 A568     		ldr	r5, [r4, #8]
  91 0016 8D42     		cmp	r5, r1
  92 0018 FAD3     		bcc	.L6
  93              	.L3:
  94              		.loc 1 92 0
  95 001a 6368     		ldr	r3, [r4, #4]
  96              	.LVL4:
  97              		.loc 1 94 0
  98 001c 8160     		str	r1, [r0, #8]
  99              		.loc 1 95 0
 100 001e B442     		cmp	r4, r6
 101              		.loc 1 92 0
 102 0020 4360     		str	r3, [r0, #4]
 103 0022 0460     		str	r4, [r0, #0]
 104              		.loc 1 93 0
 105 0024 1860     		str	r0, [r3, #0]
 106              		.loc 1 96 0
 107 0026 18BF     		it	ne
 108 0028 A368     		ldrne	r3, [r4, #8]
 109              		.loc 1 93 0
 110 002a 6060     		str	r0, [r4, #4]
 111              		.loc 1 96 0
 112 002c 1CBF     		itt	ne
 113 002e C1EB0301 		rsbne	r1, r1, r3
 114              	.LVL5:
ARM GAS  C:\DOCUME~1\ADMINI~1\LOCALS~1\Temp\cclPa52F.s 			page 3


 115 0032 A160     		strne	r1, [r4, #8]
 116              		.loc 1 97 0
 117 0034 70BC     		pop	{r4, r5, r6}
 118 0036 7047     		bx	lr
 119              	.L10:
 120              		.align	2
 121              	.L9:
 122 0038 00000000 		.word	.LANCHOR0
 123              		.cfi_endproc
 124              	.LFE8:
 125              		.size	chVTSetI, .-chVTSetI
 126              		.section	.text.chVTResetI,"ax",%progbits
 127              		.align	2
 128              		.global	chVTResetI
 129              		.thumb
 130              		.thumb_func
 131              		.type	chVTResetI, %function
 132              	chVTResetI:
 133              	.LFB9:
 134              		.loc 1 107 0
 135              		.cfi_startproc
 136              		@ args = 0, pretend = 0, frame = 0
 137              		@ frame_needed = 0, uses_anonymous_args = 0
 138              		@ link register save eliminated.
 139              	.LVL6:
 140              		.loc 1 115 0
 141 0000 0368     		ldr	r3, [r0, #0]
 142 0002 074A     		ldr	r2, .L13
 143 0004 9342     		cmp	r3, r2
 144              		.loc 1 116 0
 145 0006 1FBF     		itttt	ne
 146 0008 9968     		ldrne	r1, [r3, #8]
 147 000a 8268     		ldrne	r2, [r0, #8]
 148 000c 8A18     		addne	r2, r1, r2
 149 000e 9A60     		strne	r2, [r3, #8]
 150              		.loc 1 117 0
 151 0010 4268     		ldr	r2, [r0, #4]
 152              		.loc 1 119 0
 153 0012 0021     		movs	r1, #0
 154              		.loc 1 117 0
 155 0014 1360     		str	r3, [r2, #0]
 156              		.loc 1 118 0
 157 0016 0368     		ldr	r3, [r0, #0]
 158              		.loc 1 119 0
 159 0018 C160     		str	r1, [r0, #12]
 160              		.loc 1 118 0
 161 001a 5A60     		str	r2, [r3, #4]
 162 001c 7047     		bx	lr
 163              	.L14:
 164 001e 00BF     		.align	2
 165              	.L13:
 166 0020 00000000 		.word	.LANCHOR0
 167              		.cfi_endproc
 168              	.LFE9:
 169              		.size	chVTResetI, .-chVTResetI
 170              		.section	.text.chTimeIsWithin,"ax",%progbits
 171              		.align	2
ARM GAS  C:\DOCUME~1\ADMINI~1\LOCALS~1\Temp\cclPa52F.s 			page 4


 172              		.global	chTimeIsWithin
 173              		.thumb
 174              		.thumb_func
 175              		.type	chTimeIsWithin, %function
 176              	chTimeIsWithin:
 177              	.LFB10:
 178              		.loc 1 135 0
 179              		.cfi_startproc
 180              		@ args = 0, pretend = 0, frame = 0
 181              		@ frame_needed = 0, uses_anonymous_args = 0
 182              		@ link register save eliminated.
 183              	.LVL7:
 184              		.loc 1 137 0
 185 0000 0B4A     		ldr	r2, .L19
 186              		.loc 1 138 0
 187 0002 8142     		cmp	r1, r0
 188              		.loc 1 135 0
 189 0004 0346     		mov	r3, r0
 190              		.loc 1 137 0
 191 0006 D268     		ldr	r2, [r2, #12]
 192              	.LVL8:
 193              		.loc 1 138 0
 194 0008 09D8     		bhi	.L18
 195              		.loc 1 139 0 discriminator 2
 196 000a 8242     		cmp	r2, r0
 197 000c 34BF     		ite	cc
 198 000e 0023     		movcc	r3, #0
 199 0010 0123     		movcs	r3, #1
 200              		.loc 1 138 0 discriminator 2
 201 0012 8A42     		cmp	r2, r1
 202 0014 2CBF     		ite	cs
 203 0016 1846     		movcs	r0, r3
 204 0018 43F00100 		orrcc	r0, r3, #1
 205              	.LVL9:
 206              		.loc 1 140 0 discriminator 2
 207 001c 7047     		bx	lr
 208              	.LVL10:
 209              	.L18:
 210              		.loc 1 138 0 discriminator 1
 211 001e 8A42     		cmp	r2, r1
 212 0020 2CBF     		ite	cs
 213 0022 0020     		movcs	r0, #0
 214              	.LVL11:
 215 0024 0120     		movcc	r0, #1
 216 0026 9A42     		cmp	r2, r3
 217 0028 38BF     		it	cc
 218 002a 0020     		movcc	r0, #0
 219 002c 7047     		bx	lr
 220              	.L20:
 221 002e 00BF     		.align	2
 222              	.L19:
 223 0030 00000000 		.word	.LANCHOR0
 224              		.cfi_endproc
 225              	.LFE10:
 226              		.size	chTimeIsWithin, .-chTimeIsWithin
 227              		.global	vtlist
 228              		.section	.bss.vtlist,"aw",%nobits
ARM GAS  C:\DOCUME~1\ADMINI~1\LOCALS~1\Temp\cclPa52F.s 			page 5


 229              		.align	2
 230              		.set	.LANCHOR0,. + 0
 231              		.type	vtlist, %object
 232              		.size	vtlist, 16
 233              	vtlist:
 234 0000 00000000 		.space	16
 234      00000000 
 234      00000000 
 234      00000000 
 235              		.text
 236              	.Letext0:
 237              		.file 2 "c:/program files/yagarto/lib/gcc/../../arm-none-eabi/sys-include/stdint.h"
 238              		.file 3 "../../os/ports/GCC/ARMCMx/chtypes.h"
 239              		.file 4 "../../os/kernel/include/chvt.h"