ARM GAS  C:\DOCUME~1\ADMINI~1\LOCALS~1\Temp\ccr8QlXg.s 			page 1


   1              		.syntax unified
   2              		.cpu cortex-m3
   3              		.fpu softvfp
   4              		.eabi_attribute 20, 1
   5              		.eabi_attribute 21, 1
   6              		.eabi_attribute 23, 3
   7              		.eabi_attribute 24, 1
   8              		.eabi_attribute 25, 1
   9              		.eabi_attribute 26, 1
  10              		.eabi_attribute 30, 2
  11              		.eabi_attribute 34, 1
  12              		.eabi_attribute 18, 4
  13              		.thumb
  14              		.file	"main.c"
  15              		.text
  16              	.Ltext0:
  17              		.cfi_sections	.debug_frame
  18              		.section	.text.Thread1,"ax",%progbits
  19              		.align	2
  20              		.thumb
  21              		.thumb_func
  22              		.type	Thread1, %function
  23              	Thread1:
  24              	.LFB65:
  25              		.file 1 "main.c"
  26              		.loc 1 163 0
  27              		.cfi_startproc
  28              		@ args = 0, pretend = 0, frame = 0
  29              		@ frame_needed = 0, uses_anonymous_args = 0
  30              	.LVL0:
  31 0000 38B5     		push	{r3, r4, r5, lr}
  32              	.LCFI0:
  33              		.cfi_def_cfa_offset 16
  34              		.cfi_offset 3, -16
  35              		.cfi_offset 4, -12
  36              		.cfi_offset 5, -8
  37              		.cfi_offset 14, -4
  38              		.loc 1 166 0
  39 0002 0E4B     		ldr	r3, .L11
  40 0004 0E4A     		ldr	r2, .L11+4
  41 0006 DB69     		ldr	r3, [r3, #28]
  42 0008 0E4C     		ldr	r4, .L11+8
  43 000a 0F4D     		ldr	r5, .L11+12
  44 000c 9A61     		str	r2, [r3, #24]
  45              	.LVL1:
  46              	.L9:
  47              		.loc 1 169 0
  48 000e 4FF47A70 		mov	r0, #1000
  49 0012 FFF7FEFF 		bl	chThdSleep
  50              	.LVL2:
  51              	.LBB25:
  52              	.LBB26:
  53              	.LBB27:
  54              		.loc 1 126 0
  55 0016 2023     		movs	r3, #32
  56              	.LVL3:
  57              	@ 126 "main.c" 1
ARM GAS  C:\DOCUME~1\ADMINI~1\LOCALS~1\Temp\ccr8QlXg.s 			page 2


  58 0018 83F31188 		msr     BASEPRI, r3
  59              	@ 0 "" 2
  60              	.LVL4:
  61              		.thumb
  62              	.LBE27:
  63              		.loc 1 127 0
  64 001c 0423     		movs	r3, #4
  65              	.LVL5:
  66 001e 0B48     		ldr	r0, .L11+16
  67 0020 0B49     		ldr	r1, .L11+20
  68 0022 0C4A     		ldr	r2, .L11+24
  69 0024 FFF7FEFF 		bl	adcStartConversionI
  70              	.LVL6:
  71              	.LBB28:
  72              		.loc 1 128 0
  73 0028 0023     		movs	r3, #0
  74              	.LVL7:
  75              	@ 128 "main.c" 1
  76 002a 83F31188 		msr     BASEPRI, r3
  77              	@ 0 "" 2
  78              	.LVL8:
  79              		.thumb
  80              	.LBE28:
  81              	.LBE26:
  82              	.LBE25:
  83              		.loc 1 172 0
  84 002e 2378     		ldrb	r3, [r4, #0]	@ zero_extendqisi2
  85              	.LVL9:
  86 0030 002B     		cmp	r3, #0
  87 0032 ECD0     		beq	.L9
  88              		.loc 1 173 0
  89 0034 2B68     		ldr	r3, [r5, #0]
  90 0036 0133     		adds	r3, r3, #1
  91 0038 2B60     		str	r3, [r5, #0]
  92 003a E8E7     		b	.L9
  93              	.L12:
  94              		.align	2
  95              	.L11:
  96 003c 00000000 		.word	rlist
  97 0040 00000000 		.word	.LC0
  98 0044 00000000 		.word	.LANCHOR2
  99 0048 00000000 		.word	.LANCHOR3
 100 004c 00000000 		.word	ADCD1
 101 0050 00000000 		.word	.LANCHOR0
 102 0054 00000000 		.word	.LANCHOR1
 103              		.cfi_endproc
 104              	.LFE65:
 105              		.size	Thread1, .-Thread1
 106              		.section	.text.adccb,"ax",%progbits
 107              		.align	2
 108              		.thumb
 109              		.thumb_func
 110              		.type	adccb, %function
 111              	adccb:
 112              	.LFB64:
 113              		.loc 1 136 0
 114              		.cfi_startproc
ARM GAS  C:\DOCUME~1\ADMINI~1\LOCALS~1\Temp\ccr8QlXg.s 			page 3


 115              		@ args = 0, pretend = 0, frame = 0
 116              		@ frame_needed = 0, uses_anonymous_args = 0
 117              	.LVL10:
 118              		.loc 1 141 0
 119 0000 0378     		ldrb	r3, [r0, #0]	@ zero_extendqisi2
 120              		.loc 1 136 0
 121 0002 70B5     		push	{r4, r5, r6, lr}
 122              	.LCFI1:
 123              		.cfi_def_cfa_offset 16
 124              		.cfi_offset 4, -16
 125              		.cfi_offset 5, -12
 126              		.cfi_offset 6, -8
 127              		.cfi_offset 14, -4
 128              		.loc 1 141 0
 129 0004 042B     		cmp	r3, #4
 130 0006 00D0     		beq	.L15
 131 0008 70BD     		pop	{r4, r5, r6, pc}
 132              	.L15:
 133              	.LBB33:
 134              	.LBB34:
 135              		.loc 1 145 0
 136 000a 134C     		ldr	r4, .L16
 137 000c 2088     		ldrh	r0, [r4, #0]
 138              	.LVL11:
 139              		.loc 1 146 0
 140 000e E388     		ldrh	r3, [r4, #6]
 141              		.loc 1 145 0
 142 0010 A188     		ldrh	r1, [r4, #4]
 143              	.LVL12:
 144              		.loc 1 146 0
 145 0012 6288     		ldrh	r2, [r4, #2]
 146              	.LVL13:
 147              		.loc 1 145 0
 148 0014 2689     		ldrh	r6, [r4, #8]
 149              		.loc 1 146 0
 150 0016 6589     		ldrh	r5, [r4, #10]
 151              		.loc 1 145 0
 152 0018 4118     		adds	r1, r0, r1
 153              		.loc 1 146 0
 154 001a D218     		adds	r2, r2, r3
 155              		.loc 1 145 0
 156 001c A089     		ldrh	r0, [r4, #12]
 157              		.loc 1 146 0
 158 001e E389     		ldrh	r3, [r4, #14]
 159              		.loc 1 145 0
 160 0020 8919     		adds	r1, r1, r6
 161              		.loc 1 146 0
 162 0022 5219     		adds	r2, r2, r5
 163              		.loc 1 145 0
 164 0024 0918     		adds	r1, r1, r0
 165              		.loc 1 146 0
 166 0026 D218     		adds	r2, r2, r3
 167              		.loc 1 145 0
 168 0028 0C4B     		ldr	r3, .L16+4
 169 002a 8910     		asrs	r1, r1, #2
 170 002c 1980     		strh	r1, [r3, #0]	@ movhi
 171              		.loc 1 146 0
ARM GAS  C:\DOCUME~1\ADMINI~1\LOCALS~1\Temp\ccr8QlXg.s 			page 4


 172 002e 0C4B     		ldr	r3, .L16+8
 173 0030 9210     		asrs	r2, r2, #2
 174 0032 1A80     		strh	r2, [r3, #0]	@ movhi
 175              	.LBB35:
 176              		.loc 1 148 0
 177 0034 2023     		movs	r3, #32
 178              	.LVL14:
 179              	@ 148 "main.c" 1
 180 0036 83F31188 		msr     BASEPRI, r3
 181              	@ 0 "" 2
 182              	.LVL15:
 183              		.thumb
 184              	.LBE35:
 185              		.loc 1 151 0
 186 003a 0A4D     		ldr	r5, .L16+12
 187 003c 2846     		mov	r0, r5
 188 003e FFF7FEFF 		bl	spi_lld_select
 189              	.LVL16:
 190              		.loc 1 152 0
 191 0042 0323     		movs	r3, #3
 192 0044 2846     		mov	r0, r5
 193 0046 0821     		movs	r1, #8
 194 0048 2246     		mov	r2, r4
 195 004a 2B70     		strb	r3, [r5, #0]
 196 004c FFF7FEFF 		bl	spi_lld_send
 197              	.LVL17:
 198              	.LBB36:
 199              		.loc 1 154 0
 200 0050 0023     		movs	r3, #0
 201              	.LVL18:
 202              	@ 154 "main.c" 1
 203 0052 83F31188 		msr     BASEPRI, r3
 204              	@ 0 "" 2
 205              	.LVL19:
 206              		.thumb
 207 0056 70BD     		pop	{r4, r5, r6, pc}
 208              	.L17:
 209              		.align	2
 210              	.L16:
 211 0058 00000000 		.word	.LANCHOR1
 212 005c 00000000 		.word	.LANCHOR4
 213 0060 00000000 		.word	.LANCHOR5
 214 0064 00000000 		.word	SPID2
 215              	.LBE36:
 216              	.LBE34:
 217              	.LBE33:
 218              		.cfi_endproc
 219              	.LFE64:
 220              		.size	adccb, .-adccb
 221              		.section	.text.adc_ad8495_conv,"ax",%progbits
 222              		.align	2
 223              		.global	adc_ad8495_conv
 224              		.thumb
 225              		.thumb_func
 226              		.type	adc_ad8495_conv, %function
 227              	adc_ad8495_conv:
 228              	.LFB62:
ARM GAS  C:\DOCUME~1\ADMINI~1\LOCALS~1\Temp\ccr8QlXg.s 			page 5


 229              		.loc 1 49 0
 230              		.cfi_startproc
 231              		@ args = 0, pretend = 0, frame = 0
 232              		@ frame_needed = 0, uses_anonymous_args = 0
 233              		@ link register save eliminated.
 234              	.LVL20:
 235              		.loc 1 54 0
 236 0000 00EB8000 		add	r0, r0, r0, lsl #2
 237              	.LVL21:
 238 0004 40F64303 		movw	r3, #2115
 239 0008 8000     		lsls	r0, r0, #2
 240 000a C8F22143 		movt	r3, 33825
 241 000e 83FB0023 		smull	r2, r3, r3, r0
 242 0012 1818     		adds	r0, r3, r0
 243              		.loc 1 58 0
 244 0014 0011     		asrs	r0, r0, #4
 245 0016 7047     		bx	lr
 246              		.cfi_endproc
 247              	.LFE62:
 248              		.size	adc_ad8495_conv, .-adc_ad8495_conv
 249              		.global	__aeabi_ui2f
 250              		.section	.text.startup.main,"ax",%progbits
 251              		.align	2
 252              		.global	main
 253              		.thumb
 254              		.thumb_func
 255              		.type	main, %function
 256              	main:
 257              	.LFB66:
 258              		.loc 1 181 0
 259              		.cfi_startproc
 260              		@ args = 0, pretend = 0, frame = 24
 261              		@ frame_needed = 0, uses_anonymous_args = 0
 262 0000 2DE9F04F 		push	{r4, r5, r6, r7, r8, r9, sl, fp, lr}
 263              	.LCFI2:
 264              		.cfi_def_cfa_offset 36
 265              		.cfi_offset 4, -36
 266              		.cfi_offset 5, -32
 267              		.cfi_offset 6, -28
 268              		.cfi_offset 7, -24
 269              		.cfi_offset 8, -20
 270              		.cfi_offset 9, -16
 271              		.cfi_offset 10, -12
 272              		.cfi_offset 11, -8
 273              		.cfi_offset 14, -4
 274              		.loc 1 191 0
 275 0004 764C     		ldr	r4, .L53
 276              		.loc 1 181 0
 277 0006 8BB0     		sub	sp, sp, #44
 278              	.LCFI3:
 279              		.cfi_def_cfa_offset 80
 280              		.loc 1 191 0
 281 0008 0025     		movs	r5, #0
 282 000a 2560     		str	r5, [r4, #0]
 283              	.LVL22:
 284              		.loc 1 202 0
 285 000c FFF7FEFF 		bl	halInit
ARM GAS  C:\DOCUME~1\ADMINI~1\LOCALS~1\Temp\ccr8QlXg.s 			page 6


 286              	.LVL23:
 287              		.loc 1 203 0
 288 0010 FFF7FEFF 		bl	chSysInit
 289              	.LVL24:
 290              		.loc 1 209 0
 291 0014 2946     		mov	r1, r5
 292 0016 7348     		ldr	r0, .L53+4
 293 0018 FFF7FEFF 		bl	sdStart
 294              	.LVL25:
 295              		.loc 1 210 0
 296 001c 2846     		mov	r0, r5
 297 001e C4F20200 		movt	r0, 16386
 298 0022 4FF40071 		mov	r1, #512
 299 0026 40F28232 		movw	r2, #898
 300 002a FFF7FEFF 		bl	_pal_lld_setgroupmode
 301              	.LVL26:
 302              		.loc 1 211 0
 303 002e 2846     		mov	r0, r5
 304 0030 40F28232 		movw	r2, #898
 305 0034 C4F20200 		movt	r0, 16386
 306 0038 4FF48061 		mov	r1, #1024
 307 003c FFF7FEFF 		bl	_pal_lld_setgroupmode
 308              	.LVL27:
 309              		.loc 1 218 0
 310 0040 2946     		mov	r1, r5
 311 0042 6948     		ldr	r0, .L53+8
 312 0044 FFF7FEFF 		bl	adcStart
 313              	.LVL28:
 314              		.loc 1 219 0
 315 0048 FFF7FEFF 		bl	adcSTM32EnableTSVREFE
 316              	.LVL29:
 317              		.loc 1 220 0
 318 004c 2846     		mov	r0, r5
 319 004e 2021     		movs	r1, #32
 320 0050 0322     		movs	r2, #3
 321 0052 C4F20200 		movt	r0, 16386
 322              		.loc 1 224 0
 323 0056 DFF8B481 		ldr	r8, .L53+44
 324              		.loc 1 225 0
 325 005a DFF8B491 		ldr	r9, .L53+48
 326              		.loc 1 229 0
 327 005e 49F69A16 		movw	r6, #39322
 328 0062 40F20007 		movw	r7, #:lower16:.LANCHOR7
 329              		.loc 1 220 0
 330 0066 FFF7FEFF 		bl	_pal_lld_setgroupmode
 331              	.LVL30:
 332              		.loc 1 229 0
 333 006a C0F20007 		movt	r7, #:upper16:.LANCHOR7
 334              		.loc 1 228 0
 335 006e 5F48     		ldr	r0, .L53+12
 336              		.loc 1 229 0
 337 0070 C3F69976 		movt	r6, 16281
 338              		.loc 1 224 0
 339 0074 88F80050 		strb	r5, [r8, #0]
 340              		.loc 1 225 0
 341 0078 89F80050 		strb	r5, [r9, #0]
 342              		.loc 1 228 0
ARM GAS  C:\DOCUME~1\ADMINI~1\LOCALS~1\Temp\ccr8QlXg.s 			page 7


 343 007c FFF7FEFF 		bl	initPIDStruct
 344              	.LVL31:
 345              		.loc 1 239 0
 346 0080 0095     		str	r5, [sp, #0]
 347              		.loc 1 229 0
 348 0082 BE60     		str	r6, [r7, #8]	@ float
 349              		.loc 1 230 0
 350 0084 0026     		movs	r6, #0
 351 0086 CCF21646 		movt	r6, 50198
 352 008a FE60     		str	r6, [r7, #12]	@ float
 353              		.loc 1 231 0
 354 008c 4DF20A76 		movw	r6, #55050
 355 0090 CBF62356 		movt	r6, 48419
 356 0094 3E61     		str	r6, [r7, #16]	@ float
 357              		.loc 1 232 0
 358 0096 4FF41056 		mov	r6, #9216
 359 009a CCF67426 		movt	r6, 51828
 360 009e 7E61     		str	r6, [r7, #20]	@ float
 361              		.loc 1 233 0
 362 00a0 4FF4F846 		mov	r6, #31744
 363 00a4 CCF69206 		movt	r6, 51346
 364 00a8 7E62     		str	r6, [r7, #36]	@ float
 365              		.loc 1 234 0
 366 00aa 4FF4F846 		mov	r6, #31744
 367 00ae C4F69206 		movt	r6, 18578
 368              		.loc 1 239 0
 369 00b2 4F4B     		ldr	r3, .L53+16
 370 00b4 4022     		movs	r2, #64
 371 00b6 4FF49871 		mov	r1, #304
 372              		.loc 1 234 0
 373 00ba BE62     		str	r6, [r7, #40]	@ float
 374              		.loc 1 239 0
 375 00bc 4D48     		ldr	r0, .L53+20
 376 00be FFF7FEFF 		bl	chThdCreateStatic
 377              	.LVL32:
 378              		.loc 1 242 0
 379 00c2 4848     		ldr	r0, .L53+4
 380 00c4 4C49     		ldr	r1, .L53+24
 381 00c6 FFF7FEFF 		bl	chprintf
 382              	.LVL33:
 383              		.loc 1 249 0
 384 00ca 4C48     		ldr	r0, .L53+28
 385 00cc 4C49     		ldr	r1, .L53+32
 386 00ce FFF7FEFF 		bl	pwmStart
 387              	.LVL34:
 388              		.loc 1 250 0
 389 00d2 4FF48060 		mov	r0, #1024
 390 00d6 C4F20200 		movt	r0, 16386
 391 00da 4021     		movs	r1, #64
 392 00dc 4FF48172 		mov	r2, #258
 393 00e0 FFF7FEFF 		bl	_pal_lld_setgroupmode
 394              	.LVL35:
 395              		.loc 1 251 0
 396 00e4 4FF48060 		mov	r0, #1024
 397 00e8 C4F20200 		movt	r0, 16386
 398 00ec 8021     		movs	r1, #128
 399 00ee 4FF48172 		mov	r2, #258
ARM GAS  C:\DOCUME~1\ADMINI~1\LOCALS~1\Temp\ccr8QlXg.s 			page 8


 400 00f2 FFF7FEFF 		bl	_pal_lld_setgroupmode
 401              	.LVL36:
 402              		.loc 1 252 0
 403 00f6 40F2000C 		movw	ip, #:lower16:PWMD4
 404 00fa C0F2000C 		movt	ip, #:upper16:PWMD4
 405 00fe BCF80830 		ldrh	r3, [ip, #8]
 406 0102 2946     		mov	r1, r5
 407 0104 03EB4302 		add	r2, r3, r3, lsl #1
 408 0108 D208     		lsrs	r2, r2, #3
 409 010a 3C48     		ldr	r0, .L53+28
 410 010c FFF7FEFF 		bl	pwm_lld_enable_channel
 411              	.LVL37:
 412              		.loc 1 253 0
 413 0110 2A46     		mov	r2, r5
 414 0112 3A48     		ldr	r0, .L53+28
 415 0114 0121     		movs	r1, #1
 416 0116 FFF7FEFF 		bl	pwm_lld_enable_channel
 417              	.LVL38:
 418              	.LBB37:
 419              	.LBB38:
 420              		.loc 1 54 0
 421 011a 40F64306 		movw	r6, #2115
 422 011e 394D     		ldr	r5, .L53+36
 423 0120 DFF8F0B0 		ldr	fp, .L53+52
 424 0124 C8F22146 		movt	r6, 33825
 425              	.L45:
 426              	.LBE38:
 427              	.LBE37:
 428              		.loc 1 265 0
 429 0128 0023     		movs	r3, #0
 430 012a C4F20203 		movt	r3, 16386
 431 012e 1B69     		ldr	r3, [r3, #16]
 432 0130 DB07     		lsls	r3, r3, #31
 433 0132 40F14A81 		bpl	.L21
 434              	.L52:
 435              		.loc 1 266 0
 436 0136 0123     		movs	r3, #1
 437 0138 89F80030 		strb	r3, [r9, #0]
 438              	.L22:
 439              		.loc 1 269 0
 440 013c 40F2000E 		movw	lr, #:lower16:PWMD4
 441 0140 C0F2000E 		movt	lr, #:upper16:PWMD4
 442 0144 BEF80820 		ldrh	r2, [lr, #8]
 443 0148 0021     		movs	r1, #0
 444 014a 9208     		lsrs	r2, r2, #2
 445 014c 2B48     		ldr	r0, .L53+28
 446 014e FFF7FEFF 		bl	pwm_lld_enable_channel
 447              	.LVL39:
 448              		.loc 1 270 0
 449 0152 40F20000 		movw	r0, #:lower16:PWMD4
 450 0156 C0F20000 		movt	r0, #:upper16:PWMD4
 451 015a 0121     		movs	r1, #1
 452 015c 0289     		ldrh	r2, [r0, #8]
 453 015e FFF7FEFF 		bl	pwm_lld_enable_channel
 454              	.LVL40:
 455              		.loc 1 271 0
 456 0162 2B88     		ldrh	r3, [r5, #0]
ARM GAS  C:\DOCUME~1\ADMINI~1\LOCALS~1\Temp\ccr8QlXg.s 			page 9


 457              	.LVL41:
 458              	.LBB40:
 459              	.LBB39:
 460              		.loc 1 54 0
 461 0164 9900     		lsls	r1, r3, #2
 462 0166 CA18     		adds	r2, r1, r3
 463 0168 9200     		lsls	r2, r2, #2
 464 016a 86FB0270 		smull	r7, r0, r6, r2
 465 016e 8218     		adds	r2, r0, r2
 466              	.LBE39:
 467              	.LBE40:
 468              		.loc 1 272 0
 469 0170 B2F50C6F 		cmp	r2, #2240
 470 0174 38BF     		it	cc
 471 0176 2268     		ldrcc	r2, [r4, #0]
 472 0178 02D3     		bcc	.L28
 473 017a 17E0     		b	.L27
 474              	.LVL42:
 475              	.L49:
 476 017c 2B88     		ldrh	r3, [r5, #0]
 477 017e 9900     		lsls	r1, r3, #2
 478              	.LVL43:
 479              	.L28:
 480              	.LBB41:
 481              	.LBB42:
 482              		.loc 1 54 0
 483 0180 CB18     		adds	r3, r1, r3
 484              	.LVL44:
 485 0182 9B00     		lsls	r3, r3, #2
 486 0184 86FB0307 		smull	r0, r7, r6, r3
 487 0188 D917     		asrs	r1, r3, #31
 488 018a FB18     		adds	r3, r7, r3
 489 018c C1EB2317 		rsb	r7, r1, r3, asr #4
 490              	.LVL45:
 491              	.LBE42:
 492              	.LBE41:
 493              		.loc 1 275 0
 494 0190 BB08     		lsrs	r3, r7, #2
 495              	.LVL46:
 496 0192 1D49     		ldr	r1, .L53+40
 497 0194 1348     		ldr	r0, .L53+4
 498 0196 FFF7FEFF 		bl	chprintf
 499              	.LVL47:
 500              		.loc 1 276 0
 501 019a 4FF47A70 		mov	r0, #1000
 502 019e FFF7FEFF 		bl	chThdSleep
 503              	.LVL48:
 504              		.loc 1 277 0
 505 01a2 2268     		ldr	r2, [r4, #0]
 506 01a4 0132     		adds	r2, r2, #1
 507              		.loc 1 272 0
 508 01a6 8B2F     		cmp	r7, #139
 509              		.loc 1 277 0
 510 01a8 2260     		str	r2, [r4, #0]
 511              	.LVL49:
 512              		.loc 1 272 0
 513 01aa E7D9     		bls	.L49
ARM GAS  C:\DOCUME~1\ADMINI~1\LOCALS~1\Temp\ccr8QlXg.s 			page 10


 514              	.LVL50:
 515              	.L27:
 516              		.loc 1 279 0
 517 01ac 40F2000C 		movw	ip, #:lower16:PWMD4
 518 01b0 C0F2000C 		movt	ip, #:upper16:PWMD4
 519 01b4 BCF80820 		ldrh	r2, [ip, #8]
 520 01b8 0121     		movs	r1, #1
 521 01ba 22FA01F2 		lsr	r2, r2, r1
 522 01be 0F48     		ldr	r0, .L53+28
 523 01c0 FFF7FEFF 		bl	pwm_lld_enable_channel
 524              	.LVL51:
 525              		.loc 1 280 0
 526 01c4 2B88     		ldrh	r3, [r5, #0]
 527              	.LVL52:
 528              	.LBB43:
 529              	.LBB44:
 530              		.loc 1 54 0
 531 01c6 9900     		lsls	r1, r3, #2
 532 01c8 CA18     		adds	r2, r1, r3
 533 01ca 9200     		lsls	r2, r2, #2
 534 01cc 86FB02E0 		smull	lr, r0, r6, r2
 535 01d0 8218     		adds	r2, r0, r2
 536              	.LBE44:
 537              	.LBE43:
 538              		.loc 1 281 0
 539 01d2 B2F5206F 		cmp	r2, #2560
 540 01d6 38BF     		it	cc
 541 01d8 2268     		ldrcc	r2, [r4, #0]
 542 01da 1FD3     		bcc	.L29
 543 01dc 34E0     		b	.L26
 544              	.L54:
 545 01de 00BF     		.align	2
 546              	.L53:
 547 01e0 00000000 		.word	.LANCHOR3
 548 01e4 00000000 		.word	SD1
 549 01e8 00000000 		.word	ADCD1
 550 01ec 00000000 		.word	.LANCHOR7
 551 01f0 00000000 		.word	Thread1
 552 01f4 00000000 		.word	.LANCHOR8
 553 01f8 08000000 		.word	.LC1
 554 01fc 00000000 		.word	PWMD4
 555 0200 00000000 		.word	.LANCHOR9
 556 0204 00000000 		.word	.LANCHOR5
 557 0208 B0000000 		.word	.LC2
 558 020c 00000000 		.word	.LANCHOR2
 559 0210 00000000 		.word	.LANCHOR6
 560 0214 00000000 		.word	.LANCHOR10
 561              	.LVL53:
 562              	.L50:
 563 0218 2B88     		ldrh	r3, [r5, #0]
 564 021a 9900     		lsls	r1, r3, #2
 565              	.LVL54:
 566              	.L29:
 567              	.LBB45:
 568              	.LBB46:
 569              		.loc 1 54 0
 570 021c CB18     		adds	r3, r1, r3
ARM GAS  C:\DOCUME~1\ADMINI~1\LOCALS~1\Temp\ccr8QlXg.s 			page 11


 571              	.LVL55:
 572 021e 9B00     		lsls	r3, r3, #2
 573 0220 86FB0317 		smull	r1, r7, r6, r3
 574 0224 D917     		asrs	r1, r3, #31
 575 0226 FB18     		adds	r3, r7, r3
 576 0228 C1EB2317 		rsb	r7, r1, r3, asr #4
 577              	.LVL56:
 578              	.LBE46:
 579              	.LBE45:
 580              		.loc 1 284 0
 581 022c BB08     		lsrs	r3, r7, #2
 582              	.LVL57:
 583 022e 8D49     		ldr	r1, .L55
 584 0230 8D48     		ldr	r0, .L55+4
 585 0232 FFF7FEFF 		bl	chprintf
 586              	.LVL58:
 587              		.loc 1 285 0
 588 0236 4FF47A70 		mov	r0, #1000
 589 023a FFF7FEFF 		bl	chThdSleep
 590              	.LVL59:
 591              		.loc 1 286 0
 592 023e 2268     		ldr	r2, [r4, #0]
 593 0240 0132     		adds	r2, r2, #1
 594              		.loc 1 281 0
 595 0242 9F2F     		cmp	r7, #159
 596              		.loc 1 286 0
 597 0244 2260     		str	r2, [r4, #0]
 598              	.LVL60:
 599              		.loc 1 281 0
 600 0246 E7D9     		bls	.L50
 601              	.LVL61:
 602              	.L26:
 603              		.loc 1 290 0
 604 0248 0021     		movs	r1, #0
 605 024a 0A46     		mov	r2, r1
 606 024c 8748     		ldr	r0, .L55+8
 607 024e FFF7FEFF 		bl	pwm_lld_enable_channel
 608              	.LVL62:
 609              		.loc 1 291 0
 610 0252 0023     		movs	r3, #0
 611              		.loc 1 292 0
 612 0254 0122     		movs	r2, #1
 613              		.loc 1 291 0
 614 0256 89F80030 		strb	r3, [r9, #0]
 615              		.loc 1 292 0
 616 025a 88F80020 		strb	r2, [r8, #0]
 617              		.loc 1 293 0
 618 025e 2360     		str	r3, [r4, #0]
 619              	.L23:
 620              		.loc 1 296 0
 621 0260 4FF47A70 		mov	r0, #1000
 622 0264 FFF7FEFF 		bl	chThdSleep
 623              	.LVL63:
 624              		.loc 1 311 0
 625 0268 98F80070 		ldrb	r7, [r8, #0]	@ zero_extendqisi2
 626              		.loc 1 301 0
 627 026c 2168     		ldr	r1, [r4, #0]
ARM GAS  C:\DOCUME~1\ADMINI~1\LOCALS~1\Temp\ccr8QlXg.s 			page 12


 628              		.loc 1 311 0
 629 026e 012F     		cmp	r7, #1
 630              		.loc 1 300 0
 631 0270 2B88     		ldrh	r3, [r5, #0]
 632              	.LVL64:
 633              		.loc 1 301 0
 634 0272 5BF82100 		ldr	r0, [fp, r1, lsl #2]
 635              	.LVL65:
 636              		.loc 1 311 0
 637 0276 7FF457AF 		bne	.L45
 638              	.LBB47:
 639              	.LBB48:
 640              		.loc 1 54 0
 641 027a 03EB8303 		add	r3, r3, r3, lsl #2
 642              	.LVL66:
 643 027e 9B00     		lsls	r3, r3, #2
 644 0280 86FB032A 		smull	r2, sl, r6, r3
 645 0284 5344     		add	r3, sl, r3
 646 0286 4FEA231A 		asr	sl, r3, #4
 647              	.LBE48:
 648              	.LBE47:
 649              		.loc 1 302 0
 650 028a C0EB0A03 		rsb	r3, r0, sl
 651              		.loc 1 307 0
 652 028e 03F1030E 		add	lr, r3, #3
 653              		.loc 1 314 0
 654 0292 40F2000C 		movw	ip, #:lower16:.LANCHOR11
 655              		.loc 1 307 0
 656 0296 33EA2303 		bics	r3, r3, r3, asr #32
 657 029a 28BF     		it	cs
 658 029c 7346     		movcs	r3, lr
 659              		.loc 1 314 0
 660 029e C0F2000C 		movt	ip, #:upper16:.LANCHOR11
 661 02a2 DCF80020 		ldr	r2, [ip, #0]
 662              		.loc 1 307 0
 663 02a6 0593     		str	r3, [sp, #20]
 664 02a8 DDF814E0 		ldr	lr, [sp, #20]
 665              		.loc 1 306 0
 666 02ac 8308     		lsrs	r3, r0, #2
 667              	.LVL67:
 668              		.loc 1 314 0
 669 02ae 02F57A72 		add	r2, r2, #1000
 670              		.loc 1 317 0
 671 02b2 B329     		cmp	r1, #179
 672              		.loc 1 314 0
 673 02b4 CCF80020 		str	r2, [ip, #0]
 674              		.loc 1 306 0
 675 02b8 0993     		str	r3, [sp, #36]
 676              		.loc 1 305 0
 677 02ba 4FEA9A0C 		lsr	ip, sl, #2
 678              		.loc 1 307 0
 679 02be 4FEAAE03 		asr	r3, lr, #2
 680              	.LVL68:
 681              		.loc 1 317 0
 682 02c2 40F28880 		bls	.L51
 683              	.LBB49:
 684              		.loc 1 334 0
ARM GAS  C:\DOCUME~1\ADMINI~1\LOCALS~1\Temp\ccr8QlXg.s 			page 13


 685 02c6 40F20000 		movw	r0, #:lower16:PWMD4
 686              	.LVL69:
 687 02ca C0F20000 		movt	r0, #:upper16:PWMD4
 688 02ce 3946     		mov	r1, r7
 689              	.LVL70:
 690 02d0 0289     		ldrh	r2, [r0, #8]
 691 02d2 FFF7FEFF 		bl	pwmEnableChannel
 692              	.LVL71:
 693              		.loc 1 335 0
 694 02d6 40F26533 		movw	r3, #869
 695 02da 9A45     		cmp	sl, r3
 696 02dc 98BF     		it	ls
 697 02de 9A46     		movls	sl, r3
 698 02e0 13D8     		bhi	.L35
 699              	.L40:
 700              	.LVL72:
 701              	.LBB50:
 702              	.LBB51:
 703              		.loc 1 54 0
 704 02e2 2F88     		ldrh	r7, [r5, #0]
 705              	.LBE51:
 706              	.LBE50:
 707              		.loc 1 338 0
 708 02e4 6048     		ldr	r0, .L55+4
 709              	.LBB53:
 710              	.LBB52:
 711              		.loc 1 54 0
 712 02e6 07EB8707 		add	r7, r7, r7, lsl #2
 713 02ea BF00     		lsls	r7, r7, #2
 714 02ec 86FB0723 		smull	r2, r3, r6, r7
 715 02f0 DF19     		adds	r7, r3, r7
 716 02f2 3F11     		asrs	r7, r7, #4
 717              	.LVL73:
 718              	.LBE52:
 719              	.LBE53:
 720              		.loc 1 338 0
 721 02f4 BB08     		lsrs	r3, r7, #2
 722              	.LVL74:
 723 02f6 5E49     		ldr	r1, .L55+12
 724 02f8 2268     		ldr	r2, [r4, #0]
 725 02fa FFF7FEFF 		bl	chprintf
 726              	.LVL75:
 727              		.loc 1 339 0
 728 02fe 4FF47A70 		mov	r0, #1000
 729 0302 FFF7FEFF 		bl	chThdSleep
 730              	.LVL76:
 731              		.loc 1 335 0
 732 0306 5745     		cmp	r7, sl
 733 0308 EBD9     		bls	.L40
 734              	.LVL77:
 735              	.L35:
 736              		.loc 1 343 0
 737 030a 5848     		ldr	r0, .L55+8
 738 030c 0121     		movs	r1, #1
 739 030e 0022     		movs	r2, #0
 740 0310 FFF7FEFF 		bl	pwmEnableChannel
 741              	.LVL78:
ARM GAS  C:\DOCUME~1\ADMINI~1\LOCALS~1\Temp\ccr8QlXg.s 			page 14


 742              		.loc 1 344 0
 743 0314 40F20001 		movw	r1, #:lower16:PWMD4
 744 0318 C0F20001 		movt	r1, #:upper16:PWMD4
 745 031c 0A89     		ldrh	r2, [r1, #8]
 746 031e 5348     		ldr	r0, .L55+8
 747 0320 0021     		movs	r1, #0
 748 0322 9208     		lsrs	r2, r2, #2
 749 0324 FFF7FEFF 		bl	pwmEnableChannel
 750              	.LVL79:
 751              	.L34:
 752              	.LBB54:
 753              	.LBB55:
 754              		.loc 1 54 0
 755 0328 2F88     		ldrh	r7, [r5, #0]
 756              	.LBE55:
 757              	.LBE54:
 758              		.loc 1 348 0
 759 032a 4F48     		ldr	r0, .L55+4
 760              	.LBB57:
 761              	.LBB56:
 762              		.loc 1 54 0
 763 032c 07EB8707 		add	r7, r7, r7, lsl #2
 764 0330 BF00     		lsls	r7, r7, #2
 765 0332 86FB07C3 		smull	ip, r3, r6, r7
 766 0336 DF19     		adds	r7, r3, r7
 767 0338 3F11     		asrs	r7, r7, #4
 768              	.LVL80:
 769              	.LBE56:
 770              	.LBE57:
 771              		.loc 1 348 0
 772 033a BB08     		lsrs	r3, r7, #2
 773              	.LVL81:
 774 033c 4D49     		ldr	r1, .L55+16
 775 033e 2268     		ldr	r2, [r4, #0]
 776 0340 FFF7FEFF 		bl	chprintf
 777              	.LVL82:
 778              		.loc 1 349 0
 779 0344 4FF47A70 		mov	r0, #1000
 780 0348 FFF7FEFF 		bl	chThdSleep
 781              	.LVL83:
 782              		.loc 1 345 0
 783 034c B7F5347F 		cmp	r7, #720
 784 0350 EAD8     		bhi	.L34
 785              		.loc 1 351 0
 786 0352 40F20000 		movw	r0, #:lower16:PWMD4
 787 0356 C0F20000 		movt	r0, #:upper16:PWMD4
 788 035a 0021     		movs	r1, #0
 789 035c 0289     		ldrh	r2, [r0, #8]
 790 035e FFF7FEFF 		bl	pwmEnableChannel
 791              	.LVL84:
 792              		.loc 1 352 0
 793 0362 A02F     		cmp	r7, #160
 794 0364 13D9     		bls	.L37
 795              	.LVL85:
 796              	.L39:
 797              	.LBB58:
 798              	.LBB59:
ARM GAS  C:\DOCUME~1\ADMINI~1\LOCALS~1\Temp\ccr8QlXg.s 			page 15


 799              		.loc 1 54 0
 800 0366 2F88     		ldrh	r7, [r5, #0]
 801              	.LVL86:
 802              	.LBE59:
 803              	.LBE58:
 804              		.loc 1 355 0
 805 0368 3F48     		ldr	r0, .L55+4
 806              	.LBB61:
 807              	.LBB60:
 808              		.loc 1 54 0
 809 036a 07EB8707 		add	r7, r7, r7, lsl #2
 810 036e BF00     		lsls	r7, r7, #2
 811 0370 86FB0713 		smull	r1, r3, r6, r7
 812 0374 DF19     		adds	r7, r3, r7
 813 0376 3F11     		asrs	r7, r7, #4
 814              	.LVL87:
 815              	.LBE60:
 816              	.LBE61:
 817              		.loc 1 355 0
 818 0378 BB08     		lsrs	r3, r7, #2
 819              	.LVL88:
 820 037a 3F49     		ldr	r1, .L55+20
 821 037c 2268     		ldr	r2, [r4, #0]
 822 037e FFF7FEFF 		bl	chprintf
 823              	.LVL89:
 824              		.loc 1 356 0
 825 0382 4FF47A70 		mov	r0, #1000
 826 0386 FFF7FEFF 		bl	chThdSleep
 827              	.LVL90:
 828              		.loc 1 352 0
 829 038a A02F     		cmp	r7, #160
 830 038c EBD8     		bhi	.L39
 831              	.LVL91:
 832              	.L37:
 833              		.loc 1 358 0
 834 038e 0021     		movs	r1, #0
 835 0390 0A46     		mov	r2, r1
 836 0392 3648     		ldr	r0, .L55+8
 837 0394 FFF7FEFF 		bl	pwmEnableChannel
 838              	.LVL92:
 839              		.loc 1 359 0
 840 0398 3348     		ldr	r0, .L55+4
 841 039a 3849     		ldr	r1, .L55+24
 842 039c FFF7FEFF 		bl	chprintf
 843              	.LVL93:
 844              		.loc 1 360 0
 845 03a0 0027     		movs	r7, #0
 846              	.LVL94:
 847              		.loc 1 361 0
 848 03a2 40F2000E 		movw	lr, #:lower16:.LANCHOR11
 849 03a6 C0F2000E 		movt	lr, #:upper16:.LANCHOR11
 850              		.loc 1 362 0
 851 03aa 3548     		ldr	r0, .L55+28
 852 03ac 3946     		mov	r1, r7
 853              		.loc 1 360 0
 854 03ae 2760     		str	r7, [r4, #0]
 855              		.loc 1 361 0
ARM GAS  C:\DOCUME~1\ADMINI~1\LOCALS~1\Temp\ccr8QlXg.s 			page 16


 856 03b0 CEF80070 		str	r7, [lr, #0]
 857              		.loc 1 362 0
 858 03b4 FFF7FEFF 		bl	resetPIDStruct
 859              	.LVL95:
 860              	.LBE49:
 861              		.loc 1 265 0
 862 03b8 0023     		movs	r3, #0
 863              	.LBB62:
 864              		.loc 1 363 0
 865 03ba 88F80070 		strb	r7, [r8, #0]
 866              	.LBE62:
 867              		.loc 1 265 0
 868 03be C4F20203 		movt	r3, 16386
 869 03c2 1B69     		ldr	r3, [r3, #16]
 870 03c4 DB07     		lsls	r3, r3, #31
 871 03c6 3FF5B6AE 		bmi	.L52
 872              	.LVL96:
 873              	.L21:
 874              		.loc 1 268 0
 875 03ca 99F80030 		ldrb	r3, [r9, #0]	@ zero_extendqisi2
 876 03ce 012B     		cmp	r3, #1
 877 03d0 7FF446AF 		bne	.L23
 878 03d4 B2E6     		b	.L22
 879              	.LVL97:
 880              	.L51:
 881              		.loc 1 319 0
 882 03d6 0693     		str	r3, [sp, #24]
 883 03d8 CDF81CC0 		str	ip, [sp, #28]
 884 03dc 0892     		str	r2, [sp, #32]
 885 03de FFF7FEFF 		bl	__aeabi_ui2f
 886              	.LVL98:
 887 03e2 40F20001 		movw	r1, #:lower16:.LANCHOR7
 888 03e6 C0F20001 		movt	r1, #:upper16:.LANCHOR7
 889 03ea 0860     		str	r0, [r1, #0]	@ float
 890              		.loc 1 322 0
 891 03ec 5046     		mov	r0, sl
 892 03ee FFF7FEFF 		bl	__aeabi_ui2f
 893              	.LVL99:
 894 03f2 089A     		ldr	r2, [sp, #32]
 895 03f4 0146     		mov	r1, r0
 896 03f6 2248     		ldr	r0, .L55+28
 897 03f8 FFF7FEFF 		bl	PIDUpdatePid
 898              	.LVL100:
 899 03fc 8646     		mov	lr, r0
 900              		.loc 1 325 0
 901 03fe 40F20000 		movw	r0, #:lower16:.LANCHOR3
 902 0402 C0F20000 		movt	r0, #:upper16:.LANCHOR3
 903 0406 0268     		ldr	r2, [r0, #0]
 904 0408 069B     		ldr	r3, [sp, #24]
 905 040a DDF81CC0 		ldr	ip, [sp, #28]
 906 040e 40F20000 		movw	r0, #:lower16:.LANCHOR13
 907 0412 C0F20000 		movt	r0, #:upper16:.LANCHOR13
 908 0416 0188     		ldrh	r1, [r0, #0]
 909 0418 0998     		ldr	r0, [sp, #36]
 910 041a 0193     		str	r3, [sp, #4]
 911 041c 6346     		mov	r3, ip
 912              		.loc 1 322 0
ARM GAS  C:\DOCUME~1\ADMINI~1\LOCALS~1\Temp\ccr8QlXg.s 			page 17


 913 041e 40F2000C 		movw	ip, #:lower16:.LANCHOR12
 914 0422 C0F2000C 		movt	ip, #:upper16:.LANCHOR12
 915              		.loc 1 325 0
 916 0426 0090     		str	r0, [sp, #0]
 917 0428 0291     		str	r1, [sp, #8]
 918 042a CDF80CE0 		str	lr, [sp, #12]
 919 042e 0E48     		ldr	r0, .L55+4
 920              		.loc 1 322 0
 921 0430 ACF800E0 		strh	lr, [ip, #0]	@ movhi
 922              		.loc 1 325 0
 923 0434 1349     		ldr	r1, .L55+32
 924 0436 FFF7FEFF 		bl	chprintf
 925              	.LVL101:
 926              		.loc 1 329 0
 927 043a 40F2000E 		movw	lr, #:lower16:.LANCHOR12
 928 043e 40F20000 		movw	r0, #:lower16:PWMD4
 929 0442 C0F2000E 		movt	lr, #:upper16:.LANCHOR12
 930 0446 C0F20000 		movt	r0, #:upper16:PWMD4
 931 044a BEF80030 		ldrh	r3, [lr, #0]
 932 044e 0289     		ldrh	r2, [r0, #8]
 933 0450 3946     		mov	r1, r7
 934 0452 02FB03F2 		mul	r2, r2, r3
 935 0456 0548     		ldr	r0, .L55+8
 936 0458 C2F3CF22 		ubfx	r2, r2, #11, #16
 937 045c FFF7FEFF 		bl	pwm_lld_enable_channel
 938              	.LVL102:
 939 0460 62E6     		b	.L45
 940              	.L56:
 941 0462 00BF     		.align	2
 942              	.L55:
 943 0464 D0000000 		.word	.LC3
 944 0468 00000000 		.word	SD1
 945 046c 00000000 		.word	PWMD4
 946 0470 30010000 		.word	.LC5
 947 0474 4C010000 		.word	.LC6
 948 0478 78010000 		.word	.LC8
 949 047c 68010000 		.word	.LC7
 950 0480 00000000 		.word	.LANCHOR7
 951 0484 F0000000 		.word	.LC4
 952              		.cfi_endproc
 953              	.LFE66:
 954              		.size	main, .-main
 955              		.global	heatPID
 956              		.global	clk_ticks
 957              		.global	seconds_counter
 958              		.global	heat_duty
 959              		.global	fan_duty
 960              		.global	preheat
 961              		.global	running
 962              		.global	avg_ch2
 963              		.global	avg_ch1
 964              		.global	desired_temps_x4
 965              		.section	.bss.waThread1,"aw",%nobits
 966              		.align	3
 967              		.set	.LANCHOR8,. + 0
 968              		.type	waThread1, %object
 969              		.size	waThread1, 304
ARM GAS  C:\DOCUME~1\ADMINI~1\LOCALS~1\Temp\ccr8QlXg.s 			page 18


 970              	waThread1:
 971 0000 00000000 		.space	304
 971      00000000 
 971      00000000 
 971      00000000 
 971      00000000 
 972              		.section	.rodata.desired_temps_x4,"a",%progbits
 973              		.align	2
 974              		.set	.LANCHOR10,. + 0
 975              		.type	desired_temps_x4, %object
 976              		.size	desired_temps_x4, 816
 977              	desired_temps_x4:
 978 0000 A0000000 		.word	160
 979 0004 A4000000 		.word	164
 980 0008 A8000000 		.word	168
 981 000c AC000000 		.word	172
 982 0010 B0000000 		.word	176
 983 0014 B4000000 		.word	180
 984 0018 B8000000 		.word	184
 985 001c BC000000 		.word	188
 986 0020 C0000000 		.word	192
 987 0024 C4000000 		.word	196
 988 0028 C8000000 		.word	200
 989 002c CC000000 		.word	204
 990 0030 D0000000 		.word	208
 991 0034 D4000000 		.word	212
 992 0038 D8000000 		.word	216
 993 003c DC000000 		.word	220
 994 0040 E0000000 		.word	224
 995 0044 E4000000 		.word	228
 996 0048 E8000000 		.word	232
 997 004c EC000000 		.word	236
 998 0050 F0000000 		.word	240
 999 0054 F4000000 		.word	244
 1000 0058 F8000000 		.word	248
 1001 005c FC000000 		.word	252
 1002 0060 00010000 		.word	256
 1003 0064 04010000 		.word	260
 1004 0068 08010000 		.word	264
 1005 006c 0C010000 		.word	268
 1006 0070 10010000 		.word	272
 1007 0074 14010000 		.word	276
 1008 0078 18010000 		.word	280
 1009 007c 1C010000 		.word	284
 1010 0080 20010000 		.word	288
 1011 0084 24010000 		.word	292
 1012 0088 28010000 		.word	296
 1013 008c 2C010000 		.word	300
 1014 0090 30010000 		.word	304
 1015 0094 34010000 		.word	308
 1016 0098 38010000 		.word	312
 1017 009c 3C010000 		.word	316
 1018 00a0 40010000 		.word	320
 1019 00a4 44010000 		.word	324
 1020 00a8 48010000 		.word	328
 1021 00ac 4C010000 		.word	332
 1022 00b0 50010000 		.word	336
ARM GAS  C:\DOCUME~1\ADMINI~1\LOCALS~1\Temp\ccr8QlXg.s 			page 19


 1023 00b4 54010000 		.word	340
 1024 00b8 58010000 		.word	344
 1025 00bc 5C010000 		.word	348
 1026 00c0 60010000 		.word	352
 1027 00c4 64010000 		.word	356
 1028 00c8 68010000 		.word	360
 1029 00cc 6D010000 		.word	365
 1030 00d0 72010000 		.word	370
 1031 00d4 77010000 		.word	375
 1032 00d8 7C010000 		.word	380
 1033 00dc 81010000 		.word	385
 1034 00e0 86010000 		.word	390
 1035 00e4 8B010000 		.word	395
 1036 00e8 90010000 		.word	400
 1037 00ec 95010000 		.word	405
 1038 00f0 9A010000 		.word	410
 1039 00f4 9F010000 		.word	415
 1040 00f8 A4010000 		.word	420
 1041 00fc A9010000 		.word	425
 1042 0100 AE010000 		.word	430
 1043 0104 B3010000 		.word	435
 1044 0108 B8010000 		.word	440
 1045 010c BD010000 		.word	445
 1046 0110 C2010000 		.word	450
 1047 0114 C7010000 		.word	455
 1048 0118 CC010000 		.word	460
 1049 011c D1010000 		.word	465
 1050 0120 D6010000 		.word	470
 1051 0124 DB010000 		.word	475
 1052 0128 E0010000 		.word	480
 1053 012c E5010000 		.word	485
 1054 0130 EA010000 		.word	490
 1055 0134 EF010000 		.word	495
 1056 0138 F4010000 		.word	500
 1057 013c F9010000 		.word	505
 1058 0140 FE010000 		.word	510
 1059 0144 03020000 		.word	515
 1060 0148 08020000 		.word	520
 1061 014c 0C020000 		.word	524
 1062 0150 10020000 		.word	528
 1063 0154 14020000 		.word	532
 1064 0158 18020000 		.word	536
 1065 015c 1C020000 		.word	540
 1066 0160 20020000 		.word	544
 1067 0164 24020000 		.word	548
 1068 0168 28020000 		.word	552
 1069 016c 2C020000 		.word	556
 1070 0170 30020000 		.word	560
 1071 0174 34020000 		.word	564
 1072 0178 38020000 		.word	568
 1073 017c 3C020000 		.word	572
 1074 0180 40020000 		.word	576
 1075 0184 44020000 		.word	580
 1076 0188 48020000 		.word	584
 1077 018c 4C020000 		.word	588
 1078 0190 50020000 		.word	592
 1079 0194 54020000 		.word	596
ARM GAS  C:\DOCUME~1\ADMINI~1\LOCALS~1\Temp\ccr8QlXg.s 			page 20


 1080 0198 58020000 		.word	600
 1081 019c 5C020000 		.word	604
 1082 01a0 60020000 		.word	608
 1083 01a4 64020000 		.word	612
 1084 01a8 68020000 		.word	616
 1085 01ac 6C020000 		.word	620
 1086 01b0 70020000 		.word	624
 1087 01b4 74020000 		.word	628
 1088 01b8 78020000 		.word	632
 1089 01bc 7C020000 		.word	636
 1090 01c0 80020000 		.word	640
 1091 01c4 84020000 		.word	644
 1092 01c8 86020000 		.word	646
 1093 01cc 88020000 		.word	648
 1094 01d0 8A020000 		.word	650
 1095 01d4 8C020000 		.word	652
 1096 01d8 8E020000 		.word	654
 1097 01dc 90020000 		.word	656
 1098 01e0 92020000 		.word	658
 1099 01e4 93020000 		.word	659
 1100 01e8 94020000 		.word	660
 1101 01ec 95020000 		.word	661
 1102 01f0 96020000 		.word	662
 1103 01f4 97020000 		.word	663
 1104 01f8 98020000 		.word	664
 1105 01fc 99020000 		.word	665
 1106 0200 9A020000 		.word	666
 1107 0204 9B020000 		.word	667
 1108 0208 9C020000 		.word	668
 1109 020c 9D020000 		.word	669
 1110 0210 9E020000 		.word	670
 1111 0214 9F020000 		.word	671
 1112 0218 A0020000 		.word	672
 1113 021c A1020000 		.word	673
 1114 0220 A2020000 		.word	674
 1115 0224 A3020000 		.word	675
 1116 0228 A4020000 		.word	676
 1117 022c A5020000 		.word	677
 1118 0230 A6020000 		.word	678
 1119 0234 A7020000 		.word	679
 1120 0238 A8020000 		.word	680
 1121 023c A9020000 		.word	681
 1122 0240 AA020000 		.word	682
 1123 0244 AB020000 		.word	683
 1124 0248 AC020000 		.word	684
 1125 024c AD020000 		.word	685
 1126 0250 AE020000 		.word	686
 1127 0254 AF020000 		.word	687
 1128 0258 B0020000 		.word	688
 1129 025c B1020000 		.word	689
 1130 0260 B2020000 		.word	690
 1131 0264 B3020000 		.word	691
 1132 0268 B4020000 		.word	692
 1133 026c B5020000 		.word	693
 1134 0270 B7020000 		.word	695
 1135 0274 BA020000 		.word	698
 1136 0278 BD020000 		.word	701
ARM GAS  C:\DOCUME~1\ADMINI~1\LOCALS~1\Temp\ccr8QlXg.s 			page 21


 1137 027c C1020000 		.word	705
 1138 0280 C6020000 		.word	710
 1139 0284 CC020000 		.word	716
 1140 0288 D2020000 		.word	722
 1141 028c DA020000 		.word	730
 1142 0290 74030000 		.word	884
 1143 0294 74030000 		.word	884
 1144 0298 74030000 		.word	884
 1145 029c 74030000 		.word	884
 1146 02a0 74030000 		.word	884
 1147 02a4 74030000 		.word	884
 1148 02a8 74030000 		.word	884
 1149 02ac 74030000 		.word	884
 1150 02b0 74030000 		.word	884
 1151 02b4 74030000 		.word	884
 1152 02b8 74030000 		.word	884
 1153 02bc 74030000 		.word	884
 1154 02c0 74030000 		.word	884
 1155 02c4 74030000 		.word	884
 1156 02c8 74030000 		.word	884
 1157 02cc 74030000 		.word	884
 1158 02d0 74030000 		.word	884
 1159 02d4 74030000 		.word	884
 1160 02d8 74030000 		.word	884
 1161 02dc 74030000 		.word	884
 1162 02e0 74030000 		.word	884
 1163 02e4 74030000 		.word	884
 1164 02e8 74030000 		.word	884
 1165 02ec 74030000 		.word	884
 1166 02f0 74030000 		.word	884
 1167 02f4 74030000 		.word	884
 1168 02f8 74030000 		.word	884
 1169 02fc 74030000 		.word	884
 1170 0300 74030000 		.word	884
 1171 0304 74030000 		.word	884
 1172 0308 74030000 		.word	884
 1173 030c 74030000 		.word	884
 1174 0310 74030000 		.word	884
 1175 0314 74030000 		.word	884
 1176 0318 74030000 		.word	884
 1177 031c 74030000 		.word	884
 1178 0320 74030000 		.word	884
 1179 0324 74030000 		.word	884
 1180 0328 74030000 		.word	884
 1181 032c 78000000 		.word	120
 1182              		.section	.bss.seconds_counter,"aw",%nobits
 1183              		.align	2
 1184              		.set	.LANCHOR3,. + 0
 1185              		.type	seconds_counter, %object
 1186              		.size	seconds_counter, 4
 1187              	seconds_counter:
 1188 0000 00000000 		.space	4
 1189              		.section	.data.pwmcfg,"aw",%progbits
 1190              		.align	2
 1191              		.set	.LANCHOR9,. + 0
 1192              		.type	pwmcfg, %object
 1193              		.size	pwmcfg, 48
ARM GAS  C:\DOCUME~1\ADMINI~1\LOCALS~1\Temp\ccr8QlXg.s 			page 22


 1194              	pwmcfg:
 1195 0000 10270000 		.word	10000
 1196 0004 C409     		.short	2500
 1197 0006 0000     		.space	2
 1198 0008 00000000 		.word	0
 1199 000c 01000000 		.word	1
 1200 0010 00000000 		.word	0
 1201 0014 01000000 		.word	1
 1202 0018 00000000 		.word	0
 1203 001c 00000000 		.word	0
 1204 0020 00000000 		.word	0
 1205 0024 00000000 		.word	0
 1206 0028 00000000 		.word	0
 1207 002c 0000     		.short	0
 1208 002e 0000     		.space	2
 1209              		.section	.bss.running,"aw",%nobits
 1210              		.set	.LANCHOR2,. + 0
 1211              		.type	running, %object
 1212              		.size	running, 1
 1213              	running:
 1214 0000 00       		.space	1
 1215              		.section	.bss.heat_duty,"aw",%nobits
 1216              		.align	1
 1217              		.set	.LANCHOR12,. + 0
 1218              		.type	heat_duty, %object
 1219              		.size	heat_duty, 2
 1220              	heat_duty:
 1221 0000 0000     		.space	2
 1222              		.section	.bss.avg_ch1,"aw",%nobits
 1223              		.align	1
 1224              		.set	.LANCHOR4,. + 0
 1225              		.type	avg_ch1, %object
 1226              		.size	avg_ch1, 2
 1227              	avg_ch1:
 1228 0000 0000     		.space	2
 1229              		.section	.rodata.str1.4,"aMS",%progbits,1
 1230              		.align	2
 1231              	.LC0:
 1232 0000 636F756E 		.ascii	"counter\000"
 1232      74657200 
 1233              	.LC1:
 1234 0008 0D0A4865 		.ascii	"\015\012Hello.  This is a Chibios based temperature"
 1234      6C6C6F2E 
 1234      20205468 
 1234      69732069 
 1234      73206120 
 1235 0035 20636F6E 		.ascii	" controller.\015\012Temp input PA5 0.05volt/Deg C.\015"
 1235      74726F6C 
 1235      6C65722E 
 1235      0D0A5465 
 1235      6D702069 
 1236 0062 0A504236 		.ascii	"\012PB6 heater control PWM 4hz carrier\015\012PB7 f"
 1236      20686561 
 1236      74657220 
 1236      636F6E74 
 1236      726F6C20 
 1237 008c 616E2063 		.ascii	"an control PWM 4 hz carrier.\015\012\015\012\000"
ARM GAS  C:\DOCUME~1\ADMINI~1\LOCALS~1\Temp\ccr8QlXg.s 			page 23


 1237      6F6E7472 
 1237      6F6C2050 
 1237      574D2034 
 1237      20687A20 
 1238 00ad 000000   		.space	3
 1239              	.LC2:
 1240 00b0 25642050 		.ascii	"%d Preheat 100% Temp: %d deg\015\012\000"
 1240      72656865 
 1240      61742031 
 1240      30302520 
 1240      54656D70 
 1241 00cf 00       		.space	1
 1242              	.LC3:
 1243 00d0 25643A20 		.ascii	"%d: Preheat 50%  Temp: %d deg\015\012\000"
 1243      50726568 
 1243      65617420 
 1243      35302520 
 1243      2054656D 
 1244              	.LC4:
 1245 00f0 25642054 		.ascii	"%d Temp: %d deg: Target: %d deg Error: %d deg Fan: "
 1245      656D703A 
 1245      20256420 
 1245      6465673A 
 1245      20546172 
 1246 0123 25752048 		.ascii	"%u Heat %u\015\012\000"
 1246      65617420 
 1246      25750D0A 
 1246      00
 1247              	.LC5:
 1248 0130 25643A20 		.ascii	"%d: BROIL Temp: %d deg\015\012\000"
 1248      42524F49 
 1248      4C205465 
 1248      6D703A20 
 1248      25642064 
 1249 0149 000000   		.space	3
 1250              	.LC6:
 1251 014c 25643A20 		.ascii	"%d: Fan 25% Temp: %d deg\015\012\000"
 1251      46616E20 
 1251      32352520 
 1251      54656D70 
 1251      3A202564 
 1252 0167 00       		.space	1
 1253              	.LC7:
 1254 0168 52756E20 		.ascii	"Run Finished!\015\012\000"
 1254      46696E69 
 1254      73686564 
 1254      210D0A00 
 1255              	.LC8:
 1256 0178 25643A20 		.ascii	"%d: Fan 100% Temp: %d deg\015\012\000"
 1256      46616E20 
 1256      31303025 
 1256      2054656D 
 1256      703A2025 
 1257              		.section	.bss.clk_ticks,"aw",%nobits
 1258              		.align	2
 1259              		.set	.LANCHOR11,. + 0
 1260              		.type	clk_ticks, %object
ARM GAS  C:\DOCUME~1\ADMINI~1\LOCALS~1\Temp\ccr8QlXg.s 			page 24


 1261              		.size	clk_ticks, 4
 1262              	clk_ticks:
 1263 0000 00000000 		.space	4
 1264              		.section	.rodata.adcgrpcfg,"a",%progbits
 1265              		.align	2
 1266              		.set	.LANCHOR0,. + 0
 1267              		.type	adcgrpcfg, %object
 1268              		.size	adcgrpcfg, 56
 1269              	adcgrpcfg:
 1270 0000 00000000 		.word	0
 1271 0004 0200     		.short	2
 1272 0006 0000     		.space	2
 1273 0008 00000000 		.word	adccb
 1274 000c 00000000 		.word	0
 1275 0010 00000000 		.word	0
 1276 0014 00000040 		.word	1073741824
 1277 0018 00000000 		.word	0
 1278 001c 00001A00 		.word	1703936
 1279 0020 00000000 		.word	0
 1280 0024 00001000 		.word	1048576
 1281 0028 00000000 		.word	0
 1282 002c 00000000 		.word	0
 1283 0030 00000000 		.word	0
 1284 0034 B0000000 		.word	176
 1285              		.section	.bss.avg_ch2,"aw",%nobits
 1286              		.align	1
 1287              		.set	.LANCHOR5,. + 0
 1288              		.type	avg_ch2, %object
 1289              		.size	avg_ch2, 2
 1290              	avg_ch2:
 1291 0000 0000     		.space	2
 1292              		.section	.bss.samples,"aw",%nobits
 1293              		.align	2
 1294              		.set	.LANCHOR1,. + 0
 1295              		.type	samples, %object
 1296              		.size	samples, 16
 1297              	samples:
 1298 0000 00000000 		.space	16
 1298      00000000 
 1298      00000000 
 1298      00000000 
 1299              		.section	.bss.heatPID,"aw",%nobits
 1300              		.align	2
 1301              		.set	.LANCHOR7,. + 0
 1302              		.type	heatPID, %object
 1303              		.size	heatPID, 48
 1304              	heatPID:
 1305 0000 00000000 		.space	48
 1305      00000000 
 1305      00000000 
 1305      00000000 
 1305      00000000 
 1306              		.section	.bss.preheat,"aw",%nobits
 1307              		.set	.LANCHOR6,. + 0
 1308              		.type	preheat, %object
 1309              		.size	preheat, 1
 1310              	preheat:
ARM GAS  C:\DOCUME~1\ADMINI~1\LOCALS~1\Temp\ccr8QlXg.s 			page 25


 1311 0000 00       		.space	1
 1312              		.section	.bss.fan_duty,"aw",%nobits
 1313              		.align	1
 1314              		.set	.LANCHOR13,. + 0
 1315              		.type	fan_duty, %object
 1316              		.size	fan_duty, 2
 1317              	fan_duty:
 1318 0000 0000     		.space	2
 1319              		.text
 1320              	.Letext0:
 1321              		.file 2 "c:\\program files\\yagarto\\bin\\../lib/gcc/arm-none-eabi/4.7.1/include/stddef.h"
 1322              		.file 3 "c:/program files/yagarto/lib/gcc/../../arm-none-eabi/sys-include/stdint.h"
 1323              		.file 4 "../../os/ports/GCC/ARMCMx/chtypes.h"
 1324              		.file 5 "../../os/kernel/include/chlists.h"
 1325              		.file 6 "../../os/kernel/include/chthreads.h"
 1326              		.file 7 "../../os/ports/GCC/ARMCMx/chcore_v7m.h"
 1327              		.file 8 "../../os/kernel/include/chschd.h"
 1328              		.file 9 "../../os/kernel/include/chmtx.h"
 1329              		.file 10 "../../os/kernel/include/chevents.h"
 1330              		.file 11 "../../os/kernel/include/chqueues.h"
 1331              		.file 12 "../../os/kernel/include/chioch.h"
 1332              		.file 13 "../../os/hal/platforms/STM32L1xx/stm32l1xx.h"
 1333              		.file 14 "../../os/hal/platforms/STM32/stm32.h"
 1334              		.file 15 "../../os/hal/platforms/STM32L1xx/stm32_dma.h"
 1335              		.file 16 "../../os/hal/platforms/STM32/GPIOv2/pal_lld.h"
 1336              		.file 17 "../../os/hal/include/adc.h"
 1337              		.file 18 "../../os/hal/platforms/STM32L1xx/adc_lld.h"
 1338              		.file 19 "../../os/hal/include/pwm.h"
 1339              		.file 20 "../../os/hal/platforms/STM32/pwm_lld.h"
 1340              		.file 21 "../../os/hal/include/serial.h"
 1341              		.file 22 "../../os/hal/platforms/STM32/serial_lld.h"
 1342              		.file 23 "../../os/hal/include/spi.h"
 1343              		.file 24 "../../os/hal/platforms/STM32/spi_lld.h"
 1344              		.file 25 "pid.h"
 1345              		.file 26 "../../os/ports/common/ARMCMx/CMSIS/include/core_cm3.h"
 1346              		.file 27 "desired_temps.h"
 1347              		.file 28 "../../os/various/chprintf.h"
 1348              		.file 29 "../../os/hal/include/hal.h"
 1349              		.file 30 "../../os/kernel/include/chsys.h"