ARM GAS  C:\DOCUME~1\ADMINI~1\LOCALS~1\Temp\cca3dxaC.s 			page 1


   1              		.syntax unified
   2              		.cpu cortex-m3
   3              		.fpu softvfp
   4              		.eabi_attribute 20, 1
   5              		.eabi_attribute 21, 1
   6              		.eabi_attribute 23, 3
   7              		.eabi_attribute 24, 1
   8              		.eabi_attribute 25, 1
   9              		.eabi_attribute 26, 1
  10              		.eabi_attribute 30, 2
  11              		.eabi_attribute 34, 1
  12              		.eabi_attribute 18, 4
  13              		.thumb
  14              		.file	"pal_lld.c"
  15              		.text
  16              	.Ltext0:
  17              		.cfi_sections	.debug_frame
  18              		.section	.text._pal_lld_init,"ax",%progbits
  19              		.align	2
  20              		.global	_pal_lld_init
  21              		.thumb
  22              		.thumb_func
  23              		.type	_pal_lld_init, %function
  24              	_pal_lld_init:
  25              	.LFB63:
  26              		.file 1 "../../os/hal/platforms/STM32/GPIOv2/pal_lld.c"
  27              		.loc 1 102 0
  28              		.cfi_startproc
  29              		@ args = 0, pretend = 0, frame = 0
  30              		@ frame_needed = 0, uses_anonymous_args = 0
  31              		@ link register save eliminated.
  32              	.LVL0:
  33              		.loc 1 108 0
  34 0000 4FF46052 		mov	r2, #14336
  35 0004 C4F20202 		movt	r2, 16386
  36 0008 D369     		ldr	r3, [r2, #28]
  37              		.loc 1 102 0
  38 000a 70B4     		push	{r4, r5, r6}
  39              	.LCFI0:
  40              		.cfi_def_cfa_offset 12
  41              		.cfi_offset 4, -12
  42              		.cfi_offset 5, -8
  43              		.cfi_offset 6, -4
  44              		.loc 1 108 0
  45 000c 43F03F03 		orr	r3, r3, #63
  46 0010 D361     		str	r3, [r2, #28]
  47 0012 916A     		ldr	r1, [r2, #40]
  48              	.LBB14:
  49              	.LBB15:
  50              		.loc 1 77 0
  51 0014 0023     		movs	r3, #0
  52              	.LBE15:
  53              	.LBE14:
  54              		.loc 1 108 0
  55 0016 41F03F01 		orr	r1, r1, #63
  56 001a 9162     		str	r1, [r2, #40]
  57              	.LVL1:
ARM GAS  C:\DOCUME~1\ADMINI~1\LOCALS~1\Temp\cca3dxaC.s 			page 2


  58              	.LBB23:
  59              	.LBB16:
  60              		.loc 1 77 0
  61 001c 0268     		ldr	r2, [r0, #0]
  62 001e C4F20203 		movt	r3, 16386
  63 0022 1A60     		str	r2, [r3, #0]
  64              		.loc 1 78 0
  65 0024 4268     		ldr	r2, [r0, #4]
  66              	.LBE16:
  67              	.LBE23:
  68              	.LBB24:
  69              	.LBB25:
  70              		.loc 1 77 0
  71 0026 4FF48065 		mov	r5, #1024
  72              	.LBE25:
  73              	.LBE24:
  74              	.LBB32:
  75              	.LBB17:
  76              		.loc 1 78 0
  77 002a 5A60     		str	r2, [r3, #4]
  78              		.loc 1 79 0
  79 002c 8268     		ldr	r2, [r0, #8]
  80              	.LBE17:
  81              	.LBE32:
  82              	.LBB33:
  83              	.LBB26:
  84              		.loc 1 77 0
  85 002e C4F20205 		movt	r5, 16386
  86              	.LBE26:
  87              	.LBE33:
  88              	.LBB34:
  89              	.LBB18:
  90              		.loc 1 79 0
  91 0032 9A60     		str	r2, [r3, #8]
  92              		.loc 1 80 0
  93 0034 C268     		ldr	r2, [r0, #12]
  94              	.LBE18:
  95              	.LBE34:
  96              	.LBB35:
  97              	.LBB36:
  98              		.loc 1 77 0
  99 0036 4FF40064 		mov	r4, #2048
 100              	.LBE36:
 101              	.LBE35:
 102              	.LBB39:
 103              	.LBB19:
 104              		.loc 1 80 0
 105 003a DA60     		str	r2, [r3, #12]
 106              		.loc 1 81 0
 107 003c 0269     		ldr	r2, [r0, #16]
 108              	.LBE19:
 109              	.LBE39:
 110              	.LBB40:
 111              	.LBB37:
 112              		.loc 1 77 0
 113 003e C4F20204 		movt	r4, 16386
 114              	.LBE37:
ARM GAS  C:\DOCUME~1\ADMINI~1\LOCALS~1\Temp\cca3dxaC.s 			page 3


 115              	.LBE40:
 116              	.LBB41:
 117              	.LBB20:
 118              		.loc 1 81 0
 119 0042 5A61     		str	r2, [r3, #20]
 120              		.loc 1 82 0
 121 0044 4269     		ldr	r2, [r0, #20]
 122              	.LBE20:
 123              	.LBE41:
 124              	.LBB42:
 125              	.LBB43:
 126              		.loc 1 77 0
 127 0046 4FF44061 		mov	r1, #3072
 128              	.LBE43:
 129              	.LBE42:
 130              	.LBB46:
 131              	.LBB21:
 132              		.loc 1 82 0
 133 004a 1A62     		str	r2, [r3, #32]
 134              		.loc 1 83 0
 135 004c 8269     		ldr	r2, [r0, #24]
 136              	.LBE21:
 137              	.LBE46:
 138              	.LBB47:
 139              	.LBB44:
 140              		.loc 1 77 0
 141 004e C4F20201 		movt	r1, 16386
 142              	.LBE44:
 143              	.LBE47:
 144              	.LBB48:
 145              	.LBB22:
 146              		.loc 1 83 0
 147 0052 5A62     		str	r2, [r3, #36]
 148              	.LVL2:
 149              	.LBE22:
 150              	.LBE48:
 151              	.LBB49:
 152              	.LBB27:
 153              		.loc 1 77 0
 154 0054 C369     		ldr	r3, [r0, #28]
 155              	.LBE27:
 156              	.LBE49:
 157              	.LBB50:
 158              	.LBB51:
 159 0056 4FF48052 		mov	r2, #4096
 160              	.LBE51:
 161              	.LBE50:
 162              	.LBB54:
 163              	.LBB28:
 164 005a 2B60     		str	r3, [r5, #0]
 165              		.loc 1 78 0
 166 005c 036A     		ldr	r3, [r0, #32]
 167              	.LBE28:
 168              	.LBE54:
 169              	.LBB55:
 170              	.LBB52:
 171              		.loc 1 77 0
ARM GAS  C:\DOCUME~1\ADMINI~1\LOCALS~1\Temp\cca3dxaC.s 			page 4


 172 005e C4F20202 		movt	r2, 16386
 173              	.LBE52:
 174              	.LBE55:
 175              	.LBB56:
 176              	.LBB29:
 177              		.loc 1 78 0
 178 0062 6B60     		str	r3, [r5, #4]
 179              		.loc 1 79 0
 180 0064 466A     		ldr	r6, [r0, #36]
 181              	.LBE29:
 182              	.LBE56:
 183              	.LBB57:
 184              	.LBB58:
 185              		.loc 1 77 0
 186 0066 4FF4A053 		mov	r3, #5120
 187              	.LBE58:
 188              	.LBE57:
 189              	.LBB61:
 190              	.LBB30:
 191              		.loc 1 79 0
 192 006a AE60     		str	r6, [r5, #8]
 193              		.loc 1 80 0
 194 006c 866A     		ldr	r6, [r0, #40]
 195              	.LBE30:
 196              	.LBE61:
 197              	.LBB62:
 198              	.LBB59:
 199              		.loc 1 77 0
 200 006e C4F20203 		movt	r3, 16386
 201              	.LBE59:
 202              	.LBE62:
 203              	.LBB63:
 204              	.LBB31:
 205              		.loc 1 80 0
 206 0072 EE60     		str	r6, [r5, #12]
 207              		.loc 1 81 0
 208 0074 C66A     		ldr	r6, [r0, #44]
 209 0076 6E61     		str	r6, [r5, #20]
 210              		.loc 1 82 0
 211 0078 066B     		ldr	r6, [r0, #48]
 212 007a 2E62     		str	r6, [r5, #32]
 213              		.loc 1 83 0
 214 007c 466B     		ldr	r6, [r0, #52]
 215 007e 6E62     		str	r6, [r5, #36]
 216              	.LVL3:
 217              	.LBE31:
 218              	.LBE63:
 219              	.LBB64:
 220              	.LBB38:
 221              		.loc 1 77 0
 222 0080 856B     		ldr	r5, [r0, #56]
 223 0082 2560     		str	r5, [r4, #0]
 224              		.loc 1 78 0
 225 0084 C56B     		ldr	r5, [r0, #60]
 226 0086 6560     		str	r5, [r4, #4]
 227              		.loc 1 79 0
 228 0088 056C     		ldr	r5, [r0, #64]
ARM GAS  C:\DOCUME~1\ADMINI~1\LOCALS~1\Temp\cca3dxaC.s 			page 5


 229 008a A560     		str	r5, [r4, #8]
 230              		.loc 1 80 0
 231 008c 456C     		ldr	r5, [r0, #68]
 232 008e E560     		str	r5, [r4, #12]
 233              		.loc 1 81 0
 234 0090 856C     		ldr	r5, [r0, #72]
 235 0092 6561     		str	r5, [r4, #20]
 236              		.loc 1 82 0
 237 0094 C56C     		ldr	r5, [r0, #76]
 238 0096 2562     		str	r5, [r4, #32]
 239              		.loc 1 83 0
 240 0098 056D     		ldr	r5, [r0, #80]
 241 009a 6562     		str	r5, [r4, #36]
 242              	.LVL4:
 243              	.LBE38:
 244              	.LBE64:
 245              	.LBB65:
 246              	.LBB45:
 247              		.loc 1 77 0
 248 009c 446D     		ldr	r4, [r0, #84]
 249 009e 0C60     		str	r4, [r1, #0]
 250              		.loc 1 78 0
 251 00a0 846D     		ldr	r4, [r0, #88]
 252 00a2 4C60     		str	r4, [r1, #4]
 253              		.loc 1 79 0
 254 00a4 C46D     		ldr	r4, [r0, #92]
 255 00a6 8C60     		str	r4, [r1, #8]
 256              		.loc 1 80 0
 257 00a8 046E     		ldr	r4, [r0, #96]
 258 00aa CC60     		str	r4, [r1, #12]
 259              		.loc 1 81 0
 260 00ac 446E     		ldr	r4, [r0, #100]
 261 00ae 4C61     		str	r4, [r1, #20]
 262              		.loc 1 82 0
 263 00b0 846E     		ldr	r4, [r0, #104]
 264 00b2 0C62     		str	r4, [r1, #32]
 265              		.loc 1 83 0
 266 00b4 C46E     		ldr	r4, [r0, #108]
 267 00b6 4C62     		str	r4, [r1, #36]
 268              	.LVL5:
 269              	.LBE45:
 270              	.LBE65:
 271              	.LBB66:
 272              	.LBB53:
 273              		.loc 1 77 0
 274 00b8 016F     		ldr	r1, [r0, #112]
 275 00ba 1160     		str	r1, [r2, #0]
 276              		.loc 1 78 0
 277 00bc 416F     		ldr	r1, [r0, #116]
 278 00be 5160     		str	r1, [r2, #4]
 279              		.loc 1 79 0
 280 00c0 816F     		ldr	r1, [r0, #120]
 281 00c2 9160     		str	r1, [r2, #8]
 282              		.loc 1 80 0
 283 00c4 C16F     		ldr	r1, [r0, #124]
 284 00c6 D160     		str	r1, [r2, #12]
 285              		.loc 1 81 0
ARM GAS  C:\DOCUME~1\ADMINI~1\LOCALS~1\Temp\cca3dxaC.s 			page 6


 286 00c8 D0F88010 		ldr	r1, [r0, #128]
 287 00cc 5161     		str	r1, [r2, #20]
 288              		.loc 1 82 0
 289 00ce D0F88410 		ldr	r1, [r0, #132]
 290 00d2 1162     		str	r1, [r2, #32]
 291              		.loc 1 83 0
 292 00d4 D0F88810 		ldr	r1, [r0, #136]
 293 00d8 5162     		str	r1, [r2, #36]
 294              	.LVL6:
 295              	.LBE53:
 296              	.LBE66:
 297              	.LBB67:
 298              	.LBB60:
 299              		.loc 1 77 0
 300 00da D0F88C20 		ldr	r2, [r0, #140]
 301 00de 1A60     		str	r2, [r3, #0]
 302              		.loc 1 78 0
 303 00e0 D0F89020 		ldr	r2, [r0, #144]
 304 00e4 5A60     		str	r2, [r3, #4]
 305              		.loc 1 79 0
 306 00e6 D0F89420 		ldr	r2, [r0, #148]
 307 00ea 9A60     		str	r2, [r3, #8]
 308              		.loc 1 80 0
 309 00ec D0F89820 		ldr	r2, [r0, #152]
 310 00f0 DA60     		str	r2, [r3, #12]
 311              		.loc 1 81 0
 312 00f2 D0F89C20 		ldr	r2, [r0, #156]
 313 00f6 5A61     		str	r2, [r3, #20]
 314              		.loc 1 82 0
 315 00f8 D0F8A020 		ldr	r2, [r0, #160]
 316 00fc 1A62     		str	r2, [r3, #32]
 317              		.loc 1 83 0
 318 00fe D0F8A420 		ldr	r2, [r0, #164]
 319 0102 5A62     		str	r2, [r3, #36]
 320              	.LBE60:
 321              	.LBE67:
 322              		.loc 1 136 0
 323 0104 70BC     		pop	{r4, r5, r6}
 324 0106 7047     		bx	lr
 325              		.cfi_endproc
 326              	.LFE63:
 327              		.size	_pal_lld_init, .-_pal_lld_init
 328              		.section	.text._pal_lld_setgroupmode,"ax",%progbits
 329              		.align	2
 330              		.global	_pal_lld_setgroupmode
 331              		.thumb
 332              		.thumb_func
 333              		.type	_pal_lld_setgroupmode, %function
 334              	_pal_lld_setgroupmode:
 335              	.LFB64:
 336              		.loc 1 154 0
 337              		.cfi_startproc
 338              		@ args = 0, pretend = 0, frame = 0
 339              		@ frame_needed = 0, uses_anonymous_args = 0
 340              		@ link register save eliminated.
 341              	.LVL7:
 342 0000 2DE9F00F 		push	{r4, r5, r6, r7, r8, r9, sl, fp}
ARM GAS  C:\DOCUME~1\ADMINI~1\LOCALS~1\Temp\cca3dxaC.s 			page 7


 343              	.LCFI1:
 344              		.cfi_def_cfa_offset 32
 345              		.cfi_offset 4, -32
 346              		.cfi_offset 5, -28
 347              		.cfi_offset 6, -24
 348              		.cfi_offset 7, -20
 349              		.cfi_offset 8, -16
 350              		.cfi_offset 9, -12
 351              		.cfi_offset 10, -8
 352              		.cfi_offset 11, -4
 353              		.loc 1 161 0
 354 0004 0023     		movs	r3, #0
 355              		.loc 1 156 0
 356 0006 02F00307 		and	r7, r2, #3
 357              	.LVL8:
 358              		.loc 1 157 0
 359 000a C2F38006 		ubfx	r6, r2, #2, #1
 360              	.LVL9:
 361              		.loc 1 158 0
 362 000e C2F3C105 		ubfx	r5, r2, #3, #2
 363              	.LVL10:
 364              		.loc 1 159 0
 365 0012 C2F34114 		ubfx	r4, r2, #5, #2
 366              	.LVL11:
 367              		.loc 1 160 0
 368 0016 C2F3C31B 		ubfx	fp, r2, #7, #4
 369              	.LVL12:
 370              	.LBB68:
 371              		.loc 1 167 0
 372 001a 4FF00F0A 		mov	sl, #15
 373              		.loc 1 172 0
 374 001e 4FF00109 		mov	r9, #1
 375 0022 04E0     		b	.L7
 376              	.LVL13:
 377              	.L12:
 378              	.LBE68:
 379              		.loc 1 182 0
 380 0024 7600     		lsls	r6, r6, #1
 381              	.LVL14:
 382              		.loc 1 183 0
 383 0026 AD00     		lsls	r5, r5, #2
 384              	.LVL15:
 385              		.loc 1 184 0
 386 0028 A400     		lsls	r4, r4, #2
 387              	.LVL16:
 388              		.loc 1 185 0
 389 002a BF00     		lsls	r7, r7, #2
 390              	.LVL17:
 391              		.loc 1 186 0
 392 002c 0133     		adds	r3, r3, #1
 393              	.LVL18:
 394              	.L7:
 395              	.LBB69:
 396              		.loc 1 166 0
 397 002e 03F00702 		and	r2, r3, #7
 398 0032 9200     		lsls	r2, r2, #2
 399              	.LBE69:
ARM GAS  C:\DOCUME~1\ADMINI~1\LOCALS~1\Temp\cca3dxaC.s 			page 8


 400              		.loc 1 163 0
 401 0034 11F0010F 		tst	r1, #1
 402 0038 3AD0     		beq	.L3
 403              	.LBB70:
 404              		.loc 1 166 0
 405 003a 0BFA02FC 		lsl	ip, fp, r2
 406              	.LVL19:
 407              		.loc 1 167 0
 408 003e 0AFA02F2 		lsl	r2, sl, r2
 409              	.LVL20:
 410              		.loc 1 168 0
 411 0042 072B     		cmp	r3, #7
 412              		.loc 1 169 0
 413 0044 95BF     		itete	ls
 414 0046 D0F82080 		ldrls	r8, [r0, #32]
 415              		.loc 1 171 0
 416 004a D0F82480 		ldrhi	r8, [r0, #36]
 417              		.loc 1 169 0
 418 004e 28EA0202 		bicls	r2, r8, r2
 419              	.LVL21:
 420              		.loc 1 171 0
 421 0052 28EA0202 		bichi	r2, r8, r2
 422              		.loc 1 172 0
 423 0056 09FA03F8 		lsl	r8, r9, r3
 424              		.loc 1 169 0
 425 005a 95BF     		itete	ls
 426 005c 42EA0C02 		orrls	r2, r2, ip
 427              		.loc 1 171 0
 428 0060 42EA0C02 		orrhi	r2, r2, ip
 429              		.loc 1 169 0
 430 0064 0262     		strls	r2, [r0, #32]
 431              		.loc 1 171 0
 432 0066 4262     		strhi	r2, [r0, #36]
 433              		.loc 1 174 0
 434 0068 4FF0030C 		mov	ip, #3
 435              	.LVL22:
 436              		.loc 1 152 0
 437 006c 5A00     		lsls	r2, r3, #1
 438              		.loc 1 174 0
 439 006e 0CFA02F2 		lsl	r2, ip, r2
 440              		.loc 1 173 0
 441 0072 D0F804C0 		ldr	ip, [r0, #4]
 442              		.loc 1 175 0
 443 0076 D243     		mvns	r2, r2
 444              		.loc 1 173 0
 445 0078 2CEA080C 		bic	ip, ip, r8
 446 007c 4CEA060C 		orr	ip, ip, r6
 447 0080 C0F804C0 		str	ip, [r0, #4]
 448              	.LVL23:
 449              		.loc 1 175 0
 450 0084 D0F808C0 		ldr	ip, [r0, #8]
 451 0088 02EA0C0C 		and	ip, r2, ip
 452 008c 4CEA050C 		orr	ip, ip, r5
 453 0090 C0F808C0 		str	ip, [r0, #8]
 454              		.loc 1 176 0
 455 0094 D0F80CC0 		ldr	ip, [r0, #12]
 456 0098 02EA0C0C 		and	ip, r2, ip
ARM GAS  C:\DOCUME~1\ADMINI~1\LOCALS~1\Temp\cca3dxaC.s 			page 9


 457 009c 4CEA040C 		orr	ip, ip, r4
 458 00a0 C0F80CC0 		str	ip, [r0, #12]
 459              		.loc 1 177 0
 460 00a4 D0F800C0 		ldr	ip, [r0, #0]
 461 00a8 02EA0C02 		and	r2, r2, ip
 462              	.LVL24:
 463 00ac 3A43     		orrs	r2, r2, r7
 464 00ae 0260     		str	r2, [r0, #0]
 465              	.LVL25:
 466              	.L3:
 467              	.LBE70:
 468              		.loc 1 180 0
 469 00b0 4908     		lsrs	r1, r1, #1
 470              	.LVL26:
 471 00b2 B7D1     		bne	.L12
 472              		.loc 1 188 0
 473 00b4 BDE8F00F 		pop	{r4, r5, r6, r7, r8, r9, sl, fp}
 474 00b8 7047     		bx	lr
 475              		.cfi_endproc
 476              	.LFE64:
 477              		.size	_pal_lld_setgroupmode, .-_pal_lld_setgroupmode
 478 00ba 00BF     		.text
 479              	.Letext0:
 480              		.file 2 "c:/program files/yagarto/lib/gcc/../../arm-none-eabi/sys-include/stdint.h"
 481              		.file 3 "../../os/hal/platforms/STM32L1xx/stm32l1xx.h"
 482              		.file 4 "../../os/hal/platforms/STM32/GPIOv2/pal_lld.h"
 483              		.file 5 "../../os/ports/common/ARMCMx/CMSIS/include/core_cm3.h"