ARM GAS  C:\DOCUME~1\ADMINI~1\LOCALS~1\Temp\ccU7GjqY.s 			page 1


   1              		.syntax unified
   2              		.cpu cortex-m3
   3              		.fpu softvfp
   4              		.eabi_attribute 20, 1
   5              		.eabi_attribute 21, 1
   6              		.eabi_attribute 23, 3
   7              		.eabi_attribute 24, 1
   8              		.eabi_attribute 25, 1
   9              		.eabi_attribute 26, 1
  10              		.eabi_attribute 30, 2
  11              		.eabi_attribute 34, 1
  12              		.eabi_attribute 18, 4
  13              		.thumb
  14              		.file	"pid.c"
  15              		.text
  16              	.Ltext0:
  17              		.cfi_sections	.debug_frame
  18              		.section	.text.initPIDStruct,"ax",%progbits
  19              		.align	2
  20              		.global	initPIDStruct
  21              		.thumb
  22              		.thumb_func
  23              		.type	initPIDStruct, %function
  24              	initPIDStruct:
  25              	.LFB62:
  26              		.file 1 "pid.c"
  27              		.loc 1 45 0
  28              		.cfi_startproc
  29              		@ args = 0, pretend = 0, frame = 0
  30              		@ frame_needed = 0, uses_anonymous_args = 0
  31              		@ link register save eliminated.
  32              	.LVL0:
  33              		.loc 1 46 0
  34 0000 0023     		movs	r3, #0
  35 0002 0360     		str	r3, [r0, #0]	@ float
  36              		.loc 1 50 0
  37 0004 0361     		str	r3, [r0, #16]	@ float
  38              		.loc 1 51 0
  39 0006 4361     		str	r3, [r0, #20]	@ float
  40              		.loc 1 52 0
  41 0008 8361     		str	r3, [r0, #24]	@ float
  42              		.loc 1 53 0
  43 000a 0362     		str	r3, [r0, #32]	@ float
  44              		.loc 1 54 0
  45 000c 4FF40003 		mov	r3, #8388608
  46 0010 4362     		str	r3, [r0, #36]	@ float
  47              		.loc 1 55 0
  48 0012 4FF6FF73 		movw	r3, #65535
  49              		.loc 1 48 0
  50 0016 4FF07E52 		mov	r2, #1065353216
  51              		.loc 1 47 0
  52 001a 0021     		movs	r1, #0
  53              		.loc 1 55 0
  54 001c C7F67F73 		movt	r3, 32639
  55              		.loc 1 47 0
  56 0020 4160     		str	r1, [r0, #4]
  57              		.loc 1 48 0
ARM GAS  C:\DOCUME~1\ADMINI~1\LOCALS~1\Temp\ccU7GjqY.s 			page 2


  58 0022 8260     		str	r2, [r0, #8]	@ float
  59              		.loc 1 49 0
  60 0024 C260     		str	r2, [r0, #12]	@ float
  61              		.loc 1 55 0
  62 0026 8362     		str	r3, [r0, #40]	@ float
  63              		.loc 1 56 0
  64 0028 C162     		str	r1, [r0, #44]
  65 002a 7047     		bx	lr
  66              		.cfi_endproc
  67              	.LFE62:
  68              		.size	initPIDStruct, .-initPIDStruct
  69              		.section	.text.resetPIDStruct,"ax",%progbits
  70              		.align	2
  71              		.global	resetPIDStruct
  72              		.thumb
  73              		.thumb_func
  74              		.type	resetPIDStruct, %function
  75              	resetPIDStruct:
  76              	.LFB63:
  77              		.loc 1 60 0
  78              		.cfi_startproc
  79              		@ args = 0, pretend = 0, frame = 0
  80              		@ frame_needed = 0, uses_anonymous_args = 0
  81              		@ link register save eliminated.
  82              	.LVL1:
  83              		.loc 1 61 0
  84 0000 0023     		movs	r3, #0
  85 0002 0362     		str	r3, [r0, #32]	@ float
  86              		.loc 1 62 0
  87 0004 8361     		str	r3, [r0, #24]	@ float
  88              		.loc 1 63 0
  89 0006 C162     		str	r1, [r0, #44]
  90 0008 7047     		bx	lr
  91              		.cfi_endproc
  92              	.LFE63:
  93              		.size	resetPIDStruct, .-resetPIDStruct
  94              		.global	__aeabi_fsub
  95              		.global	__aeabi_fmul
  96              		.global	__aeabi_i2f
  97              		.global	__aeabi_fadd
  98              		.global	__aeabi_fcmple
  99              		.global	__aeabi_fcmpge
 100              		.global	__aeabi_fdiv
 101              		.global	__aeabi_f2uiz
 102 000a 00BF     		.section	.text.PIDUpdatePid,"ax",%progbits
 103              		.align	2
 104              		.global	PIDUpdatePid
 105              		.thumb
 106              		.thumb_func
 107              		.type	PIDUpdatePid, %function
 108              	PIDUpdatePid:
 109              	.LFB64:
 110              		.loc 1 77 0
 111              		.cfi_startproc
 112              		@ args = 0, pretend = 0, frame = 8
 113              		@ frame_needed = 0, uses_anonymous_args = 0
 114              	.LVL2:
ARM GAS  C:\DOCUME~1\ADMINI~1\LOCALS~1\Temp\ccU7GjqY.s 			page 3


 115 0000 2DE9F04F 		push	{r4, r5, r6, r7, r8, r9, sl, fp, lr}
 116              	.LCFI0:
 117              		.cfi_def_cfa_offset 36
 118              		.cfi_offset 4, -36
 119              		.cfi_offset 5, -32
 120              		.cfi_offset 6, -28
 121              		.cfi_offset 7, -24
 122              		.cfi_offset 8, -20
 123              		.cfi_offset 9, -16
 124              		.cfi_offset 10, -12
 125              		.cfi_offset 11, -8
 126              		.cfi_offset 14, -4
 127 0004 8046     		mov	r8, r0
 128              		.loc 1 88 0
 129 0006 4068     		ldr	r0, [r0, #4]
 130              	.LVL3:
 131              		.loc 1 77 0
 132 0008 83B0     		sub	sp, sp, #12
 133              	.LCFI1:
 134              		.cfi_def_cfa_offset 48
 135              		.loc 1 88 0
 136 000a 0128     		cmp	r0, #1
 137              		.loc 1 77 0
 138 000c 0F46     		mov	r7, r1
 139 000e 1646     		mov	r6, r2
 140              		.loc 1 88 0
 141 0010 75D0     		beq	.L18
 142              		.loc 1 95 0
 143 0012 D8F80C50 		ldr	r5, [r8, #12]	@ float
 144              	.LVL4:
 145              		.loc 1 96 0
 146 0016 D8F81090 		ldr	r9, [r8, #16]	@ float
 147              	.LVL5:
 148              		.loc 1 97 0
 149 001a D8F814B0 		ldr	fp, [r8, #20]	@ float
 150              	.LVL6:
 151              	.L5:
 152              		.loc 1 101 0
 153 001e D8F80000 		ldr	r0, [r8, #0]	@ float
 154 0022 3946     		mov	r1, r7
 155 0024 FFF7FEFF 		bl	__aeabi_fsub
 156              	.LVL7:
 157 0028 0446     		mov	r4, r0
 158              	.LVL8:
 159              		.loc 1 109 0
 160 002a 2146     		mov	r1, r4
 161 002c 2846     		mov	r0, r5
 162              	.LVL9:
 163 002e FFF7FEFF 		bl	__aeabi_fmul
 164              	.LVL10:
 165 0032 0190     		str	r0, [sp, #4]	@ float
 166              	.LVL11:
 167              		.loc 1 106 0
 168 0034 D8F82C00 		ldr	r0, [r8, #44]
 169              	.LVL12:
 170 0038 301A     		subs	r0, r6, r0
 171              		.loc 1 112 0
ARM GAS  C:\DOCUME~1\ADMINI~1\LOCALS~1\Temp\ccU7GjqY.s 			page 4


 172 003a 80B2     		uxth	r0, r0
 173 003c FFF7FEFF 		bl	__aeabi_i2f
 174              	.LVL13:
 175 0040 2146     		mov	r1, r4
 176 0042 8246     		mov	sl, r0
 177 0044 FFF7FEFF 		bl	__aeabi_fmul
 178              	.LVL14:
 179 0048 D8F82010 		ldr	r1, [r8, #32]	@ float
 180 004c FFF7FEFF 		bl	__aeabi_fadd
 181              	.LVL15:
 182              		.loc 1 113 0
 183 0050 D8F82420 		ldr	r2, [r8, #36]	@ float
 184              		.loc 1 112 0
 185 0054 C8F82000 		str	r0, [r8, #32]	@ float
 186              		.loc 1 113 0
 187 0058 1146     		mov	r1, r2
 188 005a 0092     		str	r2, [sp, #0]
 189              		.loc 1 112 0
 190 005c 0546     		mov	r5, r0
 191              	.LVL16:
 192              		.loc 1 113 0
 193 005e FFF7FEFF 		bl	__aeabi_fcmple
 194              	.LVL17:
 195 0062 009A     		ldr	r2, [sp, #0]
 196 0064 0028     		cmp	r0, #0
 197 0066 41D1     		bne	.L16
 198              		.loc 1 113 0 is_stmt 0 discriminator 2
 199 0068 D8F82820 		ldr	r2, [r8, #40]	@ float
 200 006c 2846     		mov	r0, r5
 201 006e 1146     		mov	r1, r2
 202 0070 0092     		str	r2, [sp, #0]
 203 0072 FFF7FEFF 		bl	__aeabi_fcmpge
 204              	.LVL18:
 205 0076 009A     		ldr	r2, [sp, #0]
 206 0078 0028     		cmp	r0, #0
 207 007a 37D1     		bne	.L16
 208              	.L8:
 209              	.LVL19:
 210              		.loc 1 117 0 is_stmt 1
 211 007c D8F81810 		ldr	r1, [r8, #24]	@ float
 212 0080 2046     		mov	r0, r4
 213 0082 FFF7FEFF 		bl	__aeabi_fsub
 214              	.LVL20:
 215 0086 5946     		mov	r1, fp
 216 0088 FFF7FEFF 		bl	__aeabi_fmul
 217              	.LVL21:
 218 008c 5146     		mov	r1, sl
 219 008e FFF7FEFF 		bl	__aeabi_fdiv
 220              	.LVL22:
 221              		.loc 1 125 0
 222 0092 D8F80820 		ldr	r2, [r8, #8]
 223              		.loc 1 117 0
 224 0096 8246     		mov	sl, r0
 225              	.LVL23:
 226              		.loc 1 120 0
 227 0098 C8F81840 		str	r4, [r8, #24]	@ float
 228              		.loc 1 114 0
ARM GAS  C:\DOCUME~1\ADMINI~1\LOCALS~1\Temp\ccU7GjqY.s 			page 5


 229 009c 2946     		mov	r1, r5
 230              		.loc 1 121 0
 231 009e C8F81C70 		str	r7, [r8, #28]	@ float
 232              		.loc 1 122 0
 233 00a2 C8F82C60 		str	r6, [r8, #44]
 234              		.loc 1 114 0
 235 00a6 4846     		mov	r0, r9
 236              	.LVL24:
 237              		.loc 1 125 0
 238 00a8 02F10044 		add	r4, r2, #-2147483648
 239              	.LVL25:
 240              		.loc 1 114 0
 241 00ac FFF7FEFF 		bl	__aeabi_fmul
 242              	.LVL26:
 243 00b0 0146     		mov	r1, r0
 244              		.loc 1 125 0
 245 00b2 0198     		ldr	r0, [sp, #4]	@ float
 246 00b4 FFF7FEFF 		bl	__aeabi_fadd
 247              	.LVL27:
 248 00b8 5146     		mov	r1, sl
 249 00ba FFF7FEFF 		bl	__aeabi_fadd
 250              	.LVL28:
 251 00be 0146     		mov	r1, r0
 252 00c0 2046     		mov	r0, r4
 253 00c2 FFF7FEFF 		bl	__aeabi_fmul
 254              	.LVL29:
 255              		.loc 1 126 0
 256 00c6 0021     		movs	r1, #0
 257              		.loc 1 125 0
 258 00c8 0446     		mov	r4, r0
 259              	.LVL30:
 260              		.loc 1 126 0
 261 00ca FFF7FEFF 		bl	__aeabi_fcmple
 262              	.LVL31:
 263 00ce 0028     		cmp	r0, #0
 264 00d0 28D1     		bne	.L11
 265              		.loc 1 126 0 is_stmt 0 discriminator 2
 266 00d2 4FF47F41 		mov	r1, #65280
 267 00d6 2046     		mov	r0, r4
 268 00d8 C4F27F71 		movt	r1, 18303
 269 00dc FFF7FEFF 		bl	__aeabi_fcmpge
 270              	.LVL32:
 271 00e0 40B1     		cbz	r0, .L19
 272              		.loc 1 126 0
 273 00e2 4FF6FF70 		movw	r0, #65535
 274              	.L10:
 275              	.LVL33:
 276              		.loc 1 136 0 is_stmt 1
 277 00e6 03B0     		add	sp, sp, #12
 278 00e8 BDE8F08F 		pop	{r4, r5, r6, r7, r8, r9, sl, fp, pc}
 279              	.LVL34:
 280              	.L16:
 281              		.loc 1 113 0 discriminator 3
 282 00ec C8F82020 		str	r2, [r8, #32]	@ float
 283 00f0 1546     		mov	r5, r2
 284 00f2 C3E7     		b	.L8
 285              	.LVL35:
ARM GAS  C:\DOCUME~1\ADMINI~1\LOCALS~1\Temp\ccU7GjqY.s 			page 6


 286              	.L19:
 287 00f4 2046     		mov	r0, r4
 288 00f6 FFF7FEFF 		bl	__aeabi_f2uiz
 289              	.LVL36:
 290 00fa 80B2     		uxth	r0, r0
 291 00fc F3E7     		b	.L10
 292              	.LVL37:
 293              	.L18:
 294              		.loc 1 90 0
 295 00fe D8F80C10 		ldr	r1, [r8, #12]	@ float
 296              	.LVL38:
 297 0102 0020     		movs	r0, #0
 298 0104 FFF7FEFF 		bl	__aeabi_fsub
 299              	.LVL39:
 300              		.loc 1 91 0
 301 0108 D8F81010 		ldr	r1, [r8, #16]	@ float
 302              		.loc 1 90 0
 303 010c 0546     		mov	r5, r0
 304              	.LVL40:
 305              		.loc 1 91 0
 306 010e 0020     		movs	r0, #0
 307              	.LVL41:
 308 0110 FFF7FEFF 		bl	__aeabi_fsub
 309              	.LVL42:
 310              		.loc 1 92 0
 311 0114 D8F81410 		ldr	r1, [r8, #20]	@ float
 312              		.loc 1 91 0
 313 0118 8146     		mov	r9, r0
 314              	.LVL43:
 315              		.loc 1 92 0
 316 011a 0020     		movs	r0, #0
 317              	.LVL44:
 318 011c FFF7FEFF 		bl	__aeabi_fsub
 319              	.LVL45:
 320 0120 8346     		mov	fp, r0
 321              	.LVL46:
 322 0122 7CE7     		b	.L5
 323              	.LVL47:
 324              	.L11:
 325              		.loc 1 126 0
 326 0124 0020     		movs	r0, #0
 327 0126 DEE7     		b	.L10
 328              		.cfi_endproc
 329              	.LFE64:
 330              		.size	PIDUpdatePid, .-PIDUpdatePid
 331              		.text
 332              	.Letext0:
 333              		.file 2 "c:/program files/yagarto/lib/gcc/../../arm-none-eabi/sys-include/stdint.h"
 334              		.file 3 "pid.h"
 335              		.file 4 "../../os/ports/common/ARMCMx/CMSIS/include/core_cm3.h"