ARM GAS  C:\DOCUME~1\ADMINI~1\LOCALS~1\Temp\ccGezyCe.s 			page 1


   1              		.syntax unified
   2              		.cpu cortex-m3
   3              		.fpu softvfp
   4              		.eabi_attribute 20, 1
   5              		.eabi_attribute 21, 1
   6              		.eabi_attribute 23, 3
   7              		.eabi_attribute 24, 1
   8              		.eabi_attribute 25, 1
   9              		.eabi_attribute 26, 1
  10              		.eabi_attribute 30, 2
  11              		.eabi_attribute 34, 1
  12              		.eabi_attribute 18, 4
  13              		.thumb
  14              		.file	"pwm_lld.c"
  15              		.text
  16              	.Ltext0:
  17              		.cfi_sections	.debug_frame
  18              		.section	.text.VectorB8,"ax",%progbits
  19              		.align	2
  20              		.global	VectorB8
  21              		.thumb
  22              		.thumb_func
  23              		.type	VectorB8, %function
  24              	VectorB8:
  25              	.LFB63:
  26              		.file 1 "../../os/hal/platforms/STM32/pwm_lld.c"
  27              		.loc 1 221 0
  28              		.cfi_startproc
  29              		@ args = 0, pretend = 0, frame = 0
  30              		@ frame_needed = 0, uses_anonymous_args = 0
  31              	.LVL0:
  32 0000 38B5     		push	{r3, r4, r5, lr}
  33              	.LCFI0:
  34              		.cfi_def_cfa_offset 16
  35              		.cfi_offset 3, -16
  36              		.cfi_offset 4, -12
  37              		.cfi_offset 5, -8
  38              		.cfi_offset 14, -4
  39              	.LBB4:
  40              	.LBB5:
  41              		.loc 1 114 0
  42 0002 1C4D     		ldr	r5, .L27
  43              		.loc 1 116 0
  44 0004 4FF6E071 		movw	r1, #65504
  45              		.loc 1 114 0
  46 0008 2B69     		ldr	r3, [r5, #16]
  47 000a 1A8A     		ldrh	r2, [r3, #16]
  48              	.LVL1:
  49              		.loc 1 115 0
  50 000c 9C89     		ldrh	r4, [r3, #12]
  51              		.loc 1 116 0
  52 000e 1982     		strh	r1, [r3, #16]	@ movhi
  53              		.loc 1 115 0
  54 0010 A4B2     		uxth	r4, r4
  55 0012 1440     		ands	r4, r4, r2
  56              	.LVL2:
  57              		.loc 1 118 0
ARM GAS  C:\DOCUME~1\ADMINI~1\LOCALS~1\Temp\ccGezyCe.s 			page 2


  58 0014 04F00203 		and	r3, r4, #2
  59 0018 9BB2     		uxth	r3, r3
  60 001a 002B     		cmp	r3, #0
  61 001c 24D1     		bne	.L23
  62              	.L2:
  63              		.loc 1 120 0
  64 001e 04F00403 		and	r3, r4, #4
  65 0022 9BB2     		uxth	r3, r3
  66 0024 DBB9     		cbnz	r3, .L24
  67              	.L3:
  68              		.loc 1 122 0
  69 0026 04F00803 		and	r3, r4, #8
  70 002a 9BB2     		uxth	r3, r3
  71 002c 93B9     		cbnz	r3, .L25
  72              	.L4:
  73              		.loc 1 124 0
  74 002e 04F01003 		and	r3, r4, #16
  75 0032 9BB2     		uxth	r3, r3
  76 0034 4BB9     		cbnz	r3, .L26
  77              	.L5:
  78              		.loc 1 126 0
  79 0036 E307     		lsls	r3, r4, #31
  80 0038 03D5     		bpl	.L6
  81              		.loc 1 127 0
  82 003a 6B68     		ldr	r3, [r5, #4]
  83 003c 0D48     		ldr	r0, .L27
  84 003e 9B68     		ldr	r3, [r3, #8]
  85 0040 9847     		blx	r3
  86              	.LVL3:
  87              	.L6:
  88              	.LBE5:
  89              	.LBE4:
  90              		.loc 1 228 0
  91 0042 BDE83840 		pop	{r3, r4, r5, lr}
  92              		.loc 1 227 0
  93 0046 FFF7FEBF 		b	_port_irq_epilogue
  94              	.LVL4:
  95              	.L26:
  96              	.LBB7:
  97              	.LBB6:
  98              		.loc 1 125 0
  99 004a 6B68     		ldr	r3, [r5, #4]
 100 004c 0948     		ldr	r0, .L27
 101 004e 9B6A     		ldr	r3, [r3, #40]
 102 0050 9847     		blx	r3
 103              	.LVL5:
 104 0052 F0E7     		b	.L5
 105              	.L25:
 106              		.loc 1 123 0
 107 0054 6B68     		ldr	r3, [r5, #4]
 108 0056 0748     		ldr	r0, .L27
 109 0058 1B6A     		ldr	r3, [r3, #32]
 110 005a 9847     		blx	r3
 111              	.LVL6:
 112 005c E7E7     		b	.L4
 113              	.L24:
 114              		.loc 1 121 0
ARM GAS  C:\DOCUME~1\ADMINI~1\LOCALS~1\Temp\ccGezyCe.s 			page 3


 115 005e 6B68     		ldr	r3, [r5, #4]
 116 0060 0448     		ldr	r0, .L27
 117 0062 9B69     		ldr	r3, [r3, #24]
 118 0064 9847     		blx	r3
 119              	.LVL7:
 120 0066 DEE7     		b	.L3
 121              	.L23:
 122              		.loc 1 119 0
 123 0068 6B68     		ldr	r3, [r5, #4]
 124 006a 2846     		mov	r0, r5
 125 006c 1B69     		ldr	r3, [r3, #16]
 126 006e 9847     		blx	r3
 127              	.LVL8:
 128 0070 D5E7     		b	.L2
 129              	.L28:
 130 0072 00BF     		.align	2
 131              	.L27:
 132 0074 00000000 		.word	.LANCHOR0
 133              	.LBE6:
 134              	.LBE7:
 135              		.cfi_endproc
 136              	.LFE63:
 137              		.size	VectorB8, .-VectorB8
 138              		.section	.text.pwm_lld_init,"ax",%progbits
 139              		.align	2
 140              		.global	pwm_lld_init
 141              		.thumb
 142              		.thumb_func
 143              		.type	pwm_lld_init, %function
 144              	pwm_lld_init:
 145              	.LFB64:
 146              		.loc 1 303 0
 147              		.cfi_startproc
 148              		@ args = 0, pretend = 0, frame = 0
 149              		@ frame_needed = 0, uses_anonymous_args = 0
 150 0000 10B5     		push	{r4, lr}
 151              	.LCFI1:
 152              		.cfi_def_cfa_offset 8
 153              		.cfi_offset 4, -8
 154              		.cfi_offset 14, -4
 155              		.loc 1 325 0
 156 0002 40F20004 		movw	r4, #:lower16:.LANCHOR0
 157 0006 C0F20004 		movt	r4, #:upper16:.LANCHOR0
 158 000a 2046     		mov	r0, r4
 159 000c FFF7FEFF 		bl	pwmObjectInit
 160              	.LVL9:
 161              		.loc 1 326 0
 162 0010 4FF40063 		mov	r3, #2048
 163 0014 C4F20003 		movt	r3, 16384
 164 0018 2361     		str	r3, [r4, #16]
 165 001a 10BD     		pop	{r4, pc}
 166              		.cfi_endproc
 167              	.LFE64:
 168              		.size	pwm_lld_init, .-pwm_lld_init
 169              		.section	.text.pwm_lld_start,"ax",%progbits
 170              		.align	2
 171              		.global	pwm_lld_start
ARM GAS  C:\DOCUME~1\ADMINI~1\LOCALS~1\Temp\ccGezyCe.s 			page 4


 172              		.thumb
 173              		.thumb_func
 174              		.type	pwm_lld_start, %function
 175              	pwm_lld_start:
 176              	.LFB65:
 177              		.loc 1 351 0
 178              		.cfi_startproc
 179              		@ args = 0, pretend = 0, frame = 0
 180              		@ frame_needed = 0, uses_anonymous_args = 0
 181              	.LVL10:
 182 0000 38B5     		push	{r3, r4, r5, lr}
 183              	.LCFI2:
 184              		.cfi_def_cfa_offset 16
 185              		.cfi_offset 3, -16
 186              		.cfi_offset 4, -12
 187              		.cfi_offset 5, -8
 188              		.cfi_offset 14, -4
 189              		.loc 1 355 0
 190 0002 0378     		ldrb	r3, [r0, #0]	@ zero_extendqisi2
 191              		.loc 1 351 0
 192 0004 0446     		mov	r4, r0
 193              		.loc 1 355 0
 194 0006 012B     		cmp	r3, #1
 195 0008 5FD0     		beq	.L57
 196              		.loc 1 430 0
 197 000a 0369     		ldr	r3, [r0, #16]
 198 000c 0022     		movs	r2, #0
 199 000e 1A80     		strh	r2, [r3, #0]	@ movhi
 200              		.loc 1 431 0
 201 0010 9A81     		strh	r2, [r3, #12]	@ movhi
 202              		.loc 1 432 0
 203 0012 1A82     		strh	r2, [r3, #16]	@ movhi
 204              		.loc 1 433 0
 205 0014 5A63     		str	r2, [r3, #52]
 206              		.loc 1 434 0
 207 0016 9A63     		str	r2, [r3, #56]
 208              		.loc 1 435 0
 209 0018 DA63     		str	r2, [r3, #60]
 210              		.loc 1 436 0
 211 001a 1A64     		str	r2, [r3, #64]
 212              		.loc 1 437 0
 213 001c 5A62     		str	r2, [r3, #36]
 214              	.LVL11:
 215              	.L33:
 216              		.loc 1 441 0
 217 001e 6168     		ldr	r1, [r4, #4]
 218              	.LVL12:
 219 0020 E568     		ldr	r5, [r4, #12]
 220 0022 0A68     		ldr	r2, [r1, #0]
 221              		.loc 1 446 0
 222 0024 2489     		ldrh	r4, [r4, #8]
 223              	.LVL13:
 224              		.loc 1 441 0
 225 0026 B5FBF2F5 		udiv	r5, r5, r2
 226              	.LVL14:
 227              		.loc 1 451 0
 228 002a CA68     		ldr	r2, [r1, #12]
ARM GAS  C:\DOCUME~1\ADMINI~1\LOCALS~1\Temp\ccGezyCe.s 			page 5


 229              		.loc 1 447 0
 230 002c 888D     		ldrh	r0, [r1, #44]
 231              		.loc 1 441 0
 232 002e 013D     		subs	r5, r5, #1
 233              	.LVL15:
 234              		.loc 1 446 0
 235 0030 013C     		subs	r4, r4, #1
 236              		.loc 1 451 0
 237 0032 02F00F02 		and	r2, r2, #15
 238              		.loc 1 445 0
 239 0036 ADB2     		uxth	r5, r5
 240              	.LVL16:
 241              		.loc 1 446 0
 242 0038 A4B2     		uxth	r4, r4
 243              		.loc 1 451 0
 244 003a 012A     		cmp	r2, #1
 245              		.loc 1 445 0
 246 003c 1D85     		strh	r5, [r3, #40]	@ movhi
 247              		.loc 1 446 0
 248 003e DC62     		str	r4, [r3, #44]
 249              		.loc 1 447 0
 250 0040 9880     		strh	r0, [r3, #4]	@ movhi
 251              	.LVL17:
 252              		.loc 1 451 0
 253 0042 03D0     		beq	.L34
 254              		.loc 1 450 0
 255 0044 022A     		cmp	r2, #2
 256 0046 0CBF     		ite	eq
 257 0048 0322     		moveq	r2, #3
 258 004a 0022     		movne	r2, #0
 259              	.L34:
 260              	.LVL18:
 261              		.loc 1 459 0
 262 004c 4869     		ldr	r0, [r1, #20]
 263 004e 00F00F00 		and	r0, r0, #15
 264 0052 0128     		cmp	r0, #1
 265 0054 1ED0     		beq	.L38
 266 0056 0228     		cmp	r0, #2
 267 0058 1AD0     		beq	.L58
 268              		.loc 1 467 0
 269 005a C869     		ldr	r0, [r1, #28]
 270 005c 00F00F00 		and	r0, r0, #15
 271 0060 0128     		cmp	r0, #1
 272 0062 1ED0     		beq	.L41
 273              	.LVL19:
 274              	.L61:
 275 0064 0228     		cmp	r0, #2
 276 0066 2BD0     		beq	.L59
 277              	.LVL20:
 278              		.loc 1 475 0
 279 0068 486A     		ldr	r0, [r1, #36]
 280 006a 00F00F00 		and	r0, r0, #15
 281 006e 0128     		cmp	r0, #1
 282 0070 1ED0     		beq	.L44
 283              	.LVL21:
 284              	.L62:
 285 0072 0228     		cmp	r0, #2
ARM GAS  C:\DOCUME~1\ADMINI~1\LOCALS~1\Temp\ccGezyCe.s 			page 6


 286 0074 1FD0     		beq	.L60
 287              	.L43:
 288              	.LVL22:
 289              		.loc 1 522 0
 290 0076 8968     		ldr	r1, [r1, #8]
 291              	.LVL23:
 292              		.loc 1 520 0
 293 0078 1A84     		strh	r2, [r3, #32]	@ movhi
 294              		.loc 1 522 0
 295 007a 0031     		adds	r1, r1, #0
 296 007c 18BF     		it	ne
 297 007e 0121     		movne	r1, #1
 298              		.loc 1 521 0
 299 0080 0122     		movs	r2, #1
 300              	.LVL24:
 301 0082 9A82     		strh	r2, [r3, #20]	@ movhi
 302              		.loc 1 523 0
 303 0084 0022     		movs	r2, #0
 304              		.loc 1 522 0
 305 0086 9981     		strh	r1, [r3, #12]	@ movhi
 306              		.loc 1 523 0
 307 0088 1A82     		strh	r2, [r3, #16]	@ movhi
 308              		.loc 1 532 0
 309 008a 8522     		movs	r2, #133
 310 008c 1A80     		strh	r2, [r3, #0]	@ movhi
 311 008e 38BD     		pop	{r3, r4, r5, pc}
 312              	.LVL25:
 313              	.L58:
 314              		.loc 1 461 0
 315 0090 42F02002 		orr	r2, r2, #32
 316              	.LVL26:
 317              	.L38:
 318              		.loc 1 467 0
 319 0094 C869     		ldr	r0, [r1, #28]
 320              		.loc 1 463 0
 321 0096 42F01002 		orr	r2, r2, #16
 322              	.LVL27:
 323              		.loc 1 467 0
 324 009a 00F00F00 		and	r0, r0, #15
 325 009e 0128     		cmp	r0, #1
 326 00a0 E0D1     		bne	.L61
 327              	.LVL28:
 328              	.L41:
 329              		.loc 1 471 0
 330 00a2 42F48072 		orr	r2, r2, #256
 331              	.LVL29:
 332              	.L63:
 333              		.loc 1 475 0
 334 00a6 486A     		ldr	r0, [r1, #36]
 335 00a8 00F00F00 		and	r0, r0, #15
 336 00ac 0128     		cmp	r0, #1
 337 00ae E0D1     		bne	.L62
 338              	.LVL30:
 339              	.L44:
 340              		.loc 1 479 0
 341 00b0 42F48052 		orr	r2, r2, #4096
 342              	.LVL31:
ARM GAS  C:\DOCUME~1\ADMINI~1\LOCALS~1\Temp\ccGezyCe.s 			page 7


 343 00b4 DFE7     		b	.L43
 344              	.LVL32:
 345              	.L60:
 346              		.loc 1 477 0
 347 00b6 42F40052 		orr	r2, r2, #8192
 348              	.LVL33:
 349              		.loc 1 479 0
 350 00ba 42F48052 		orr	r2, r2, #4096
 351              	.LVL34:
 352 00be DAE7     		b	.L43
 353              	.LVL35:
 354              	.L59:
 355              		.loc 1 469 0
 356 00c0 42F40072 		orr	r2, r2, #512
 357              	.LVL36:
 358              		.loc 1 471 0
 359 00c4 42F48072 		orr	r2, r2, #256
 360              	.LVL37:
 361 00c8 EDE7     		b	.L63
 362              	.LVL38:
 363              	.L57:
 364              		.loc 1 387 0
 365 00ca 104B     		ldr	r3, .L65
 366 00cc 9842     		cmp	r0, r3
 367 00ce 05D0     		beq	.L64
 368              	.LVL39:
 369              	.L32:
 370              		.loc 1 419 0
 371 00d0 2369     		ldr	r3, [r4, #16]
 372 00d2 46F66802 		movw	r2, #26728
 373 00d6 1A83     		strh	r2, [r3, #24]	@ movhi
 374              		.loc 1 423 0
 375 00d8 9A83     		strh	r2, [r3, #28]	@ movhi
 376 00da A0E7     		b	.L33
 377              	.LVL40:
 378              	.L64:
 379              		.loc 1 388 0
 380 00dc 4FF46053 		mov	r3, #14336
 381 00e0 C4F20203 		movt	r3, 16386
 382 00e4 5A6A     		ldr	r2, [r3, #36]
 383              		.loc 1 390 0
 384 00e6 1E20     		movs	r0, #30
 385              	.LVL41:
 386              		.loc 1 388 0
 387 00e8 42F00402 		orr	r2, r2, #4
 388 00ec 5A62     		str	r2, [r3, #36]
 389              		.loc 1 389 0
 390 00ee 9A69     		ldr	r2, [r3, #24]
 391              		.loc 1 390 0
 392 00f0 7021     		movs	r1, #112
 393              		.loc 1 389 0
 394 00f2 42F00402 		orr	r2, r2, #4
 395 00f6 9A61     		str	r2, [r3, #24]
 396 00f8 0022     		movs	r2, #0
 397 00fa 9A61     		str	r2, [r3, #24]
 398              		.loc 1 390 0
 399 00fc FFF7FEFF 		bl	nvicEnableVector
ARM GAS  C:\DOCUME~1\ADMINI~1\LOCALS~1\Temp\ccGezyCe.s 			page 8


 400              	.LVL42:
 401              		.loc 1 392 0
 402 0100 4FF49043 		mov	r3, #18432
 403 0104 C0F2E813 		movt	r3, 488
 404 0108 E360     		str	r3, [r4, #12]
 405 010a E1E7     		b	.L32
 406              	.L66:
 407              		.align	2
 408              	.L65:
 409 010c 00000000 		.word	.LANCHOR0
 410              		.cfi_endproc
 411              	.LFE65:
 412              		.size	pwm_lld_start, .-pwm_lld_start
 413              		.section	.text.pwm_lld_stop,"ax",%progbits
 414              		.align	2
 415              		.global	pwm_lld_stop
 416              		.thumb
 417              		.thumb_func
 418              		.type	pwm_lld_stop, %function
 419              	pwm_lld_stop:
 420              	.LFB66:
 421              		.loc 1 542 0
 422              		.cfi_startproc
 423              		@ args = 0, pretend = 0, frame = 0
 424              		@ frame_needed = 0, uses_anonymous_args = 0
 425              	.LVL43:
 426 0000 08B5     		push	{r3, lr}
 427              	.LCFI3:
 428              		.cfi_def_cfa_offset 8
 429              		.cfi_offset 3, -8
 430              		.cfi_offset 14, -4
 431              		.loc 1 545 0
 432 0002 0378     		ldrb	r3, [r0, #0]	@ zero_extendqisi2
 433 0004 022B     		cmp	r3, #2
 434 0006 00D0     		beq	.L71
 435              	.LVL44:
 436              	.L67:
 437 0008 08BD     		pop	{r3, pc}
 438              	.LVL45:
 439              	.L71:
 440              		.loc 1 546 0
 441 000a 0369     		ldr	r3, [r0, #16]
 442 000c 0022     		movs	r2, #0
 443 000e 1A80     		strh	r2, [r3, #0]	@ movhi
 444              		.loc 1 547 0
 445 0010 9A81     		strh	r2, [r3, #12]	@ movhi
 446              		.loc 1 548 0
 447 0012 1A82     		strh	r2, [r3, #16]	@ movhi
 448              		.loc 1 573 0
 449 0014 074B     		ldr	r3, .L72
 450 0016 9842     		cmp	r0, r3
 451 0018 F6D1     		bne	.L67
 452              		.loc 1 574 0
 453 001a 1E20     		movs	r0, #30
 454              	.LVL46:
 455 001c FFF7FEFF 		bl	nvicDisableVector
 456              	.LVL47:
ARM GAS  C:\DOCUME~1\ADMINI~1\LOCALS~1\Temp\ccGezyCe.s 			page 9


 457              		.loc 1 575 0
 458 0020 4FF46053 		mov	r3, #14336
 459 0024 C4F20203 		movt	r3, 16386
 460 0028 5A6A     		ldr	r2, [r3, #36]
 461 002a 22F00402 		bic	r2, r2, #4
 462 002e 5A62     		str	r2, [r3, #36]
 463 0030 EAE7     		b	.L67
 464              	.L73:
 465 0032 00BF     		.align	2
 466              	.L72:
 467 0034 00000000 		.word	.LANCHOR0
 468              		.cfi_endproc
 469              	.LFE66:
 470              		.size	pwm_lld_stop, .-pwm_lld_stop
 471              		.section	.text.pwm_lld_enable_channel,"ax",%progbits
 472              		.align	2
 473              		.global	pwm_lld_enable_channel
 474              		.thumb
 475              		.thumb_func
 476              		.type	pwm_lld_enable_channel, %function
 477              	pwm_lld_enable_channel:
 478              	.LFB67:
 479              		.loc 1 608 0
 480              		.cfi_startproc
 481              		@ args = 0, pretend = 0, frame = 0
 482              		@ frame_needed = 0, uses_anonymous_args = 0
 483              		@ link register save eliminated.
 484              	.LVL48:
 485 0000 30B4     		push	{r4, r5}
 486              	.LCFI4:
 487              		.cfi_def_cfa_offset 8
 488              		.cfi_offset 4, -8
 489              		.cfi_offset 5, -4
 490              		.loc 1 613 0
 491 0002 4468     		ldr	r4, [r0, #4]
 492              		.loc 1 610 0
 493 0004 0369     		ldr	r3, [r0, #16]
 494              		.loc 1 613 0
 495 0006 04EBC104 		add	r4, r4, r1, lsl #3
 496              		.loc 1 610 0
 497 000a 01F10C05 		add	r5, r1, #12
 498              		.loc 1 613 0
 499 000e 2069     		ldr	r0, [r4, #16]
 500              	.LVL49:
 501              		.loc 1 610 0
 502 0010 03EB8505 		add	r5, r3, r5, lsl #2
 503 0014 6A60     		str	r2, [r5, #4]
 504              		.loc 1 613 0
 505 0016 60B1     		cbz	r0, .L74
 506              	.LBB8:
 507              		.loc 1 617 0
 508 0018 0222     		movs	r2, #2
 509              	.LVL50:
 510 001a 02FA01F1 		lsl	r1, r2, r1
 511              	.LVL51:
 512              		.loc 1 614 0
 513 001e 9A89     		ldrh	r2, [r3, #12]
ARM GAS  C:\DOCUME~1\ADMINI~1\LOCALS~1\Temp\ccGezyCe.s 			page 10


 514 0020 92B2     		uxth	r2, r2
 515              	.LVL52:
 516              		.loc 1 617 0
 517 0022 1142     		tst	r1, r2
 518 0024 05D1     		bne	.L74
 519              		.loc 1 618 0
 520 0026 89B2     		uxth	r1, r1
 521              		.loc 1 619 0
 522 0028 C843     		mvns	r0, r1
 523 002a 80B2     		uxth	r0, r0
 524              		.loc 1 618 0
 525 002c 1143     		orrs	r1, r1, r2
 526 002e 9981     		strh	r1, [r3, #12]	@ movhi
 527              		.loc 1 619 0
 528 0030 1882     		strh	r0, [r3, #16]	@ movhi
 529              	.LVL53:
 530              	.L74:
 531              	.LBE8:
 532              		.loc 1 622 0
 533 0032 30BC     		pop	{r4, r5}
 534 0034 7047     		bx	lr
 535              		.cfi_endproc
 536              	.LFE67:
 537              		.size	pwm_lld_enable_channel, .-pwm_lld_enable_channel
 538 0036 00BF     		.section	.text.pwm_lld_disable_channel,"ax",%progbits
 539              		.align	2
 540              		.global	pwm_lld_disable_channel
 541              		.thumb
 542              		.thumb_func
 543              		.type	pwm_lld_disable_channel, %function
 544              	pwm_lld_disable_channel:
 545              	.LFB68:
 546              		.loc 1 636 0
 547              		.cfi_startproc
 548              		@ args = 0, pretend = 0, frame = 0
 549              		@ frame_needed = 0, uses_anonymous_args = 0
 550              		@ link register save eliminated.
 551              	.LVL54:
 552              		.loc 1 639 0
 553 0000 0222     		movs	r2, #2
 554 0002 02FA01F2 		lsl	r2, r2, r1
 555              		.loc 1 638 0
 556 0006 0369     		ldr	r3, [r0, #16]
 557 0008 0C31     		adds	r1, r1, #12
 558              	.LVL55:
 559 000a 03EB8101 		add	r1, r3, r1, lsl #2
 560 000e 0020     		movs	r0, #0
 561              	.LVL56:
 562 0010 4860     		str	r0, [r1, #4]
 563              		.loc 1 639 0
 564 0012 9989     		ldrh	r1, [r3, #12]
 565 0014 89B2     		uxth	r1, r1
 566 0016 21EA0202 		bic	r2, r1, r2
 567 001a 9A81     		strh	r2, [r3, #12]	@ movhi
 568 001c 7047     		bx	lr
 569              		.cfi_endproc
 570              	.LFE68:
ARM GAS  C:\DOCUME~1\ADMINI~1\LOCALS~1\Temp\ccGezyCe.s 			page 11


 571              		.size	pwm_lld_disable_channel, .-pwm_lld_disable_channel
 572              		.global	PWMD4
 573 001e 00BF     		.section	.bss.PWMD4,"aw",%nobits
 574              		.align	2
 575              		.set	.LANCHOR0,. + 0
 576              		.type	PWMD4, %object
 577              		.size	PWMD4, 20
 578              	PWMD4:
 579 0000 00000000 		.space	20
 579      00000000 
 579      00000000 
 579      00000000 
 579      00000000 
 580              		.text
 581              	.Letext0:
 582              		.file 2 "c:/program files/yagarto/lib/gcc/../../arm-none-eabi/sys-include/stdint.h"
 583              		.file 3 "../../os/hal/platforms/STM32L1xx/stm32l1xx.h"
 584              		.file 4 "../../os/hal/platforms/STM32/stm32.h"
 585              		.file 5 "../../os/hal/include/pwm.h"
 586              		.file 6 "../../os/hal/platforms/STM32/pwm_lld.h"
 587              		.file 7 "../../os/ports/common/ARMCMx/CMSIS/include/core_cm3.h"
 588              		.file 8 "../../os/ports/common/ARMCMx/nvic.h"
 589              		.file 9 "../../os/ports/GCC/ARMCMx/chcore_v7m.h"