ARM GAS  C:\DOCUME~1\ADMINI~1\LOCALS~1\Temp\ccdXUKNs.s 			page 1


   1              		.syntax unified
   2              		.cpu cortex-m3
   3              		.fpu softvfp
   4              		.eabi_attribute 20, 1
   5              		.eabi_attribute 21, 1
   6              		.eabi_attribute 23, 3
   7              		.eabi_attribute 24, 1
   8              		.eabi_attribute 25, 1
   9              		.eabi_attribute 26, 1
  10              		.eabi_attribute 30, 2
  11              		.eabi_attribute 34, 1
  12              		.eabi_attribute 18, 4
  13              		.thumb
  14              		.file	"adc_lld.c"
  15              		.text
  16              	.Ltext0:
  17              		.cfi_sections	.debug_frame
  18              		.section	.text.adc_lld_serve_rx_interrupt,"ax",%progbits
  19              		.align	2
  20              		.thumb
  21              		.thumb_func
  22              		.type	adc_lld_serve_rx_interrupt, %function
  23              	adc_lld_serve_rx_interrupt:
  24              	.LFB62:
  25              		.file 1 "../../os/hal/platforms/STM32L1xx/adc_lld.c"
  26              		.loc 1 64 0
  27              		.cfi_startproc
  28              		@ args = 0, pretend = 0, frame = 0
  29              		@ frame_needed = 0, uses_anonymous_args = 0
  30              	.LVL0:
  31 0000 F8B5     		push	{r3, r4, r5, r6, r7, lr}
  32              	.LCFI0:
  33              		.cfi_def_cfa_offset 24
  34              		.cfi_offset 3, -24
  35              		.cfi_offset 4, -20
  36              		.cfi_offset 5, -16
  37              		.cfi_offset 6, -12
  38              		.cfi_offset 7, -8
  39              		.cfi_offset 14, -4
  40              		.loc 1 64 0
  41 0002 0D46     		mov	r5, r1
  42              		.loc 1 67 0
  43 0004 2907     		lsls	r1, r5, #28
  44              	.LVL1:
  45              		.loc 1 64 0
  46 0006 0446     		mov	r4, r0
  47              		.loc 1 67 0
  48 0008 2CD5     		bpl	.L2
  49              	.LVL2:
  50              	.LBB19:
  51              	.LBB20:
  52              		.loc 1 255 0
  53 000a C36A     		ldr	r3, [r0, #44]
  54              	.LBE20:
  55              	.LBE19:
  56              		.loc 1 70 0
  57 000c 0169     		ldr	r1, [r0, #16]
ARM GAS  C:\DOCUME~1\ADMINI~1\LOCALS~1\Temp\ccdXUKNs.s 			page 2


  58              	.LBB23:
  59              	.LBB21:
  60              		.loc 1 255 0
  61 000e 1A68     		ldr	r2, [r3, #0]
  62 0010 5D68     		ldr	r5, [r3, #4]
  63              	.LVL3:
  64 0012 1668     		ldr	r6, [r2, #0]
  65 0014 26F00106 		bic	r6, r6, #1
  66 0018 1660     		str	r6, [r2, #0]
  67 001a 1A7A     		ldrb	r2, [r3, #8]	@ zero_extendqisi2
  68 001c 0F26     		movs	r6, #15
  69 001e 06FA02F6 		lsl	r6, r6, r2
  70              		.loc 1 256 0
  71 0022 836A     		ldr	r3, [r0, #40]
  72              	.LBE21:
  73              	.LBE23:
  74              		.loc 1 70 0
  75 0024 CA68     		ldr	r2, [r1, #12]
  76              	.LBB24:
  77              	.LBB22:
  78              		.loc 1 255 0
  79 0026 2E60     		str	r6, [r5, #0]
  80              		.loc 1 256 0
  81 0028 0021     		movs	r1, #0
  82              		.loc 1 258 0
  83 002a 0125     		movs	r5, #1
  84              		.loc 1 256 0
  85 002c 5960     		str	r1, [r3, #4]
  86              		.loc 1 257 0
  87 002e 9960     		str	r1, [r3, #8]
  88              		.loc 1 258 0
  89 0030 9D60     		str	r5, [r3, #8]
  90              	.LBE22:
  91              	.LBE24:
  92              		.loc 1 70 0
  93 0032 2AB1     		cbz	r2, .L4
  94              		.loc 1 70 0 is_stmt 0 discriminator 1
  95 0034 0523     		movs	r3, #5
  96 0036 0370     		strb	r3, [r0, #0]
  97 0038 9047     		blx	r2
  98              	.LVL4:
  99 003a 2378     		ldrb	r3, [r4, #0]	@ zero_extendqisi2
 100 003c 052B     		cmp	r3, #5
 101 003e 65D0     		beq	.L37
 102              	.L4:
 103              		.loc 1 70 0 discriminator 2
 104 0040 0022     		movs	r2, #0
 105 0042 2261     		str	r2, [r4, #16]
 106              	.LBB25:
 107 0044 2023     		movs	r3, #32
 108              	.LVL5:
 109              	@ 70 "../../os/hal/platforms/STM32L1xx/adc_lld.c" 1
 110 0046 83F31188 		msr     BASEPRI, r3
 111              	@ 0 "" 2
 112              	.LVL6:
 113              		.thumb
 114              	.LBE25:
ARM GAS  C:\DOCUME~1\ADMINI~1\LOCALS~1\Temp\ccdXUKNs.s 			page 3


 115 004a 6369     		ldr	r3, [r4, #20]
 116              	.LVL7:
 117 004c 33B1     		cbz	r3, .L17
 118              	.LVL8:
 119              	.LBB26:
 120              		.loc 1 70 0 discriminator 4
 121 004e 6261     		str	r2, [r4, #20]
 122 0050 4FF0FF32 		mov	r2, #-1
 123 0054 1846     		mov	r0, r3
 124 0056 5A62     		str	r2, [r3, #36]
 125 0058 FFF7FEFF 		bl	chSchReadyI
 126              	.LVL9:
 127              	.L17:
 128              	.LBE26:
 129              	.LBB27:
 130              		.loc 1 82 0 is_stmt 1 discriminator 14
 131 005c 0023     		movs	r3, #0
 132              	.LVL10:
 133              	@ 82 "../../os/hal/platforms/STM32L1xx/adc_lld.c" 1
 134 005e 83F31188 		msr     BASEPRI, r3
 135              	@ 0 "" 2
 136              	.LVL11:
 137              		.thumb
 138              	.L1:
 139 0062 F8BD     		pop	{r3, r4, r5, r6, r7, pc}
 140              	.LVL12:
 141              	.L2:
 142              	.LBE27:
 143              		.loc 1 75 0
 144 0064 0369     		ldr	r3, [r0, #16]
 145 0066 002B     		cmp	r3, #0
 146 0068 FBD0     		beq	.L1
 147              		.loc 1 76 0
 148 006a 6A07     		lsls	r2, r5, #29
 149 006c 05D5     		bpl	.L9
 150              		.loc 1 78 0
 151 006e 9B68     		ldr	r3, [r3, #8]
 152 0070 1BB1     		cbz	r3, .L9
 153              		.loc 1 78 0 is_stmt 0 discriminator 1
 154 0072 C268     		ldr	r2, [r0, #12]
 155 0074 8168     		ldr	r1, [r0, #8]
 156 0076 5208     		lsrs	r2, r2, #1
 157 0078 9847     		blx	r3
 158              	.LVL13:
 159              	.L9:
 160              		.loc 1 80 0 is_stmt 1
 161 007a AB07     		lsls	r3, r5, #30
 162 007c F1D5     		bpl	.L1
 163              		.loc 1 82 0
 164 007e 2369     		ldr	r3, [r4, #16]
 165 0080 1A68     		ldr	r2, [r3, #0]
 166 0082 002A     		cmp	r2, #0
 167 0084 32D1     		bne	.L38
 168              	.LVL14:
 169              	.LBB28:
 170              	.LBB29:
 171              		.loc 1 255 0
ARM GAS  C:\DOCUME~1\ADMINI~1\LOCALS~1\Temp\ccdXUKNs.s 			page 4


 172 0086 E06A     		ldr	r0, [r4, #44]
 173              		.loc 1 256 0
 174 0088 A16A     		ldr	r1, [r4, #40]
 175              		.loc 1 255 0
 176 008a 90E86000 		ldmia	r0, {r5, r6}
 177              	.LVL15:
 178 008e 2F68     		ldr	r7, [r5, #0]
 179 0090 27F00107 		bic	r7, r7, #1
 180 0094 2F60     		str	r7, [r5, #0]
 181 0096 007A     		ldrb	r0, [r0, #8]	@ zero_extendqisi2
 182 0098 0F27     		movs	r7, #15
 183 009a 07FA00F0 		lsl	r0, r7, r0
 184              	.LBE29:
 185              	.LBE28:
 186              		.loc 1 82 0
 187 009e 9D68     		ldr	r5, [r3, #8]
 188              	.LBB31:
 189              	.LBB30:
 190              		.loc 1 255 0
 191 00a0 3060     		str	r0, [r6, #0]
 192              		.loc 1 256 0
 193 00a2 4A60     		str	r2, [r1, #4]
 194              		.loc 1 257 0
 195 00a4 8A60     		str	r2, [r1, #8]
 196              		.loc 1 258 0
 197 00a6 0122     		movs	r2, #1
 198 00a8 8A60     		str	r2, [r1, #8]
 199              	.LBE30:
 200              	.LBE31:
 201              		.loc 1 82 0
 202 00aa 002D     		cmp	r5, #0
 203 00ac 31D0     		beq	.L13
 204              		.loc 1 82 0 is_stmt 0 discriminator 6
 205 00ae E268     		ldr	r2, [r4, #12]
 206 00b0 0421     		movs	r1, #4
 207 00b2 012A     		cmp	r2, #1
 208 00b4 2170     		strb	r1, [r4, #0]
 209 00b6 33D9     		bls	.L14
 210              	.LBB32:
 211              		.loc 1 82 0 discriminator 8
 212 00b8 9988     		ldrh	r1, [r3, #4]
 213 00ba 5208     		lsrs	r2, r2, #1
 214              	.LVL16:
 215 00bc 01FB02F1 		mul	r1, r1, r2
 216 00c0 A368     		ldr	r3, [r4, #8]
 217              	.LVL17:
 218 00c2 2046     		mov	r0, r4
 219 00c4 03EB4101 		add	r1, r3, r1, lsl #1
 220 00c8 A847     		blx	r5
 221              	.LVL18:
 222              	.L15:
 223              	.LBE32:
 224              		.loc 1 82 0 discriminator 10
 225 00ca 2378     		ldrb	r3, [r4, #0]	@ zero_extendqisi2
 226 00cc 042B     		cmp	r3, #4
 227 00ce 20D0     		beq	.L13
 228              	.L16:
ARM GAS  C:\DOCUME~1\ADMINI~1\LOCALS~1\Temp\ccdXUKNs.s 			page 5


 229              		.loc 1 82 0 discriminator 12
 230 00d0 0022     		movs	r2, #0
 231 00d2 2261     		str	r2, [r4, #16]
 232              	.LBB33:
 233 00d4 2023     		movs	r3, #32
 234              	.LVL19:
 235              	@ 82 "../../os/hal/platforms/STM32L1xx/adc_lld.c" 1
 236 00d6 83F31188 		msr     BASEPRI, r3
 237              	@ 0 "" 2
 238              	.LVL20:
 239              		.thumb
 240              	.LBE33:
 241 00da 6369     		ldr	r3, [r4, #20]
 242              	.LVL21:
 243 00dc 002B     		cmp	r3, #0
 244 00de BDD0     		beq	.L17
 245              	.LVL22:
 246              	.LBB34:
 247              		.loc 1 82 0 discriminator 13
 248 00e0 6261     		str	r2, [r4, #20]
 249 00e2 1846     		mov	r0, r3
 250 00e4 5A62     		str	r2, [r3, #36]
 251 00e6 FFF7FEFF 		bl	chSchReadyI
 252              	.LVL23:
 253 00ea B7E7     		b	.L17
 254              	.LVL24:
 255              	.L38:
 256              	.LBE34:
 257              		.loc 1 82 0 discriminator 1
 258 00ec 9D68     		ldr	r5, [r3, #8]
 259              	.LVL25:
 260 00ee 002D     		cmp	r5, #0
 261 00f0 B7D0     		beq	.L1
 262              		.loc 1 82 0 discriminator 3
 263 00f2 E268     		ldr	r2, [r4, #12]
 264 00f4 012A     		cmp	r2, #1
 265 00f6 0FD9     		bls	.L12
 266              	.LBB35:
 267              		.loc 1 82 0 discriminator 4
 268 00f8 9988     		ldrh	r1, [r3, #4]
 269 00fa 5208     		lsrs	r2, r2, #1
 270              	.LVL26:
 271 00fc 01FB02F1 		mul	r1, r1, r2
 272 0100 A368     		ldr	r3, [r4, #8]
 273              	.LVL27:
 274 0102 2046     		mov	r0, r4
 275 0104 03EB4101 		add	r1, r3, r1, lsl #1
 276 0108 A847     		blx	r5
 277              	.LVL28:
 278 010a F8BD     		pop	{r3, r4, r5, r6, r7, pc}
 279              	.LVL29:
 280              	.L37:
 281              	.LBE35:
 282              		.loc 1 70 0 is_stmt 1 discriminator 3
 283 010c 0223     		movs	r3, #2
 284 010e 2370     		strb	r3, [r4, #0]
 285 0110 96E7     		b	.L4
ARM GAS  C:\DOCUME~1\ADMINI~1\LOCALS~1\Temp\ccdXUKNs.s 			page 6


 286              	.LVL30:
 287              	.L13:
 288              		.loc 1 82 0 discriminator 7
 289 0112 0223     		movs	r3, #2
 290 0114 2370     		strb	r3, [r4, #0]
 291 0116 DBE7     		b	.L16
 292              	.LVL31:
 293              	.L12:
 294              		.loc 1 82 0 is_stmt 0 discriminator 5
 295 0118 2046     		mov	r0, r4
 296 011a A168     		ldr	r1, [r4, #8]
 297 011c A847     		blx	r5
 298              	.LVL32:
 299 011e F8BD     		pop	{r3, r4, r5, r6, r7, pc}
 300              	.LVL33:
 301              	.L14:
 302              		.loc 1 82 0 discriminator 9
 303 0120 2046     		mov	r0, r4
 304 0122 A168     		ldr	r1, [r4, #8]
 305 0124 A847     		blx	r5
 306              	.LVL34:
 307 0126 D0E7     		b	.L15
 308              		.cfi_endproc
 309              	.LFE62:
 310              		.size	adc_lld_serve_rx_interrupt, .-adc_lld_serve_rx_interrupt
 311              		.section	.text.Vector88,"ax",%progbits
 312              		.align	2
 313              		.global	Vector88
 314              		.thumb
 315              		.thumb_func
 316              		.type	Vector88, %function
 317              	Vector88:
 318              	.LFB63:
 319              		.loc 1 98 0 is_stmt 1
 320              		.cfi_startproc
 321              		@ args = 0, pretend = 0, frame = 0
 322              		@ frame_needed = 0, uses_anonymous_args = 0
 323 0000 F8B5     		push	{r3, r4, r5, r6, r7, lr}
 324              	.LCFI1:
 325              		.cfi_def_cfa_offset 24
 326              		.cfi_offset 3, -24
 327              		.cfi_offset 4, -20
 328              		.cfi_offset 5, -16
 329              		.cfi_offset 6, -12
 330              		.cfi_offset 7, -8
 331              		.cfi_offset 14, -4
 332              		.loc 1 103 0
 333 0002 4FF41053 		mov	r3, #9216
 334 0006 C4F20103 		movt	r3, 16385
 335 000a 1968     		ldr	r1, [r3, #0]
 336              	.LVL35:
 337              		.loc 1 104 0
 338 000c 0022     		movs	r2, #0
 339              		.loc 1 107 0
 340 000e 8806     		lsls	r0, r1, #26
 341              		.loc 1 104 0
 342 0010 1A60     		str	r2, [r3, #0]
ARM GAS  C:\DOCUME~1\ADMINI~1\LOCALS~1\Temp\ccdXUKNs.s 			page 7


 343              		.loc 1 107 0
 344 0012 2FD5     		bpl	.L40
 345              		.loc 1 107 0 is_stmt 0 discriminator 1
 346 0014 1B4C     		ldr	r4, .L58
 347 0016 E36A     		ldr	r3, [r4, #44]
 348 0018 1968     		ldr	r1, [r3, #0]
 349              	.LVL36:
 350 001a 4868     		ldr	r0, [r1, #4]
 351 001c 50B3     		cbz	r0, .L40
 352              		.loc 1 110 0 is_stmt 1
 353 001e 2069     		ldr	r0, [r4, #16]
 354 0020 40B3     		cbz	r0, .L40
 355              	.LVL37:
 356              	.LBB36:
 357              	.LBB37:
 358              		.loc 1 255 0
 359 0022 0D68     		ldr	r5, [r1, #0]
 360 0024 0F27     		movs	r7, #15
 361 0026 25F00105 		bic	r5, r5, #1
 362 002a 0D60     		str	r5, [r1, #0]
 363 002c 197A     		ldrb	r1, [r3, #8]	@ zero_extendqisi2
 364              	.LBE37:
 365              	.LBE36:
 366              		.loc 1 111 0
 367 002e C568     		ldr	r5, [r0, #12]
 368              	.LBB39:
 369              	.LBB38:
 370              		.loc 1 255 0
 371 0030 07FA01F7 		lsl	r7, r7, r1
 372 0034 5E68     		ldr	r6, [r3, #4]
 373              		.loc 1 256 0
 374 0036 A36A     		ldr	r3, [r4, #40]
 375              		.loc 1 258 0
 376 0038 0121     		movs	r1, #1
 377              		.loc 1 255 0
 378 003a 3760     		str	r7, [r6, #0]
 379              		.loc 1 256 0
 380 003c 5A60     		str	r2, [r3, #4]
 381              		.loc 1 257 0
 382 003e 9A60     		str	r2, [r3, #8]
 383              		.loc 1 258 0
 384 0040 9960     		str	r1, [r3, #8]
 385              	.LBE38:
 386              	.LBE39:
 387              		.loc 1 111 0
 388 0042 35B1     		cbz	r5, .L42
 389              		.loc 1 111 0 is_stmt 0 discriminator 1
 390 0044 0523     		movs	r3, #5
 391 0046 2370     		strb	r3, [r4, #0]
 392 0048 2046     		mov	r0, r4
 393 004a A847     		blx	r5
 394              	.LVL38:
 395 004c 2378     		ldrb	r3, [r4, #0]	@ zero_extendqisi2
 396 004e 052B     		cmp	r3, #5
 397 0050 14D0     		beq	.L57
 398              	.L42:
 399              		.loc 1 111 0 discriminator 2
ARM GAS  C:\DOCUME~1\ADMINI~1\LOCALS~1\Temp\ccdXUKNs.s 			page 8


 400 0052 0022     		movs	r2, #0
 401 0054 2261     		str	r2, [r4, #16]
 402              	.LBB40:
 403 0056 2023     		movs	r3, #32
 404              	.LVL39:
 405              	@ 111 "../../os/hal/platforms/STM32L1xx/adc_lld.c" 1
 406 0058 83F31188 		msr     BASEPRI, r3
 407              	@ 0 "" 2
 408              	.LVL40:
 409              		.thumb
 410              	.LBE40:
 411 005c 6069     		ldr	r0, [r4, #20]
 412 005e 30B1     		cbz	r0, .L44
 413              	.LVL41:
 414              	.LBB41:
 415              		.loc 1 111 0 discriminator 4
 416 0060 4FF0FF33 		mov	r3, #-1
 417              	.LVL42:
 418 0064 4362     		str	r3, [r0, #36]
 419 0066 074B     		ldr	r3, .L58
 420 0068 5A61     		str	r2, [r3, #20]
 421 006a FFF7FEFF 		bl	chSchReadyI
 422              	.LVL43:
 423              	.L44:
 424              	.LBE41:
 425              	.LBB42:
 426              		.loc 1 111 0 discriminator 5
 427 006e 0023     		movs	r3, #0
 428              	.LVL44:
 429              	@ 111 "../../os/hal/platforms/STM32L1xx/adc_lld.c" 1
 430 0070 83F31188 		msr     BASEPRI, r3
 431              	@ 0 "" 2
 432              	.LVL45:
 433              		.thumb
 434              	.L40:
 435              	.LBE42:
 436              		.loc 1 116 0 is_stmt 1
 437 0074 BDE8F840 		pop	{r3, r4, r5, r6, r7, lr}
 438              		.loc 1 115 0
 439 0078 FFF7FEBF 		b	_port_irq_epilogue
 440              	.LVL46:
 441              	.L57:
 442              		.loc 1 111 0 discriminator 3
 443 007c 0223     		movs	r3, #2
 444 007e 2370     		strb	r3, [r4, #0]
 445 0080 E7E7     		b	.L42
 446              	.L59:
 447 0082 00BF     		.align	2
 448              	.L58:
 449 0084 00000000 		.word	.LANCHOR0
 450              		.cfi_endproc
 451              	.LFE63:
 452              		.size	Vector88, .-Vector88
 453              		.section	.text.adc_lld_init,"ax",%progbits
 454              		.align	2
 455              		.global	adc_lld_init
 456              		.thumb
ARM GAS  C:\DOCUME~1\ADMINI~1\LOCALS~1\Temp\ccdXUKNs.s 			page 9


 457              		.thumb_func
 458              		.type	adc_lld_init, %function
 459              	adc_lld_init:
 460              	.LFB64:
 461              		.loc 1 128 0
 462              		.cfi_startproc
 463              		@ args = 0, pretend = 0, frame = 0
 464              		@ frame_needed = 0, uses_anonymous_args = 0
 465 0000 10B5     		push	{r4, lr}
 466              	.LCFI2:
 467              		.cfi_def_cfa_offset 8
 468              		.cfi_offset 4, -8
 469              		.cfi_offset 14, -4
 470              		.loc 1 132 0
 471 0002 40F20004 		movw	r4, #:lower16:.LANCHOR0
 472 0006 C0F20004 		movt	r4, #:upper16:.LANCHOR0
 473 000a 2046     		mov	r0, r4
 474 000c FFF7FEFF 		bl	adcObjectInit
 475              	.LVL47:
 476              		.loc 1 133 0
 477 0010 4FF41053 		mov	r3, #9216
 478 0014 C4F20103 		movt	r3, 16385
 479 0018 A362     		str	r3, [r4, #40]
 480              		.loc 1 134 0
 481 001a 40F20003 		movw	r3, #:lower16:_stm32_dma_streams
 482 001e C0F20003 		movt	r3, #:upper16:_stm32_dma_streams
 483 0022 E362     		str	r3, [r4, #44]
 484              		.loc 1 144 0
 485 0024 1220     		movs	r0, #18
 486              		.loc 1 135 0
 487 0026 42F28A53 		movw	r3, #9610
 488              		.loc 1 144 0
 489 002a 5021     		movs	r1, #80
 490              		.loc 1 135 0
 491 002c 2363     		str	r3, [r4, #48]
 492              		.loc 1 145 0
 493 002e BDE81040 		pop	{r4, lr}
 494              		.loc 1 144 0
 495 0032 FFF7FEBF 		b	nvicEnableVector
 496              	.LVL48:
 497              		.cfi_endproc
 498              	.LFE64:
 499              		.size	adc_lld_init, .-adc_lld_init
 500 0036 00BF     		.section	.text.adc_lld_start,"ax",%progbits
 501              		.align	2
 502              		.global	adc_lld_start
 503              		.thumb
 504              		.thumb_func
 505              		.type	adc_lld_start, %function
 506              	adc_lld_start:
 507              	.LFB65:
 508              		.loc 1 154 0
 509              		.cfi_startproc
 510              		@ args = 0, pretend = 0, frame = 0
 511              		@ frame_needed = 0, uses_anonymous_args = 0
 512              	.LVL49:
 513              		.loc 1 157 0
ARM GAS  C:\DOCUME~1\ADMINI~1\LOCALS~1\Temp\ccdXUKNs.s 			page 10


 514 0000 0378     		ldrb	r3, [r0, #0]	@ zero_extendqisi2
 515              		.loc 1 154 0
 516 0002 10B5     		push	{r4, lr}
 517              	.LCFI3:
 518              		.cfi_def_cfa_offset 8
 519              		.cfi_offset 4, -8
 520              		.cfi_offset 14, -4
 521              		.loc 1 157 0
 522 0004 012B     		cmp	r3, #1
 523              		.loc 1 154 0
 524 0006 0446     		mov	r4, r0
 525              		.loc 1 157 0
 526 0008 00D0     		beq	.L64
 527 000a 10BD     		pop	{r4, pc}
 528              	.L64:
 529              		.loc 1 159 0
 530 000c 0F4B     		ldr	r3, .L66
 531 000e 9842     		cmp	r0, r3
 532 0010 06D0     		beq	.L65
 533              	.LVL50:
 534              	.L63:
 535              		.loc 1 173 0
 536 0012 A36A     		ldr	r3, [r4, #40]
 537 0014 0022     		movs	r2, #0
 538 0016 5A60     		str	r2, [r3, #4]
 539              		.loc 1 174 0
 540 0018 9A60     		str	r2, [r3, #8]
 541              		.loc 1 175 0
 542 001a 0122     		movs	r2, #1
 543 001c 9A60     		str	r2, [r3, #8]
 544 001e 10BD     		pop	{r4, pc}
 545              	.LVL51:
 546              	.L65:
 547              	.LBB43:
 548              		.loc 1 161 0
 549 0020 0521     		movs	r1, #5
 550 0022 0B4A     		ldr	r2, .L66+4
 551 0024 2346     		mov	r3, r4
 552 0026 C06A     		ldr	r0, [r0, #44]
 553              	.LVL52:
 554 0028 FFF7FEFF 		bl	dmaStreamAllocate
 555              	.LVL53:
 556              		.loc 1 166 0
 557 002c E36A     		ldr	r3, [r4, #44]
 558 002e 42F25842 		movw	r2, #9304
 559 0032 1968     		ldr	r1, [r3, #0]
 560 0034 C4F20102 		movt	r2, 16385
 561              		.loc 1 167 0
 562 0038 4FF46053 		mov	r3, #14336
 563              		.loc 1 166 0
 564 003c 8A60     		str	r2, [r1, #8]
 565              		.loc 1 167 0
 566 003e C4F20203 		movt	r3, 16386
 567 0042 1A6A     		ldr	r2, [r3, #32]
 568 0044 42F40072 		orr	r2, r2, #512
 569 0048 1A62     		str	r2, [r3, #32]
 570 004a E2E7     		b	.L63
ARM GAS  C:\DOCUME~1\ADMINI~1\LOCALS~1\Temp\ccdXUKNs.s 			page 11


 571              	.L67:
 572              		.align	2
 573              	.L66:
 574 004c 00000000 		.word	.LANCHOR0
 575 0050 00000000 		.word	adc_lld_serve_rx_interrupt
 576              	.LBE43:
 577              		.cfi_endproc
 578              	.LFE65:
 579              		.size	adc_lld_start, .-adc_lld_start
 580              		.section	.text.adc_lld_stop,"ax",%progbits
 581              		.align	2
 582              		.global	adc_lld_stop
 583              		.thumb
 584              		.thumb_func
 585              		.type	adc_lld_stop, %function
 586              	adc_lld_stop:
 587              	.LFB66:
 588              		.loc 1 186 0
 589              		.cfi_startproc
 590              		@ args = 0, pretend = 0, frame = 0
 591              		@ frame_needed = 0, uses_anonymous_args = 0
 592              	.LVL54:
 593              		.loc 1 189 0
 594 0000 0378     		ldrb	r3, [r0, #0]	@ zero_extendqisi2
 595              		.loc 1 186 0
 596 0002 10B5     		push	{r4, lr}
 597              	.LCFI4:
 598              		.cfi_def_cfa_offset 8
 599              		.cfi_offset 4, -8
 600              		.cfi_offset 14, -4
 601              		.loc 1 189 0
 602 0004 022B     		cmp	r3, #2
 603              		.loc 1 186 0
 604 0006 0446     		mov	r4, r0
 605              		.loc 1 189 0
 606 0008 00D0     		beq	.L72
 607 000a 10BD     		pop	{r4, pc}
 608              	.L72:
 609              		.loc 1 190 0
 610 000c C06A     		ldr	r0, [r0, #44]
 611              	.LVL55:
 612 000e FFF7FEFF 		bl	dmaStreamRelease
 613              	.LVL56:
 614              		.loc 1 191 0
 615 0012 A36A     		ldr	r3, [r4, #40]
 616 0014 0022     		movs	r2, #0
 617 0016 5A60     		str	r2, [r3, #4]
 618              		.loc 1 192 0
 619 0018 9A60     		str	r2, [r3, #8]
 620              		.loc 1 195 0
 621 001a 064B     		ldr	r3, .L73
 622 001c 9C42     		cmp	r4, r3
 623              		.loc 1 196 0
 624 001e 01BF     		itttt	eq
 625 0020 4FF46053 		moveq	r3, #14336
 626 0024 C4F20203 		movteq	r3, 16386
 627 0028 1A6A     		ldreq	r2, [r3, #32]
ARM GAS  C:\DOCUME~1\ADMINI~1\LOCALS~1\Temp\ccdXUKNs.s 			page 12


 628 002a 22F40072 		biceq	r2, r2, #512
 629 002e 08BF     		it	eq
 630 0030 1A62     		streq	r2, [r3, #32]
 631 0032 10BD     		pop	{r4, pc}
 632              	.L74:
 633              		.align	2
 634              	.L73:
 635 0034 00000000 		.word	.LANCHOR0
 636              		.cfi_endproc
 637              	.LFE66:
 638              		.size	adc_lld_stop, .-adc_lld_stop
 639              		.section	.text.adc_lld_start_conversion,"ax",%progbits
 640              		.align	2
 641              		.global	adc_lld_start_conversion
 642              		.thumb
 643              		.thumb_func
 644              		.type	adc_lld_start_conversion, %function
 645              	adc_lld_start_conversion:
 646              	.LFB67:
 647              		.loc 1 208 0
 648              		.cfi_startproc
 649              		@ args = 0, pretend = 0, frame = 0
 650              		@ frame_needed = 0, uses_anonymous_args = 0
 651              		@ link register save eliminated.
 652              	.LVL57:
 653              		.loc 1 210 0
 654 0000 0369     		ldr	r3, [r0, #16]
 655              	.LVL58:
 656              		.loc 1 208 0
 657 0002 2DE9F00F 		push	{r4, r5, r6, r7, r8, r9, sl, fp}
 658              	.LCFI5:
 659              		.cfi_def_cfa_offset 32
 660              		.cfi_offset 4, -32
 661              		.cfi_offset 5, -28
 662              		.cfi_offset 6, -24
 663              		.cfi_offset 7, -20
 664              		.cfi_offset 8, -16
 665              		.cfi_offset 9, -12
 666              		.cfi_offset 10, -8
 667              		.cfi_offset 11, -4
 668              		.loc 1 214 0
 669 0006 1968     		ldr	r1, [r3, #0]
 670              		.loc 1 213 0
 671 0008 026B     		ldr	r2, [r0, #48]
 672              	.LVL59:
 673              		.loc 1 214 0
 674 000a 09B1     		cbz	r1, .L76
 675              		.loc 1 215 0
 676 000c 42F02002 		orr	r2, r2, #32
 677              	.LVL60:
 678              	.L76:
 679              		.loc 1 217 0
 680 0010 C168     		ldr	r1, [r0, #12]
 681              		.loc 1 223 0
 682 0012 9D88     		ldrh	r5, [r3, #4]
 683              		.loc 1 222 0
 684 0014 C46A     		ldr	r4, [r0, #44]
ARM GAS  C:\DOCUME~1\ADMINI~1\LOCALS~1\Temp\ccdXUKNs.s 			page 13


 685              		.loc 1 223 0
 686 0016 01FB05F5 		mul	r5, r1, r5
 687              		.loc 1 217 0
 688 001a 0129     		cmp	r1, #1
 689              		.loc 1 222 0
 690 001c 2168     		ldr	r1, [r4, #0]
 691 001e 8468     		ldr	r4, [r0, #8]
 692              		.loc 1 220 0
 693 0020 88BF     		it	hi
 694 0022 42F00402 		orrhi	r2, r2, #4
 695              	.LVL61:
 696              		.loc 1 241 0
 697 0026 D3F81090 		ldr	r9, [r3, #16]
 698              		.loc 1 243 0
 699 002a D3F81480 		ldr	r8, [r3, #20]
 700              		.loc 1 222 0
 701 002e CC60     		str	r4, [r1, #12]
 702              		.loc 1 223 0
 703 0030 4D60     		str	r5, [r1, #4]
 704              		.loc 1 225 0
 705 0032 0A60     		str	r2, [r1, #0]
 706              		.loc 1 226 0
 707 0034 D1F800A0 		ldr	sl, [r1, #0]
 708              		.loc 1 229 0
 709 0038 826A     		ldr	r2, [r0, #40]
 710              	.LVL62:
 711              		.loc 1 230 0
 712 003a D3F818B0 		ldr	fp, [r3, #24]
 713              		.loc 1 231 0
 714 003e D3F81CC0 		ldr	ip, [r3, #28]
 715              		.loc 1 232 0
 716 0042 1F6A     		ldr	r7, [r3, #32]
 717              		.loc 1 233 0
 718 0044 5E6A     		ldr	r6, [r3, #36]
 719              		.loc 1 234 0
 720 0046 9D6A     		ldr	r5, [r3, #40]
 721              		.loc 1 235 0
 722 0048 DC6A     		ldr	r4, [r3, #44]
 723              		.loc 1 236 0
 724 004a 186B     		ldr	r0, [r3, #48]
 725              	.LVL63:
 726              		.loc 1 241 0
 727 004c 49F08069 		orr	r9, r9, #67108864
 728              		.loc 1 237 0
 729 0050 5B6B     		ldr	r3, [r3, #52]
 730              	.LVL64:
 731              		.loc 1 243 0
 732 0052 48F44078 		orr	r8, r8, #768
 733              		.loc 1 226 0
 734 0056 4AF0010A 		orr	sl, sl, #1
 735 005a C1F800A0 		str	sl, [r1, #0]
 736              		.loc 1 241 0
 737 005e 49F48079 		orr	r9, r9, #256
 738              		.loc 1 243 0
 739 0062 48F00308 		orr	r8, r8, #3
 740              		.loc 1 229 0
 741 0066 0021     		movs	r1, #0
ARM GAS  C:\DOCUME~1\ADMINI~1\LOCALS~1\Temp\ccdXUKNs.s 			page 14


 742              	.LVL65:
 743 0068 1160     		str	r1, [r2, #0]
 744              		.loc 1 230 0
 745 006a C2F80CB0 		str	fp, [r2, #12]
 746              		.loc 1 231 0
 747 006e C2F810C0 		str	ip, [r2, #16]
 748              		.loc 1 232 0
 749 0072 5761     		str	r7, [r2, #20]
 750              		.loc 1 233 0
 751 0074 1663     		str	r6, [r2, #48]
 752              		.loc 1 234 0
 753 0076 5563     		str	r5, [r2, #52]
 754              		.loc 1 235 0
 755 0078 9463     		str	r4, [r2, #56]
 756              		.loc 1 236 0
 757 007a D063     		str	r0, [r2, #60]
 758              		.loc 1 237 0
 759 007c 1364     		str	r3, [r2, #64]
 760              		.loc 1 241 0
 761 007e C2F80490 		str	r9, [r2, #4]
 762              		.loc 1 242 0
 763 0082 C2F80880 		str	r8, [r2, #8]
 764              		.loc 1 244 0
 765 0086 BDE8F00F 		pop	{r4, r5, r6, r7, r8, r9, sl, fp}
 766 008a 7047     		bx	lr
 767              		.cfi_endproc
 768              	.LFE67:
 769              		.size	adc_lld_start_conversion, .-adc_lld_start_conversion
 770              		.section	.text.adc_lld_stop_conversion,"ax",%progbits
 771              		.align	2
 772              		.global	adc_lld_stop_conversion
 773              		.thumb
 774              		.thumb_func
 775              		.type	adc_lld_stop_conversion, %function
 776              	adc_lld_stop_conversion:
 777              	.LFB68:
 778              		.loc 1 253 0
 779              		.cfi_startproc
 780              		@ args = 0, pretend = 0, frame = 0
 781              		@ frame_needed = 0, uses_anonymous_args = 0
 782              		@ link register save eliminated.
 783              	.LVL66:
 784              		.loc 1 255 0
 785 0000 C26A     		ldr	r2, [r0, #44]
 786              		.loc 1 253 0
 787 0002 30B4     		push	{r4, r5}
 788              	.LCFI6:
 789              		.cfi_def_cfa_offset 8
 790              		.cfi_offset 4, -8
 791              		.cfi_offset 5, -4
 792              		.loc 1 255 0
 793 0004 92E81200 		ldmia	r2, {r1, r4}
 794 0008 0D68     		ldr	r5, [r1, #0]
 795              		.loc 1 256 0
 796 000a 836A     		ldr	r3, [r0, #40]
 797              		.loc 1 255 0
 798 000c 25F00100 		bic	r0, r5, #1
ARM GAS  C:\DOCUME~1\ADMINI~1\LOCALS~1\Temp\ccdXUKNs.s 			page 15


 799              	.LVL67:
 800 0010 0860     		str	r0, [r1, #0]
 801 0012 117A     		ldrb	r1, [r2, #8]	@ zero_extendqisi2
 802 0014 0F20     		movs	r0, #15
 803 0016 00FA01F1 		lsl	r1, r0, r1
 804              		.loc 1 256 0
 805 001a 0022     		movs	r2, #0
 806              		.loc 1 255 0
 807 001c 2160     		str	r1, [r4, #0]
 808              		.loc 1 256 0
 809 001e 5A60     		str	r2, [r3, #4]
 810              		.loc 1 257 0
 811 0020 9A60     		str	r2, [r3, #8]
 812              		.loc 1 258 0
 813 0022 0122     		movs	r2, #1
 814 0024 9A60     		str	r2, [r3, #8]
 815              		.loc 1 259 0
 816 0026 30BC     		pop	{r4, r5}
 817 0028 7047     		bx	lr
 818              		.cfi_endproc
 819              	.LFE68:
 820              		.size	adc_lld_stop_conversion, .-adc_lld_stop_conversion
 821 002a 00BF     		.section	.text.adcSTM32EnableTSVREFE,"ax",%progbits
 822              		.align	2
 823              		.global	adcSTM32EnableTSVREFE
 824              		.thumb
 825              		.thumb_func
 826              		.type	adcSTM32EnableTSVREFE, %function
 827              	adcSTM32EnableTSVREFE:
 828              	.LFB69:
 829              		.loc 1 267 0
 830              		.cfi_startproc
 831              		@ args = 0, pretend = 0, frame = 0
 832              		@ frame_needed = 0, uses_anonymous_args = 0
 833              		@ link register save eliminated.
 834              		.loc 1 269 0
 835 0000 4FF41C53 		mov	r3, #9984
 836 0004 C4F20103 		movt	r3, 16385
 837 0008 5A68     		ldr	r2, [r3, #4]
 838 000a 42F40002 		orr	r2, r2, #8388608
 839 000e 5A60     		str	r2, [r3, #4]
 840 0010 7047     		bx	lr
 841              		.cfi_endproc
 842              	.LFE69:
 843              		.size	adcSTM32EnableTSVREFE, .-adcSTM32EnableTSVREFE
 844 0012 00BF     		.section	.text.adcSTM32DisableTSVREFE,"ax",%progbits
 845              		.align	2
 846              		.global	adcSTM32DisableTSVREFE
 847              		.thumb
 848              		.thumb_func
 849              		.type	adcSTM32DisableTSVREFE, %function
 850              	adcSTM32DisableTSVREFE:
 851              	.LFB70:
 852              		.loc 1 278 0
 853              		.cfi_startproc
 854              		@ args = 0, pretend = 0, frame = 0
 855              		@ frame_needed = 0, uses_anonymous_args = 0
ARM GAS  C:\DOCUME~1\ADMINI~1\LOCALS~1\Temp\ccdXUKNs.s 			page 16


 856              		@ link register save eliminated.
 857              		.loc 1 280 0
 858 0000 4FF41C53 		mov	r3, #9984
 859 0004 C4F20103 		movt	r3, 16385
 860 0008 5A68     		ldr	r2, [r3, #4]
 861 000a 22F40002 		bic	r2, r2, #8388608
 862 000e 5A60     		str	r2, [r3, #4]
 863 0010 7047     		bx	lr
 864              		.cfi_endproc
 865              	.LFE70:
 866              		.size	adcSTM32DisableTSVREFE, .-adcSTM32DisableTSVREFE
 867              		.global	ADCD1
 868 0012 00BF     		.section	.bss.ADCD1,"aw",%nobits
 869              		.align	2
 870              		.set	.LANCHOR0,. + 0
 871              		.type	ADCD1, %object
 872              		.size	ADCD1, 52
 873              	ADCD1:
 874 0000 00000000 		.space	52
 874      00000000 
 874      00000000 
 874      00000000 
 874      00000000 
 875              		.text
 876              	.Letext0:
 877              		.file 2 "c:\\program files\\yagarto\\bin\\../lib/gcc/arm-none-eabi/4.7.1/include/stddef.h"
 878              		.file 3 "c:/program files/yagarto/lib/gcc/../../arm-none-eabi/sys-include/stdint.h"
 879              		.file 4 "../../os/ports/GCC/ARMCMx/chtypes.h"
 880              		.file 5 "../../os/kernel/include/chlists.h"
 881              		.file 6 "../../os/kernel/include/chthreads.h"
 882              		.file 7 "../../os/ports/GCC/ARMCMx/chcore_v7m.h"
 883              		.file 8 "../../os/kernel/include/chmtx.h"
 884              		.file 9 "../../os/hal/platforms/STM32L1xx/stm32l1xx.h"
 885              		.file 10 "../../os/hal/platforms/STM32L1xx/stm32_dma.h"
 886              		.file 11 "../../os/hal/include/adc.h"
 887              		.file 12 "../../os/hal/platforms/STM32L1xx/adc_lld.h"
 888              		.file 13 "../../os/ports/common/ARMCMx/CMSIS/include/core_cm3.h"
 889              		.file 14 "../../os/ports/common/ARMCMx/nvic.h"
 890              		.file 15 "../../os/kernel/include/chschd.h"