ARM GAS  C:\DOCUME~1\ADMINI~1\LOCALS~1\Temp\ccAypmcL.s 			page 1


   1              		.syntax unified
   2              		.cpu cortex-m3
   3              		.fpu softvfp
   4              		.eabi_attribute 20, 1
   5              		.eabi_attribute 21, 1
   6              		.eabi_attribute 23, 3
   7              		.eabi_attribute 24, 1
   8              		.eabi_attribute 25, 1
   9              		.eabi_attribute 26, 1
  10              		.eabi_attribute 30, 2
  11              		.eabi_attribute 34, 1
  12              		.eabi_attribute 18, 4
  13              		.thumb
  14              		.file	"spi.c"
  15              		.text
  16              	.Ltext0:
  17              		.cfi_sections	.debug_frame
  18              		.section	.text.spiInit,"ax",%progbits
  19              		.align	2
  20              		.global	spiInit
  21              		.thumb
  22              		.thumb_func
  23              		.type	spiInit, %function
  24              	spiInit:
  25              	.LFB62:
  26              		.file 1 "../../os/hal/src/spi.c"
  27              		.loc 1 68 0
  28              		.cfi_startproc
  29              		@ args = 0, pretend = 0, frame = 0
  30              		@ frame_needed = 0, uses_anonymous_args = 0
  31              		@ link register save eliminated.
  32              		.loc 1 71 0
  33              		.loc 1 70 0
  34 0000 FFF7FEBF 		b	spi_lld_init
  35              	.LVL0:
  36              		.cfi_endproc
  37              	.LFE62:
  38              		.size	spiInit, .-spiInit
  39              		.section	.text.spiObjectInit,"ax",%progbits
  40              		.align	2
  41              		.global	spiObjectInit
  42              		.thumb
  43              		.thumb_func
  44              		.type	spiObjectInit, %function
  45              	spiObjectInit:
  46              	.LFB63:
  47              		.loc 1 80 0
  48              		.cfi_startproc
  49              		@ args = 0, pretend = 0, frame = 0
  50              		@ frame_needed = 0, uses_anonymous_args = 0
  51              		@ link register save eliminated.
  52              	.LVL1:
  53              		.loc 1 83 0
  54 0000 0023     		movs	r3, #0
  55              		.loc 1 82 0
  56 0002 0122     		movs	r2, #1
  57 0004 0270     		strb	r2, [r0, #0]
ARM GAS  C:\DOCUME~1\ADMINI~1\LOCALS~1\Temp\ccAypmcL.s 			page 2


  58              		.loc 1 83 0
  59 0006 4360     		str	r3, [r0, #4]
  60              		.loc 1 85 0
  61 0008 8360     		str	r3, [r0, #8]
  62              		.loc 1 89 0
  63 000a 0C30     		adds	r0, r0, #12
  64              	.LVL2:
  65              		.loc 1 97 0
  66              		.loc 1 89 0
  67 000c FFF7FEBF 		b	chMtxInit
  68              	.LVL3:
  69              		.cfi_endproc
  70              	.LFE63:
  71              		.size	spiObjectInit, .-spiObjectInit
  72              		.section	.text.spiStart,"ax",%progbits
  73              		.align	2
  74              		.global	spiStart
  75              		.thumb
  76              		.thumb_func
  77              		.type	spiStart, %function
  78              	spiStart:
  79              	.LFB64:
  80              		.loc 1 107 0
  81              		.cfi_startproc
  82              		@ args = 0, pretend = 0, frame = 0
  83              		@ frame_needed = 0, uses_anonymous_args = 0
  84              	.LVL4:
  85 0000 10B5     		push	{r4, lr}
  86              	.LCFI0:
  87              		.cfi_def_cfa_offset 8
  88              		.cfi_offset 4, -8
  89              		.cfi_offset 14, -4
  90              	.LBB2:
  91              		.loc 1 111 0
  92 0002 2023     		movs	r3, #32
  93              	.LVL5:
  94              	.LBE2:
  95              		.loc 1 107 0
  96 0004 0446     		mov	r4, r0
  97              	.LBB3:
  98              		.loc 1 111 0
  99              	@ 111 "../../os/hal/src/spi.c" 1
 100 0006 83F31188 		msr     BASEPRI, r3
 101              	@ 0 "" 2
 102              	.LVL6:
 103              		.thumb
 104              	.LBE3:
 105              		.loc 1 114 0
 106 000a 4160     		str	r1, [r0, #4]
 107              		.loc 1 115 0
 108 000c FFF7FEFF 		bl	spi_lld_start
 109              	.LVL7:
 110              		.loc 1 116 0
 111 0010 0223     		movs	r3, #2
 112 0012 2370     		strb	r3, [r4, #0]
 113              	.LBB4:
 114              		.loc 1 117 0
ARM GAS  C:\DOCUME~1\ADMINI~1\LOCALS~1\Temp\ccAypmcL.s 			page 3


 115 0014 0023     		movs	r3, #0
 116              	.LVL8:
 117              	@ 117 "../../os/hal/src/spi.c" 1
 118 0016 83F31188 		msr     BASEPRI, r3
 119              	@ 0 "" 2
 120              	.LVL9:
 121              		.thumb
 122 001a 10BD     		pop	{r4, pc}
 123              	.LBE4:
 124              		.cfi_endproc
 125              	.LFE64:
 126              		.size	spiStart, .-spiStart
 127              		.section	.text.spiStop,"ax",%progbits
 128              		.align	2
 129              		.global	spiStop
 130              		.thumb
 131              		.thumb_func
 132              		.type	spiStop, %function
 133              	spiStop:
 134              	.LFB65:
 135              		.loc 1 129 0
 136              		.cfi_startproc
 137              		@ args = 0, pretend = 0, frame = 0
 138              		@ frame_needed = 0, uses_anonymous_args = 0
 139              	.LVL10:
 140 0000 10B5     		push	{r4, lr}
 141              	.LCFI1:
 142              		.cfi_def_cfa_offset 8
 143              		.cfi_offset 4, -8
 144              		.cfi_offset 14, -4
 145              	.LBB5:
 146              		.loc 1 133 0
 147 0002 2023     		movs	r3, #32
 148              	.LVL11:
 149              	.LBE5:
 150              		.loc 1 129 0
 151 0004 0446     		mov	r4, r0
 152              	.LBB6:
 153              		.loc 1 133 0
 154              	@ 133 "../../os/hal/src/spi.c" 1
 155 0006 83F31188 		msr     BASEPRI, r3
 156              	@ 0 "" 2
 157              	.LVL12:
 158              		.thumb
 159              	.LBE6:
 160              		.loc 1 136 0
 161 000a FFF7FEFF 		bl	spi_lld_unselect
 162              	.LVL13:
 163              		.loc 1 137 0
 164 000e 2046     		mov	r0, r4
 165 0010 FFF7FEFF 		bl	spi_lld_stop
 166              	.LVL14:
 167              		.loc 1 138 0
 168 0014 0123     		movs	r3, #1
 169 0016 2370     		strb	r3, [r4, #0]
 170              	.LBB7:
 171              		.loc 1 139 0
ARM GAS  C:\DOCUME~1\ADMINI~1\LOCALS~1\Temp\ccAypmcL.s 			page 4


 172 0018 0023     		movs	r3, #0
 173              	.LVL15:
 174              	@ 139 "../../os/hal/src/spi.c" 1
 175 001a 83F31188 		msr     BASEPRI, r3
 176              	@ 0 "" 2
 177              	.LVL16:
 178              		.thumb
 179 001e 10BD     		pop	{r4, pc}
 180              	.LBE7:
 181              		.cfi_endproc
 182              	.LFE65:
 183              		.size	spiStop, .-spiStop
 184              		.section	.text.spiSelect,"ax",%progbits
 185              		.align	2
 186              		.global	spiSelect
 187              		.thumb
 188              		.thumb_func
 189              		.type	spiSelect, %function
 190              	spiSelect:
 191              	.LFB66:
 192              		.loc 1 149 0
 193              		.cfi_startproc
 194              		@ args = 0, pretend = 0, frame = 0
 195              		@ frame_needed = 0, uses_anonymous_args = 0
 196              	.LVL17:
 197 0000 08B5     		push	{r3, lr}
 198              	.LCFI2:
 199              		.cfi_def_cfa_offset 8
 200              		.cfi_offset 3, -8
 201              		.cfi_offset 14, -4
 202              	.LBB8:
 203              		.loc 1 153 0
 204 0002 2023     		movs	r3, #32
 205              	.LVL18:
 206              	@ 153 "../../os/hal/src/spi.c" 1
 207 0004 83F31188 		msr     BASEPRI, r3
 208              	@ 0 "" 2
 209              	.LVL19:
 210              		.thumb
 211              	.LBE8:
 212              		.loc 1 155 0
 213 0008 FFF7FEFF 		bl	spi_lld_select
 214              	.LVL20:
 215              	.LBB9:
 216              		.loc 1 156 0
 217 000c 0023     		movs	r3, #0
 218              	.LVL21:
 219              	@ 156 "../../os/hal/src/spi.c" 1
 220 000e 83F31188 		msr     BASEPRI, r3
 221              	@ 0 "" 2
 222              	.LVL22:
 223              		.thumb
 224 0012 08BD     		pop	{r3, pc}
 225              	.LBE9:
 226              		.cfi_endproc
 227              	.LFE66:
 228              		.size	spiSelect, .-spiSelect
ARM GAS  C:\DOCUME~1\ADMINI~1\LOCALS~1\Temp\ccAypmcL.s 			page 5


 229              		.section	.text.spiUnselect,"ax",%progbits
 230              		.align	2
 231              		.global	spiUnselect
 232              		.thumb
 233              		.thumb_func
 234              		.type	spiUnselect, %function
 235              	spiUnselect:
 236              	.LFB67:
 237              		.loc 1 167 0
 238              		.cfi_startproc
 239              		@ args = 0, pretend = 0, frame = 0
 240              		@ frame_needed = 0, uses_anonymous_args = 0
 241              	.LVL23:
 242 0000 08B5     		push	{r3, lr}
 243              	.LCFI3:
 244              		.cfi_def_cfa_offset 8
 245              		.cfi_offset 3, -8
 246              		.cfi_offset 14, -4
 247              	.LBB10:
 248              		.loc 1 171 0
 249 0002 2023     		movs	r3, #32
 250              	.LVL24:
 251              	@ 171 "../../os/hal/src/spi.c" 1
 252 0004 83F31188 		msr     BASEPRI, r3
 253              	@ 0 "" 2
 254              	.LVL25:
 255              		.thumb
 256              	.LBE10:
 257              		.loc 1 173 0
 258 0008 FFF7FEFF 		bl	spi_lld_unselect
 259              	.LVL26:
 260              	.LBB11:
 261              		.loc 1 174 0
 262 000c 0023     		movs	r3, #0
 263              	.LVL27:
 264              	@ 174 "../../os/hal/src/spi.c" 1
 265 000e 83F31188 		msr     BASEPRI, r3
 266              	@ 0 "" 2
 267              	.LVL28:
 268              		.thumb
 269 0012 08BD     		pop	{r3, pc}
 270              	.LBE11:
 271              		.cfi_endproc
 272              	.LFE67:
 273              		.size	spiUnselect, .-spiUnselect
 274              		.section	.text.spiStartIgnore,"ax",%progbits
 275              		.align	2
 276              		.global	spiStartIgnore
 277              		.thumb
 278              		.thumb_func
 279              		.type	spiStartIgnore, %function
 280              	spiStartIgnore:
 281              	.LFB68:
 282              		.loc 1 190 0
 283              		.cfi_startproc
 284              		@ args = 0, pretend = 0, frame = 0
 285              		@ frame_needed = 0, uses_anonymous_args = 0
ARM GAS  C:\DOCUME~1\ADMINI~1\LOCALS~1\Temp\ccAypmcL.s 			page 6


 286              	.LVL29:
 287 0000 08B5     		push	{r3, lr}
 288              	.LCFI4:
 289              		.cfi_def_cfa_offset 8
 290              		.cfi_offset 3, -8
 291              		.cfi_offset 14, -4
 292              	.LBB12:
 293              		.loc 1 194 0
 294 0002 2023     		movs	r3, #32
 295              	.LVL30:
 296              	@ 194 "../../os/hal/src/spi.c" 1
 297 0004 83F31188 		msr     BASEPRI, r3
 298              	@ 0 "" 2
 299              	.LVL31:
 300              		.thumb
 301              	.LBE12:
 302              		.loc 1 196 0
 303 0008 0323     		movs	r3, #3
 304              	.LVL32:
 305 000a 0370     		strb	r3, [r0, #0]
 306 000c FFF7FEFF 		bl	spi_lld_ignore
 307              	.LVL33:
 308              	.LBB13:
 309              		.loc 1 197 0
 310 0010 0023     		movs	r3, #0
 311              	.LVL34:
 312              	@ 197 "../../os/hal/src/spi.c" 1
 313 0012 83F31188 		msr     BASEPRI, r3
 314              	@ 0 "" 2
 315              	.LVL35:
 316              		.thumb
 317 0016 08BD     		pop	{r3, pc}
 318              	.LBE13:
 319              		.cfi_endproc
 320              	.LFE68:
 321              		.size	spiStartIgnore, .-spiStartIgnore
 322              		.section	.text.spiStartExchange,"ax",%progbits
 323              		.align	2
 324              		.global	spiStartExchange
 325              		.thumb
 326              		.thumb_func
 327              		.type	spiStartExchange, %function
 328              	spiStartExchange:
 329              	.LFB69:
 330              		.loc 1 218 0
 331              		.cfi_startproc
 332              		@ args = 0, pretend = 0, frame = 0
 333              		@ frame_needed = 0, uses_anonymous_args = 0
 334              	.LVL36:
 335 0000 38B5     		push	{r3, r4, r5, lr}
 336              	.LCFI5:
 337              		.cfi_def_cfa_offset 16
 338              		.cfi_offset 3, -16
 339              		.cfi_offset 4, -12
 340              		.cfi_offset 5, -8
 341              		.cfi_offset 14, -4
 342              		.loc 1 218 0
ARM GAS  C:\DOCUME~1\ADMINI~1\LOCALS~1\Temp\ccAypmcL.s 			page 7


 343 0002 1D46     		mov	r5, r3
 344 0004 0446     		mov	r4, r0
 345              	.LBB14:
 346              		.loc 1 223 0
 347 0006 2023     		movs	r3, #32
 348              	.LVL37:
 349              	@ 223 "../../os/hal/src/spi.c" 1
 350 0008 83F31188 		msr     BASEPRI, r3
 351              	@ 0 "" 2
 352              	.LVL38:
 353              		.thumb
 354              	.LBE14:
 355              		.loc 1 225 0
 356 000c 2B46     		mov	r3, r5
 357              	.LVL39:
 358 000e 0325     		movs	r5, #3
 359              	.LVL40:
 360 0010 0570     		strb	r5, [r0, #0]
 361 0012 FFF7FEFF 		bl	spi_lld_exchange
 362              	.LVL41:
 363              	.LBB15:
 364              		.loc 1 226 0
 365 0016 0023     		movs	r3, #0
 366              	.LVL42:
 367              	@ 226 "../../os/hal/src/spi.c" 1
 368 0018 83F31188 		msr     BASEPRI, r3
 369              	@ 0 "" 2
 370              	.LVL43:
 371              		.thumb
 372 001c 38BD     		pop	{r3, r4, r5, pc}
 373              	.LBE15:
 374              		.cfi_endproc
 375              	.LFE69:
 376              		.size	spiStartExchange, .-spiStartExchange
 377 001e 00BF     		.section	.text.spiStartSend,"ax",%progbits
 378              		.align	2
 379              		.global	spiStartSend
 380              		.thumb
 381              		.thumb_func
 382              		.type	spiStartSend, %function
 383              	spiStartSend:
 384              	.LFB70:
 385              		.loc 1 244 0
 386              		.cfi_startproc
 387              		@ args = 0, pretend = 0, frame = 0
 388              		@ frame_needed = 0, uses_anonymous_args = 0
 389              	.LVL44:
 390 0000 10B5     		push	{r4, lr}
 391              	.LCFI6:
 392              		.cfi_def_cfa_offset 8
 393              		.cfi_offset 4, -8
 394              		.cfi_offset 14, -4
 395              	.LBB16:
 396              		.loc 1 249 0
 397 0002 2023     		movs	r3, #32
 398              	.LVL45:
 399              	.LBE16:
ARM GAS  C:\DOCUME~1\ADMINI~1\LOCALS~1\Temp\ccAypmcL.s 			page 8


 400              		.loc 1 244 0
 401 0004 0446     		mov	r4, r0
 402              	.LBB17:
 403              		.loc 1 249 0
 404              	@ 249 "../../os/hal/src/spi.c" 1
 405 0006 83F31188 		msr     BASEPRI, r3
 406              	@ 0 "" 2
 407              	.LVL46:
 408              		.thumb
 409              	.LBE17:
 410              		.loc 1 251 0
 411 000a 0323     		movs	r3, #3
 412              	.LVL47:
 413 000c 0370     		strb	r3, [r0, #0]
 414 000e FFF7FEFF 		bl	spi_lld_send
 415              	.LVL48:
 416              	.LBB18:
 417              		.loc 1 252 0
 418 0012 0023     		movs	r3, #0
 419              	.LVL49:
 420              	@ 252 "../../os/hal/src/spi.c" 1
 421 0014 83F31188 		msr     BASEPRI, r3
 422              	@ 0 "" 2
 423              	.LVL50:
 424              		.thumb
 425 0018 10BD     		pop	{r4, pc}
 426              	.LBE18:
 427              		.cfi_endproc
 428              	.LFE70:
 429              		.size	spiStartSend, .-spiStartSend
 430 001a 00BF     		.section	.text.spiStartReceive,"ax",%progbits
 431              		.align	2
 432              		.global	spiStartReceive
 433              		.thumb
 434              		.thumb_func
 435              		.type	spiStartReceive, %function
 436              	spiStartReceive:
 437              	.LFB71:
 438              		.loc 1 270 0
 439              		.cfi_startproc
 440              		@ args = 0, pretend = 0, frame = 0
 441              		@ frame_needed = 0, uses_anonymous_args = 0
 442              	.LVL51:
 443 0000 10B5     		push	{r4, lr}
 444              	.LCFI7:
 445              		.cfi_def_cfa_offset 8
 446              		.cfi_offset 4, -8
 447              		.cfi_offset 14, -4
 448              	.LBB19:
 449              		.loc 1 275 0
 450 0002 2023     		movs	r3, #32
 451              	.LVL52:
 452              	.LBE19:
 453              		.loc 1 270 0
 454 0004 0446     		mov	r4, r0
 455              	.LBB20:
 456              		.loc 1 275 0
ARM GAS  C:\DOCUME~1\ADMINI~1\LOCALS~1\Temp\ccAypmcL.s 			page 9


 457              	@ 275 "../../os/hal/src/spi.c" 1
 458 0006 83F31188 		msr     BASEPRI, r3
 459              	@ 0 "" 2
 460              	.LVL53:
 461              		.thumb
 462              	.LBE20:
 463              		.loc 1 277 0
 464 000a 0323     		movs	r3, #3
 465              	.LVL54:
 466 000c 0370     		strb	r3, [r0, #0]
 467 000e FFF7FEFF 		bl	spi_lld_receive
 468              	.LVL55:
 469              	.LBB21:
 470              		.loc 1 278 0
 471 0012 0023     		movs	r3, #0
 472              	.LVL56:
 473              	@ 278 "../../os/hal/src/spi.c" 1
 474 0014 83F31188 		msr     BASEPRI, r3
 475              	@ 0 "" 2
 476              	.LVL57:
 477              		.thumb
 478 0018 10BD     		pop	{r4, pc}
 479              	.LBE21:
 480              		.cfi_endproc
 481              	.LFE71:
 482              		.size	spiStartReceive, .-spiStartReceive
 483 001a 00BF     		.section	.text.spiIgnore,"ax",%progbits
 484              		.align	2
 485              		.global	spiIgnore
 486              		.thumb
 487              		.thumb_func
 488              		.type	spiIgnore, %function
 489              	spiIgnore:
 490              	.LFB72:
 491              		.loc 1 296 0
 492              		.cfi_startproc
 493              		@ args = 0, pretend = 0, frame = 0
 494              		@ frame_needed = 0, uses_anonymous_args = 0
 495              	.LVL58:
 496 0000 10B5     		push	{r4, lr}
 497              	.LCFI8:
 498              		.cfi_def_cfa_offset 8
 499              		.cfi_offset 4, -8
 500              		.cfi_offset 14, -4
 501              	.LBB22:
 502              		.loc 1 300 0
 503 0002 2023     		movs	r3, #32
 504              	.LVL59:
 505              	.LBE22:
 506              		.loc 1 296 0
 507 0004 0446     		mov	r4, r0
 508              	.LBB23:
 509              		.loc 1 300 0
 510              	@ 300 "../../os/hal/src/spi.c" 1
 511 0006 83F31188 		msr     BASEPRI, r3
 512              	@ 0 "" 2
 513              	.LVL60:
ARM GAS  C:\DOCUME~1\ADMINI~1\LOCALS~1\Temp\ccAypmcL.s 			page 10


 514              		.thumb
 515              	.LBE23:
 516              		.loc 1 303 0
 517 000a 0323     		movs	r3, #3
 518              	.LVL61:
 519 000c 0370     		strb	r3, [r0, #0]
 520 000e FFF7FEFF 		bl	spi_lld_ignore
 521              	.LVL62:
 522              		.loc 1 304 0
 523 0012 40F20003 		movw	r3, #:lower16:rlist
 524 0016 C0F20003 		movt	r3, #:upper16:rlist
 525 001a DB69     		ldr	r3, [r3, #28]
 526 001c 0220     		movs	r0, #2
 527 001e A360     		str	r3, [r4, #8]
 528 0020 FFF7FEFF 		bl	chSchGoSleepS
 529              	.LVL63:
 530              	.LBB24:
 531              		.loc 1 305 0
 532 0024 0023     		movs	r3, #0
 533              	.LVL64:
 534              	@ 305 "../../os/hal/src/spi.c" 1
 535 0026 83F31188 		msr     BASEPRI, r3
 536              	@ 0 "" 2
 537              	.LVL65:
 538              		.thumb
 539 002a 10BD     		pop	{r4, pc}
 540              	.LBE24:
 541              		.cfi_endproc
 542              	.LFE72:
 543              		.size	spiIgnore, .-spiIgnore
 544              		.section	.text.spiExchange,"ax",%progbits
 545              		.align	2
 546              		.global	spiExchange
 547              		.thumb
 548              		.thumb_func
 549              		.type	spiExchange, %function
 550              	spiExchange:
 551              	.LFB73:
 552              		.loc 1 327 0
 553              		.cfi_startproc
 554              		@ args = 0, pretend = 0, frame = 0
 555              		@ frame_needed = 0, uses_anonymous_args = 0
 556              	.LVL66:
 557 0000 38B5     		push	{r3, r4, r5, lr}
 558              	.LCFI9:
 559              		.cfi_def_cfa_offset 16
 560              		.cfi_offset 3, -16
 561              		.cfi_offset 4, -12
 562              		.cfi_offset 5, -8
 563              		.cfi_offset 14, -4
 564              		.loc 1 327 0
 565 0002 1D46     		mov	r5, r3
 566 0004 0446     		mov	r4, r0
 567              	.LBB25:
 568              		.loc 1 332 0
 569 0006 2023     		movs	r3, #32
 570              	.LVL67:
ARM GAS  C:\DOCUME~1\ADMINI~1\LOCALS~1\Temp\ccAypmcL.s 			page 11


 571              	@ 332 "../../os/hal/src/spi.c" 1
 572 0008 83F31188 		msr     BASEPRI, r3
 573              	@ 0 "" 2
 574              	.LVL68:
 575              		.thumb
 576              	.LBE25:
 577              		.loc 1 336 0
 578 000c 2B46     		mov	r3, r5
 579              	.LVL69:
 580 000e 0325     		movs	r5, #3
 581              	.LVL70:
 582 0010 0570     		strb	r5, [r0, #0]
 583 0012 FFF7FEFF 		bl	spi_lld_exchange
 584              	.LVL71:
 585              		.loc 1 337 0
 586 0016 40F20003 		movw	r3, #:lower16:rlist
 587 001a C0F20003 		movt	r3, #:upper16:rlist
 588 001e DB69     		ldr	r3, [r3, #28]
 589 0020 0220     		movs	r0, #2
 590 0022 A360     		str	r3, [r4, #8]
 591 0024 FFF7FEFF 		bl	chSchGoSleepS
 592              	.LVL72:
 593              	.LBB26:
 594              		.loc 1 338 0
 595 0028 0023     		movs	r3, #0
 596              	.LVL73:
 597              	@ 338 "../../os/hal/src/spi.c" 1
 598 002a 83F31188 		msr     BASEPRI, r3
 599              	@ 0 "" 2
 600              	.LVL74:
 601              		.thumb
 602 002e 38BD     		pop	{r3, r4, r5, pc}
 603              	.LBE26:
 604              		.cfi_endproc
 605              	.LFE73:
 606              		.size	spiExchange, .-spiExchange
 607              		.section	.text.spiSend,"ax",%progbits
 608              		.align	2
 609              		.global	spiSend
 610              		.thumb
 611              		.thumb_func
 612              		.type	spiSend, %function
 613              	spiSend:
 614              	.LFB74:
 615              		.loc 1 357 0
 616              		.cfi_startproc
 617              		@ args = 0, pretend = 0, frame = 0
 618              		@ frame_needed = 0, uses_anonymous_args = 0
 619              	.LVL75:
 620 0000 10B5     		push	{r4, lr}
 621              	.LCFI10:
 622              		.cfi_def_cfa_offset 8
 623              		.cfi_offset 4, -8
 624              		.cfi_offset 14, -4
 625              	.LBB27:
 626              		.loc 1 361 0
 627 0002 2023     		movs	r3, #32
ARM GAS  C:\DOCUME~1\ADMINI~1\LOCALS~1\Temp\ccAypmcL.s 			page 12


 628              	.LVL76:
 629              	.LBE27:
 630              		.loc 1 357 0
 631 0004 0446     		mov	r4, r0
 632              	.LBB28:
 633              		.loc 1 361 0
 634              	@ 361 "../../os/hal/src/spi.c" 1
 635 0006 83F31188 		msr     BASEPRI, r3
 636              	@ 0 "" 2
 637              	.LVL77:
 638              		.thumb
 639              	.LBE28:
 640              		.loc 1 364 0
 641 000a 0323     		movs	r3, #3
 642              	.LVL78:
 643 000c 0370     		strb	r3, [r0, #0]
 644 000e FFF7FEFF 		bl	spi_lld_send
 645              	.LVL79:
 646              		.loc 1 365 0
 647 0012 40F20003 		movw	r3, #:lower16:rlist
 648 0016 C0F20003 		movt	r3, #:upper16:rlist
 649 001a DB69     		ldr	r3, [r3, #28]
 650 001c 0220     		movs	r0, #2
 651 001e A360     		str	r3, [r4, #8]
 652 0020 FFF7FEFF 		bl	chSchGoSleepS
 653              	.LVL80:
 654              	.LBB29:
 655              		.loc 1 366 0
 656 0024 0023     		movs	r3, #0
 657              	.LVL81:
 658              	@ 366 "../../os/hal/src/spi.c" 1
 659 0026 83F31188 		msr     BASEPRI, r3
 660              	@ 0 "" 2
 661              	.LVL82:
 662              		.thumb
 663 002a 10BD     		pop	{r4, pc}
 664              	.LBE29:
 665              		.cfi_endproc
 666              	.LFE74:
 667              		.size	spiSend, .-spiSend
 668              		.section	.text.spiReceive,"ax",%progbits
 669              		.align	2
 670              		.global	spiReceive
 671              		.thumb
 672              		.thumb_func
 673              		.type	spiReceive, %function
 674              	spiReceive:
 675              	.LFB75:
 676              		.loc 1 385 0
 677              		.cfi_startproc
 678              		@ args = 0, pretend = 0, frame = 0
 679              		@ frame_needed = 0, uses_anonymous_args = 0
 680              	.LVL83:
 681 0000 10B5     		push	{r4, lr}
 682              	.LCFI11:
 683              		.cfi_def_cfa_offset 8
 684              		.cfi_offset 4, -8
ARM GAS  C:\DOCUME~1\ADMINI~1\LOCALS~1\Temp\ccAypmcL.s 			page 13


 685              		.cfi_offset 14, -4
 686              	.LBB30:
 687              		.loc 1 390 0
 688 0002 2023     		movs	r3, #32
 689              	.LVL84:
 690              	.LBE30:
 691              		.loc 1 385 0
 692 0004 0446     		mov	r4, r0
 693              	.LBB31:
 694              		.loc 1 390 0
 695              	@ 390 "../../os/hal/src/spi.c" 1
 696 0006 83F31188 		msr     BASEPRI, r3
 697              	@ 0 "" 2
 698              	.LVL85:
 699              		.thumb
 700              	.LBE31:
 701              		.loc 1 394 0
 702 000a 0323     		movs	r3, #3
 703              	.LVL86:
 704 000c 0370     		strb	r3, [r0, #0]
 705 000e FFF7FEFF 		bl	spi_lld_receive
 706              	.LVL87:
 707              		.loc 1 395 0
 708 0012 40F20003 		movw	r3, #:lower16:rlist
 709 0016 C0F20003 		movt	r3, #:upper16:rlist
 710 001a DB69     		ldr	r3, [r3, #28]
 711 001c 0220     		movs	r0, #2
 712 001e A360     		str	r3, [r4, #8]
 713 0020 FFF7FEFF 		bl	chSchGoSleepS
 714              	.LVL88:
 715              	.LBB32:
 716              		.loc 1 396 0
 717 0024 0023     		movs	r3, #0
 718              	.LVL89:
 719              	@ 396 "../../os/hal/src/spi.c" 1
 720 0026 83F31188 		msr     BASEPRI, r3
 721              	@ 0 "" 2
 722              	.LVL90:
 723              		.thumb
 724 002a 10BD     		pop	{r4, pc}
 725              	.LBE32:
 726              		.cfi_endproc
 727              	.LFE75:
 728              		.size	spiReceive, .-spiReceive
 729              		.section	.text.spiAcquireBus,"ax",%progbits
 730              		.align	2
 731              		.global	spiAcquireBus
 732              		.thumb
 733              		.thumb_func
 734              		.type	spiAcquireBus, %function
 735              	spiAcquireBus:
 736              	.LFB76:
 737              		.loc 1 412 0
 738              		.cfi_startproc
 739              		@ args = 0, pretend = 0, frame = 0
 740              		@ frame_needed = 0, uses_anonymous_args = 0
 741              		@ link register save eliminated.
ARM GAS  C:\DOCUME~1\ADMINI~1\LOCALS~1\Temp\ccAypmcL.s 			page 14


 742              	.LVL91:
 743              		.loc 1 417 0
 744 0000 0C30     		adds	r0, r0, #12
 745              	.LVL92:
 746              		.loc 1 421 0
 747              		.loc 1 417 0
 748 0002 FFF7FEBF 		b	chMtxLock
 749              	.LVL93:
 750              		.cfi_endproc
 751              	.LFE76:
 752              		.size	spiAcquireBus, .-spiAcquireBus
 753 0006 00BF     		.section	.text.spiReleaseBus,"ax",%progbits
 754              		.align	2
 755              		.global	spiReleaseBus
 756              		.thumb
 757              		.thumb_func
 758              		.type	spiReleaseBus, %function
 759              	spiReleaseBus:
 760              	.LFB77:
 761              		.loc 1 432 0
 762              		.cfi_startproc
 763              		@ args = 0, pretend = 0, frame = 0
 764              		@ frame_needed = 0, uses_anonymous_args = 0
 765              		@ link register save eliminated.
 766              	.LVL94:
 767              		.loc 1 442 0
 768              		.loc 1 438 0
 769 0000 FFF7FEBF 		b	chMtxUnlock
 770              	.LVL95:
 771              		.cfi_endproc
 772              	.LFE77:
 773              		.size	spiReleaseBus, .-spiReleaseBus
 774              		.text
 775              	.Letext0:
 776              		.file 2 "c:\\program files\\yagarto\\bin\\../lib/gcc/arm-none-eabi/4.7.1/include/stddef.h"
 777              		.file 3 "c:/program files/yagarto/lib/gcc/../../arm-none-eabi/sys-include/stdint.h"
 778              		.file 4 "../../os/ports/GCC/ARMCMx/chtypes.h"
 779              		.file 5 "../../os/kernel/include/chlists.h"
 780              		.file 6 "../../os/kernel/include/chthreads.h"
 781              		.file 7 "../../os/ports/GCC/ARMCMx/chcore_v7m.h"
 782              		.file 8 "../../os/kernel/include/chschd.h"
 783              		.file 9 "../../os/kernel/include/chmtx.h"
 784              		.file 10 "../../os/hal/platforms/STM32L1xx/stm32l1xx.h"
 785              		.file 11 "../../os/hal/platforms/STM32L1xx/stm32_dma.h"
 786              		.file 12 "../../os/hal/platforms/STM32/GPIOv2/pal_lld.h"
 787              		.file 13 "../../os/hal/include/spi.h"
 788              		.file 14 "../../os/hal/platforms/STM32/spi_lld.h"
 789              		.file 15 "../../os/ports/common/ARMCMx/CMSIS/include/core_cm3.h"