ARM GAS  C:\DOCUME~1\ADMINI~1\LOCALS~1\Temp\ccN8q9TS.s 			page 1


   1              		.syntax unified
   2              		.cpu cortex-m3
   3              		.fpu softvfp
   4              		.eabi_attribute 20, 1
   5              		.eabi_attribute 21, 1
   6              		.eabi_attribute 23, 3
   7              		.eabi_attribute 24, 1
   8              		.eabi_attribute 25, 1
   9              		.eabi_attribute 26, 1
  10              		.eabi_attribute 30, 2
  11              		.eabi_attribute 34, 1
  12              		.eabi_attribute 18, 4
  13              		.thumb
  14              		.file	"spi_lld.c"
  15              		.text
  16              	.Ltext0:
  17              		.cfi_sections	.debug_frame
  18              		.section	.text.spi_lld_serve_tx_interrupt,"ax",%progbits
  19              		.align	2
  20              		.thumb
  21              		.thumb_func
  22              		.type	spi_lld_serve_tx_interrupt, %function
  23              	spi_lld_serve_tx_interrupt:
  24              	.LFB63:
  25              		.file 1 "../../os/hal/platforms/STM32/spi_lld.c"
  26              		.loc 1 131 0
  27              		.cfi_startproc
  28              		@ args = 0, pretend = 0, frame = 0
  29              		@ frame_needed = 0, uses_anonymous_args = 0
  30              		@ link register save eliminated.
  31              	.LVL0:
  32              		.loc 1 136 0
  33 0000 0B07     		lsls	r3, r1, #28
  34 0002 00D4     		bmi	.L4
  35 0004 7047     		bx	lr
  36              	.L4:
  37              		.loc 1 143 0
  38              		.loc 1 137 0
  39 0006 FFF7FEBF 		b	port_halt
  40              	.LVL1:
  41              		.cfi_endproc
  42              	.LFE63:
  43              		.size	spi_lld_serve_tx_interrupt, .-spi_lld_serve_tx_interrupt
  44 000a 00BF     		.section	.text.spi_lld_serve_rx_interrupt,"ax",%progbits
  45              		.align	2
  46              		.thumb
  47              		.thumb_func
  48              		.type	spi_lld_serve_rx_interrupt, %function
  49              	spi_lld_serve_rx_interrupt:
  50              	.LFB62:
  51              		.loc 1 105 0
  52              		.cfi_startproc
  53              		@ args = 0, pretend = 0, frame = 0
  54              		@ frame_needed = 0, uses_anonymous_args = 0
  55              	.LVL2:
  56              		.loc 1 109 0
  57 0000 0A07     		lsls	r2, r1, #28
ARM GAS  C:\DOCUME~1\ADMINI~1\LOCALS~1\Temp\ccN8q9TS.s 			page 2


  58              		.loc 1 105 0
  59 0002 70B5     		push	{r4, r5, r6, lr}
  60              	.LCFI0:
  61              		.cfi_def_cfa_offset 16
  62              		.cfi_offset 4, -16
  63              		.cfi_offset 5, -12
  64              		.cfi_offset 6, -8
  65              		.cfi_offset 14, -4
  66              		.loc 1 105 0
  67 0004 0446     		mov	r4, r0
  68              		.loc 1 109 0
  69 0006 30D4     		bmi	.L16
  70              	.LVL3:
  71              	.L6:
  72              		.loc 1 117 0
  73 0008 626A     		ldr	r2, [r4, #36]
  74              		.loc 1 118 0
  75 000a 236A     		ldr	r3, [r4, #32]
  76              		.loc 1 117 0
  77 000c 1068     		ldr	r0, [r2, #0]
  78 000e 5568     		ldr	r5, [r2, #4]
  79 0010 0668     		ldr	r6, [r0, #0]
  80 0012 0F21     		movs	r1, #15
  81 0014 26F00106 		bic	r6, r6, #1
  82 0018 0660     		str	r6, [r0, #0]
  83 001a 107A     		ldrb	r0, [r2, #8]	@ zero_extendqisi2
  84              		.loc 1 118 0
  85 001c 1A68     		ldr	r2, [r3, #0]
  86              		.loc 1 117 0
  87 001e 01FA00F0 		lsl	r0, r1, r0
  88 0022 2860     		str	r0, [r5, #0]
  89              		.loc 1 118 0
  90 0024 1568     		ldr	r5, [r2, #0]
  91              		.loc 1 122 0
  92 0026 6068     		ldr	r0, [r4, #4]
  93              		.loc 1 118 0
  94 0028 25F00105 		bic	r5, r5, #1
  95 002c 1560     		str	r5, [r2, #0]
  96 002e 1D7A     		ldrb	r5, [r3, #8]	@ zero_extendqisi2
  97 0030 5A68     		ldr	r2, [r3, #4]
  98 0032 01FA05F1 		lsl	r1, r1, r5
  99              		.loc 1 122 0
 100 0036 0368     		ldr	r3, [r0, #0]
 101              		.loc 1 118 0
 102 0038 1160     		str	r1, [r2, #0]
 103              		.loc 1 122 0
 104 003a 9BB1     		cbz	r3, .L7
 105              		.loc 1 122 0 is_stmt 0 discriminator 1
 106 003c 0422     		movs	r2, #4
 107 003e 2270     		strb	r2, [r4, #0]
 108 0040 2046     		mov	r0, r4
 109 0042 9847     		blx	r3
 110              	.LVL4:
 111 0044 2378     		ldrb	r3, [r4, #0]	@ zero_extendqisi2
 112 0046 042B     		cmp	r3, #4
 113 0048 0CD0     		beq	.L7
 114              	.L8:
ARM GAS  C:\DOCUME~1\ADMINI~1\LOCALS~1\Temp\ccN8q9TS.s 			page 3


 115              		.loc 1 122 0 discriminator 4
 116 004a A068     		ldr	r0, [r4, #8]
 117 004c 48B1     		cbz	r0, .L5
 118              	.LVL5:
 119              	.LBB2:
 120              		.loc 1 122 0 discriminator 5
 121 004e 0025     		movs	r5, #0
 122 0050 A560     		str	r5, [r4, #8]
 123              	.LBB3:
 124 0052 2023     		movs	r3, #32
 125              	.LVL6:
 126              	@ 122 "../../os/hal/platforms/STM32/spi_lld.c" 1
 127 0054 83F31188 		msr     BASEPRI, r3
 128              	@ 0 "" 2
 129              	.LVL7:
 130              		.thumb
 131              	.LBE3:
 132 0058 FFF7FEFF 		bl	chSchReadyI
 133              	.LVL8:
 134              	.LBB4:
 135 005c 2B46     		mov	r3, r5
 136              	.LVL9:
 137              	@ 122 "../../os/hal/platforms/STM32/spi_lld.c" 1
 138 005e 83F31188 		msr     BASEPRI, r3
 139              	@ 0 "" 2
 140              	.LVL10:
 141              		.thumb
 142              	.L5:
 143 0062 70BD     		pop	{r4, r5, r6, pc}
 144              	.LVL11:
 145              	.L7:
 146              	.LBE4:
 147              	.LBE2:
 148              		.loc 1 122 0 discriminator 2
 149 0064 0223     		movs	r3, #2
 150 0066 2370     		strb	r3, [r4, #0]
 151 0068 EFE7     		b	.L8
 152              	.LVL12:
 153              	.L16:
 154              		.loc 1 110 0 is_stmt 1
 155 006a FFF7FEFF 		bl	port_halt
 156              	.LVL13:
 157 006e CBE7     		b	.L6
 158              		.cfi_endproc
 159              	.LFE62:
 160              		.size	spi_lld_serve_rx_interrupt, .-spi_lld_serve_rx_interrupt
 161              		.section	.text.spi_lld_init,"ax",%progbits
 162              		.align	2
 163              		.global	spi_lld_init
 164              		.thumb
 165              		.thumb_func
 166              		.type	spi_lld_init, %function
 167              	spi_lld_init:
 168              	.LFB64:
 169              		.loc 1 158 0
 170              		.cfi_startproc
 171              		@ args = 0, pretend = 0, frame = 0
ARM GAS  C:\DOCUME~1\ADMINI~1\LOCALS~1\Temp\ccN8q9TS.s 			page 4


 172              		@ frame_needed = 0, uses_anonymous_args = 0
 173 0000 10B5     		push	{r4, lr}
 174              	.LCFI1:
 175              		.cfi_def_cfa_offset 8
 176              		.cfi_offset 4, -8
 177              		.cfi_offset 14, -4
 178              		.loc 1 181 0
 179 0002 40F20004 		movw	r4, #:lower16:.LANCHOR1
 180 0006 C0F20004 		movt	r4, #:upper16:.LANCHOR1
 181              		.loc 1 160 0
 182 000a 40F20003 		movw	r3, #:lower16:.LANCHOR0
 183 000e C0F20003 		movt	r3, #:upper16:.LANCHOR0
 184 0012 4FF6FF72 		movw	r2, #65535
 185              		.loc 1 181 0
 186 0016 2046     		mov	r0, r4
 187              		.loc 1 160 0
 188 0018 1A80     		strh	r2, [r3, #0]	@ movhi
 189              		.loc 1 181 0
 190 001a FFF7FEFF 		bl	spiObjectInit
 191              	.LVL14:
 192              		.loc 1 183 0
 193 001e 084B     		ldr	r3, .L18
 194              		.loc 1 182 0
 195 0020 4FF46052 		mov	r2, #14336
 196              		.loc 1 184 0
 197 0024 03F10C01 		add	r1, r3, #12
 198              		.loc 1 183 0
 199 0028 2362     		str	r3, [r4, #32]
 200              		.loc 1 185 0
 201 002a 41F20A03 		movw	r3, #4106
 202              		.loc 1 182 0
 203 002e C4F20002 		movt	r2, 16384
 204              		.loc 1 185 0
 205 0032 A362     		str	r3, [r4, #40]
 206              		.loc 1 191 0
 207 0034 0E33     		adds	r3, r3, #14
 208              		.loc 1 182 0
 209 0036 E261     		str	r2, [r4, #28]
 210              		.loc 1 184 0
 211 0038 6162     		str	r1, [r4, #36]
 212              		.loc 1 191 0
 213 003a E362     		str	r3, [r4, #44]
 214 003c 10BD     		pop	{r4, pc}
 215              	.L19:
 216 003e 00BF     		.align	2
 217              	.L18:
 218 0040 24000000 		.word	_stm32_dma_streams+36
 219              		.cfi_endproc
 220              	.LFE64:
 221              		.size	spi_lld_init, .-spi_lld_init
 222              		.section	.text.spi_lld_start,"ax",%progbits
 223              		.align	2
 224              		.global	spi_lld_start
 225              		.thumb
 226              		.thumb_func
 227              		.type	spi_lld_start, %function
 228              	spi_lld_start:
ARM GAS  C:\DOCUME~1\ADMINI~1\LOCALS~1\Temp\ccN8q9TS.s 			page 5


 229              	.LFB65:
 230              		.loc 1 224 0
 231              		.cfi_startproc
 232              		@ args = 0, pretend = 0, frame = 0
 233              		@ frame_needed = 0, uses_anonymous_args = 0
 234              	.LVL15:
 235              		.loc 1 227 0
 236 0000 0378     		ldrb	r3, [r0, #0]	@ zero_extendqisi2
 237              		.loc 1 224 0
 238 0002 10B5     		push	{r4, lr}
 239              	.LCFI2:
 240              		.cfi_def_cfa_offset 8
 241              		.cfi_offset 4, -8
 242              		.cfi_offset 14, -4
 243              		.loc 1 227 0
 244 0004 012B     		cmp	r3, #1
 245              		.loc 1 224 0
 246 0006 0446     		mov	r4, r0
 247              		.loc 1 227 0
 248 0008 27D0     		beq	.L26
 249 000a C369     		ldr	r3, [r0, #28]
 250              	.LVL16:
 251              	.L21:
 252              		.loc 1 283 0
 253 000c 6268     		ldr	r2, [r4, #4]
 254              		.loc 1 285 0
 255 000e A06A     		ldr	r0, [r4, #40]
 256              		.loc 1 283 0
 257 0010 5289     		ldrh	r2, [r2, #10]
 258 0012 02F40061 		and	r1, r2, #2048
 259 0016 89B2     		uxth	r1, r1
 260 0018 B9B1     		cbz	r1, .L27
 261              		.loc 1 292 0
 262 001a E16A     		ldr	r1, [r4, #44]
 263              		.loc 1 290 0
 264 001c 20F45060 		bic	r0, r0, #3328
 265              		.loc 1 292 0
 266 0020 21F45061 		bic	r1, r1, #3328
 267              		.loc 1 291 0
 268 0024 40F4A060 		orr	r0, r0, #1280
 269              		.loc 1 293 0
 270 0028 41F4A061 		orr	r1, r1, #1280
 271              		.loc 1 290 0
 272 002c A062     		str	r0, [r4, #40]
 273              		.loc 1 292 0
 274 002e E162     		str	r1, [r4, #44]
 275              	.L24:
 276              		.loc 1 297 0
 277 0030 42F44172 		orr	r2, r2, #772
 278              		.loc 1 296 0
 279 0034 0021     		movs	r1, #0
 280 0036 1980     		strh	r1, [r3, #0]	@ movhi
 281              		.loc 1 297 0
 282 0038 1A80     		strh	r2, [r3, #0]	@ movhi
 283              		.loc 1 299 0
 284 003a 0722     		movs	r2, #7
 285 003c 9A80     		strh	r2, [r3, #4]	@ movhi
ARM GAS  C:\DOCUME~1\ADMINI~1\LOCALS~1\Temp\ccN8q9TS.s 			page 6


 286              		.loc 1 300 0
 287 003e 1A88     		ldrh	r2, [r3, #0]
 288 0040 92B2     		uxth	r2, r2
 289 0042 42F04002 		orr	r2, r2, #64
 290 0046 1A80     		strh	r2, [r3, #0]	@ movhi
 291 0048 10BD     		pop	{r4, pc}
 292              	.L27:
 293              		.loc 1 287 0
 294 004a E16A     		ldr	r1, [r4, #44]
 295              		.loc 1 285 0
 296 004c 20F44060 		bic	r0, r0, #3072
 297              		.loc 1 287 0
 298 0050 21F44061 		bic	r1, r1, #3072
 299              		.loc 1 284 0
 300 0054 A062     		str	r0, [r4, #40]
 301              		.loc 1 286 0
 302 0056 E162     		str	r1, [r4, #44]
 303 0058 EAE7     		b	.L24
 304              	.LVL17:
 305              	.L26:
 306              		.loc 1 245 0
 307 005a 114B     		ldr	r3, .L29
 308 005c 9842     		cmp	r0, r3
 309 005e 09D0     		beq	.L28
 310              	.LVL18:
 311              	.L22:
 312              		.loc 1 278 0
 313 0060 216A     		ldr	r1, [r4, #32]
 314              		.loc 1 279 0
 315 0062 626A     		ldr	r2, [r4, #36]
 316              		.loc 1 278 0
 317 0064 E369     		ldr	r3, [r4, #28]
 318 0066 0868     		ldr	r0, [r1, #0]
 319              		.loc 1 279 0
 320 0068 1168     		ldr	r1, [r2, #0]
 321              		.loc 1 278 0
 322 006a 03F10C02 		add	r2, r3, #12
 323 006e 8260     		str	r2, [r0, #8]
 324              		.loc 1 279 0
 325 0070 8A60     		str	r2, [r1, #8]
 326 0072 CBE7     		b	.L21
 327              	.LVL19:
 328              	.L28:
 329              	.LBB5:
 330              		.loc 1 247 0
 331 0074 0346     		mov	r3, r0
 332 0076 0A21     		movs	r1, #10
 333 0078 0A4A     		ldr	r2, .L29+4
 334 007a 006A     		ldr	r0, [r0, #32]
 335              	.LVL20:
 336 007c FFF7FEFF 		bl	dmaStreamAllocate
 337              	.LVL21:
 338              		.loc 1 252 0
 339 0080 094A     		ldr	r2, .L29+8
 340 0082 2346     		mov	r3, r4
 341 0084 606A     		ldr	r0, [r4, #36]
 342 0086 0A21     		movs	r1, #10
ARM GAS  C:\DOCUME~1\ADMINI~1\LOCALS~1\Temp\ccN8q9TS.s 			page 7


 343 0088 FFF7FEFF 		bl	dmaStreamAllocate
 344              	.LVL22:
 345              		.loc 1 257 0
 346 008c 4FF46053 		mov	r3, #14336
 347 0090 C4F20203 		movt	r3, 16386
 348 0094 5A6A     		ldr	r2, [r3, #36]
 349 0096 42F48042 		orr	r2, r2, #16384
 350 009a 5A62     		str	r2, [r3, #36]
 351 009c E0E7     		b	.L22
 352              	.L30:
 353 009e 00BF     		.align	2
 354              	.L29:
 355 00a0 00000000 		.word	.LANCHOR1
 356 00a4 00000000 		.word	spi_lld_serve_rx_interrupt
 357 00a8 00000000 		.word	spi_lld_serve_tx_interrupt
 358              	.LBE5:
 359              		.cfi_endproc
 360              	.LFE65:
 361              		.size	spi_lld_start, .-spi_lld_start
 362              		.section	.text.spi_lld_stop,"ax",%progbits
 363              		.align	2
 364              		.global	spi_lld_stop
 365              		.thumb
 366              		.thumb_func
 367              		.type	spi_lld_stop, %function
 368              	spi_lld_stop:
 369              	.LFB66:
 370              		.loc 1 310 0
 371              		.cfi_startproc
 372              		@ args = 0, pretend = 0, frame = 0
 373              		@ frame_needed = 0, uses_anonymous_args = 0
 374              	.LVL23:
 375              		.loc 1 313 0
 376 0000 0378     		ldrb	r3, [r0, #0]	@ zero_extendqisi2
 377              		.loc 1 310 0
 378 0002 10B5     		push	{r4, lr}
 379              	.LCFI3:
 380              		.cfi_def_cfa_offset 8
 381              		.cfi_offset 4, -8
 382              		.cfi_offset 14, -4
 383              		.loc 1 313 0
 384 0004 022B     		cmp	r3, #2
 385              		.loc 1 310 0
 386 0006 0446     		mov	r4, r0
 387              		.loc 1 313 0
 388 0008 00D0     		beq	.L35
 389 000a 10BD     		pop	{r4, pc}
 390              	.L35:
 391              		.loc 1 316 0
 392 000c C369     		ldr	r3, [r0, #28]
 393 000e 0022     		movs	r2, #0
 394              		.loc 1 317 0
 395 0010 006A     		ldr	r0, [r0, #32]
 396              	.LVL24:
 397              		.loc 1 316 0
 398 0012 1A80     		strh	r2, [r3, #0]	@ movhi
 399              		.loc 1 317 0
ARM GAS  C:\DOCUME~1\ADMINI~1\LOCALS~1\Temp\ccN8q9TS.s 			page 8


 400 0014 FFF7FEFF 		bl	dmaStreamRelease
 401              	.LVL25:
 402              		.loc 1 318 0
 403 0018 606A     		ldr	r0, [r4, #36]
 404 001a FFF7FEFF 		bl	dmaStreamRelease
 405              	.LVL26:
 406              		.loc 1 325 0
 407 001e 064B     		ldr	r3, .L36
 408 0020 9C42     		cmp	r4, r3
 409              		.loc 1 326 0
 410 0022 01BF     		itttt	eq
 411 0024 4FF46053 		moveq	r3, #14336
 412 0028 C4F20203 		movteq	r3, 16386
 413 002c 5A6A     		ldreq	r2, [r3, #36]
 414 002e 22F48042 		biceq	r2, r2, #16384
 415 0032 08BF     		it	eq
 416 0034 5A62     		streq	r2, [r3, #36]
 417 0036 10BD     		pop	{r4, pc}
 418              	.L37:
 419              		.align	2
 420              	.L36:
 421 0038 00000000 		.word	.LANCHOR1
 422              		.cfi_endproc
 423              	.LFE66:
 424              		.size	spi_lld_stop, .-spi_lld_stop
 425              		.section	.text.spi_lld_select,"ax",%progbits
 426              		.align	2
 427              		.global	spi_lld_select
 428              		.thumb
 429              		.thumb_func
 430              		.type	spi_lld_select, %function
 431              	spi_lld_select:
 432              	.LFB67:
 433              		.loc 1 342 0
 434              		.cfi_startproc
 435              		@ args = 0, pretend = 0, frame = 0
 436              		@ frame_needed = 0, uses_anonymous_args = 0
 437              		@ link register save eliminated.
 438              	.LVL27:
 439              		.loc 1 344 0
 440 0000 4368     		ldr	r3, [r0, #4]
 441 0002 0121     		movs	r1, #1
 442 0004 1A89     		ldrh	r2, [r3, #8]
 443 0006 5B68     		ldr	r3, [r3, #4]
 444 0008 01FA02F2 		lsl	r2, r1, r2
 445 000c 92B2     		uxth	r2, r2
 446 000e 5A83     		strh	r2, [r3, #26]	@ movhi
 447 0010 7047     		bx	lr
 448              		.cfi_endproc
 449              	.LFE67:
 450              		.size	spi_lld_select, .-spi_lld_select
 451 0012 00BF     		.section	.text.spi_lld_unselect,"ax",%progbits
 452              		.align	2
 453              		.global	spi_lld_unselect
 454              		.thumb
 455              		.thumb_func
 456              		.type	spi_lld_unselect, %function
ARM GAS  C:\DOCUME~1\ADMINI~1\LOCALS~1\Temp\ccN8q9TS.s 			page 9


 457              	spi_lld_unselect:
 458              	.LFB68:
 459              		.loc 1 355 0
 460              		.cfi_startproc
 461              		@ args = 0, pretend = 0, frame = 0
 462              		@ frame_needed = 0, uses_anonymous_args = 0
 463              		@ link register save eliminated.
 464              	.LVL28:
 465              		.loc 1 357 0
 466 0000 4368     		ldr	r3, [r0, #4]
 467 0002 0121     		movs	r1, #1
 468 0004 1A89     		ldrh	r2, [r3, #8]
 469 0006 5B68     		ldr	r3, [r3, #4]
 470 0008 01FA02F2 		lsl	r2, r1, r2
 471 000c 92B2     		uxth	r2, r2
 472 000e 1A83     		strh	r2, [r3, #24]	@ movhi
 473 0010 7047     		bx	lr
 474              		.cfi_endproc
 475              	.LFE68:
 476              		.size	spi_lld_unselect, .-spi_lld_unselect
 477 0012 00BF     		.section	.text.spi_lld_ignore,"ax",%progbits
 478              		.align	2
 479              		.global	spi_lld_ignore
 480              		.thumb
 481              		.thumb_func
 482              		.type	spi_lld_ignore, %function
 483              	spi_lld_ignore:
 484              	.LFB69:
 485              		.loc 1 371 0
 486              		.cfi_startproc
 487              		@ args = 0, pretend = 0, frame = 0
 488              		@ frame_needed = 0, uses_anonymous_args = 0
 489              		@ link register save eliminated.
 490              	.LVL29:
 491              		.loc 1 373 0
 492 0000 026A     		ldr	r2, [r0, #32]
 493              		.loc 1 377 0
 494 0002 436A     		ldr	r3, [r0, #36]
 495              		.loc 1 371 0
 496 0004 70B4     		push	{r4, r5, r6}
 497              	.LCFI4:
 498              		.cfi_def_cfa_offset 12
 499              		.cfi_offset 4, -12
 500              		.cfi_offset 5, -8
 501              		.cfi_offset 6, -4
 502              		.loc 1 373 0
 503 0006 1268     		ldr	r2, [r2, #0]
 504              		.loc 1 375 0
 505 0008 866A     		ldr	r6, [r0, #40]
 506              		.loc 1 377 0
 507 000a 1B68     		ldr	r3, [r3, #0]
 508              		.loc 1 379 0
 509 000c C56A     		ldr	r5, [r0, #44]
 510              		.loc 1 373 0
 511 000e 40F20004 		movw	r4, #:lower16:.LANCHOR2
 512              		.loc 1 377 0
 513 0012 40F20000 		movw	r0, #:lower16:.LANCHOR0
ARM GAS  C:\DOCUME~1\ADMINI~1\LOCALS~1\Temp\ccN8q9TS.s 			page 10


 514              	.LVL30:
 515              		.loc 1 373 0
 516 0016 C0F20004 		movt	r4, #:upper16:.LANCHOR2
 517              		.loc 1 377 0
 518 001a C0F20000 		movt	r0, #:upper16:.LANCHOR0
 519              		.loc 1 373 0
 520 001e D460     		str	r4, [r2, #12]
 521              		.loc 1 374 0
 522 0020 5160     		str	r1, [r2, #4]
 523              		.loc 1 375 0
 524 0022 1660     		str	r6, [r2, #0]
 525              		.loc 1 377 0
 526 0024 D860     		str	r0, [r3, #12]
 527              		.loc 1 378 0
 528 0026 5960     		str	r1, [r3, #4]
 529              		.loc 1 379 0
 530 0028 1D60     		str	r5, [r3, #0]
 531              		.loc 1 381 0
 532 002a 1168     		ldr	r1, [r2, #0]
 533              	.LVL31:
 534 002c 41F00101 		orr	r1, r1, #1
 535 0030 1160     		str	r1, [r2, #0]
 536              		.loc 1 382 0
 537 0032 1A68     		ldr	r2, [r3, #0]
 538              	.LVL32:
 539 0034 42F00102 		orr	r2, r2, #1
 540 0038 1A60     		str	r2, [r3, #0]
 541              		.loc 1 383 0
 542 003a 70BC     		pop	{r4, r5, r6}
 543 003c 7047     		bx	lr
 544              		.cfi_endproc
 545              	.LFE69:
 546              		.size	spi_lld_ignore, .-spi_lld_ignore
 547 003e 00BF     		.section	.text.spi_lld_exchange,"ax",%progbits
 548              		.align	2
 549              		.global	spi_lld_exchange
 550              		.thumb
 551              		.thumb_func
 552              		.type	spi_lld_exchange, %function
 553              	spi_lld_exchange:
 554              	.LFB70:
 555              		.loc 1 401 0
 556              		.cfi_startproc
 557              		@ args = 0, pretend = 0, frame = 0
 558              		@ frame_needed = 0, uses_anonymous_args = 0
 559              		@ link register save eliminated.
 560              	.LVL33:
 561 0000 F0B4     		push	{r4, r5, r6, r7}
 562              	.LCFI5:
 563              		.cfi_def_cfa_offset 16
 564              		.cfi_offset 4, -16
 565              		.cfi_offset 5, -12
 566              		.cfi_offset 6, -8
 567              		.cfi_offset 7, -4
 568              		.loc 1 403 0
 569 0002 046A     		ldr	r4, [r0, #32]
 570              		.loc 1 407 0
ARM GAS  C:\DOCUME~1\ADMINI~1\LOCALS~1\Temp\ccN8q9TS.s 			page 11


 571 0004 476A     		ldr	r7, [r0, #36]
 572              		.loc 1 405 0
 573 0006 866A     		ldr	r6, [r0, #40]
 574              		.loc 1 409 0
 575 0008 C56A     		ldr	r5, [r0, #44]
 576              		.loc 1 403 0
 577 000a 2468     		ldr	r4, [r4, #0]
 578              		.loc 1 407 0
 579 000c 3868     		ldr	r0, [r7, #0]
 580              	.LVL34:
 581              		.loc 1 405 0
 582 000e 46F08006 		orr	r6, r6, #128
 583              		.loc 1 409 0
 584 0012 45F08005 		orr	r5, r5, #128
 585              		.loc 1 403 0
 586 0016 E360     		str	r3, [r4, #12]
 587              		.loc 1 404 0
 588 0018 6160     		str	r1, [r4, #4]
 589              		.loc 1 405 0
 590 001a 2660     		str	r6, [r4, #0]
 591              		.loc 1 407 0
 592 001c C260     		str	r2, [r0, #12]
 593              		.loc 1 408 0
 594 001e 4160     		str	r1, [r0, #4]
 595              		.loc 1 409 0
 596 0020 0560     		str	r5, [r0, #0]
 597              		.loc 1 411 0
 598 0022 2368     		ldr	r3, [r4, #0]
 599              	.LVL35:
 600 0024 43F00103 		orr	r3, r3, #1
 601 0028 2360     		str	r3, [r4, #0]
 602              		.loc 1 412 0
 603 002a 0368     		ldr	r3, [r0, #0]
 604 002c 43F00103 		orr	r3, r3, #1
 605 0030 0360     		str	r3, [r0, #0]
 606              		.loc 1 413 0
 607 0032 F0BC     		pop	{r4, r5, r6, r7}
 608 0034 7047     		bx	lr
 609              		.cfi_endproc
 610              	.LFE70:
 611              		.size	spi_lld_exchange, .-spi_lld_exchange
 612 0036 00BF     		.section	.text.spi_lld_send,"ax",%progbits
 613              		.align	2
 614              		.global	spi_lld_send
 615              		.thumb
 616              		.thumb_func
 617              		.type	spi_lld_send, %function
 618              	spi_lld_send:
 619              	.LFB71:
 620              		.loc 1 428 0
 621              		.cfi_startproc
 622              		@ args = 0, pretend = 0, frame = 0
 623              		@ frame_needed = 0, uses_anonymous_args = 0
 624              		@ link register save eliminated.
 625              	.LVL36:
 626 0000 F0B4     		push	{r4, r5, r6, r7}
 627              	.LCFI6:
ARM GAS  C:\DOCUME~1\ADMINI~1\LOCALS~1\Temp\ccN8q9TS.s 			page 12


 628              		.cfi_def_cfa_offset 16
 629              		.cfi_offset 4, -16
 630              		.cfi_offset 5, -12
 631              		.cfi_offset 6, -8
 632              		.cfi_offset 7, -4
 633              		.loc 1 430 0
 634 0002 036A     		ldr	r3, [r0, #32]
 635              		.loc 1 434 0
 636 0004 476A     		ldr	r7, [r0, #36]
 637              		.loc 1 436 0
 638 0006 C66A     		ldr	r6, [r0, #44]
 639              		.loc 1 432 0
 640 0008 856A     		ldr	r5, [r0, #40]
 641              		.loc 1 430 0
 642 000a 1C68     		ldr	r4, [r3, #0]
 643 000c 40F20000 		movw	r0, #:lower16:.LANCHOR2
 644              	.LVL37:
 645              		.loc 1 434 0
 646 0010 3B68     		ldr	r3, [r7, #0]
 647              		.loc 1 430 0
 648 0012 C0F20000 		movt	r0, #:upper16:.LANCHOR2
 649              		.loc 1 436 0
 650 0016 46F08006 		orr	r6, r6, #128
 651              		.loc 1 430 0
 652 001a E060     		str	r0, [r4, #12]
 653              		.loc 1 431 0
 654 001c 6160     		str	r1, [r4, #4]
 655              		.loc 1 432 0
 656 001e 2560     		str	r5, [r4, #0]
 657              		.loc 1 434 0
 658 0020 DA60     		str	r2, [r3, #12]
 659              		.loc 1 435 0
 660 0022 5960     		str	r1, [r3, #4]
 661              		.loc 1 436 0
 662 0024 1E60     		str	r6, [r3, #0]
 663              		.loc 1 438 0
 664 0026 2268     		ldr	r2, [r4, #0]
 665              	.LVL38:
 666 0028 42F00102 		orr	r2, r2, #1
 667 002c 2260     		str	r2, [r4, #0]
 668              		.loc 1 439 0
 669 002e 1A68     		ldr	r2, [r3, #0]
 670 0030 42F00102 		orr	r2, r2, #1
 671 0034 1A60     		str	r2, [r3, #0]
 672              		.loc 1 440 0
 673 0036 F0BC     		pop	{r4, r5, r6, r7}
 674 0038 7047     		bx	lr
 675              		.cfi_endproc
 676              	.LFE71:
 677              		.size	spi_lld_send, .-spi_lld_send
 678 003a 00BF     		.section	.text.spi_lld_receive,"ax",%progbits
 679              		.align	2
 680              		.global	spi_lld_receive
 681              		.thumb
 682              		.thumb_func
 683              		.type	spi_lld_receive, %function
 684              	spi_lld_receive:
ARM GAS  C:\DOCUME~1\ADMINI~1\LOCALS~1\Temp\ccN8q9TS.s 			page 13


 685              	.LFB72:
 686              		.loc 1 455 0
 687              		.cfi_startproc
 688              		@ args = 0, pretend = 0, frame = 0
 689              		@ frame_needed = 0, uses_anonymous_args = 0
 690              		@ link register save eliminated.
 691              	.LVL39:
 692 0000 70B4     		push	{r4, r5, r6}
 693              	.LCFI7:
 694              		.cfi_def_cfa_offset 12
 695              		.cfi_offset 4, -12
 696              		.cfi_offset 5, -8
 697              		.cfi_offset 6, -4
 698              		.loc 1 461 0
 699 0002 436A     		ldr	r3, [r0, #36]
 700              		.loc 1 457 0
 701 0004 046A     		ldr	r4, [r0, #32]
 702              		.loc 1 459 0
 703 0006 866A     		ldr	r6, [r0, #40]
 704              		.loc 1 457 0
 705 0008 2468     		ldr	r4, [r4, #0]
 706              		.loc 1 461 0
 707 000a 1B68     		ldr	r3, [r3, #0]
 708              		.loc 1 463 0
 709 000c C56A     		ldr	r5, [r0, #44]
 710              		.loc 1 461 0
 711 000e 40F20000 		movw	r0, #:lower16:.LANCHOR0
 712              	.LVL40:
 713              		.loc 1 459 0
 714 0012 46F08006 		orr	r6, r6, #128
 715              		.loc 1 461 0
 716 0016 C0F20000 		movt	r0, #:upper16:.LANCHOR0
 717              		.loc 1 457 0
 718 001a E260     		str	r2, [r4, #12]
 719              		.loc 1 458 0
 720 001c 6160     		str	r1, [r4, #4]
 721              		.loc 1 459 0
 722 001e 2660     		str	r6, [r4, #0]
 723              		.loc 1 461 0
 724 0020 D860     		str	r0, [r3, #12]
 725              		.loc 1 462 0
 726 0022 5960     		str	r1, [r3, #4]
 727              		.loc 1 463 0
 728 0024 1D60     		str	r5, [r3, #0]
 729              		.loc 1 465 0
 730 0026 2268     		ldr	r2, [r4, #0]
 731              	.LVL41:
 732 0028 42F00102 		orr	r2, r2, #1
 733 002c 2260     		str	r2, [r4, #0]
 734              		.loc 1 466 0
 735 002e 1A68     		ldr	r2, [r3, #0]
 736 0030 42F00102 		orr	r2, r2, #1
 737 0034 1A60     		str	r2, [r3, #0]
 738              		.loc 1 467 0
 739 0036 70BC     		pop	{r4, r5, r6}
 740 0038 7047     		bx	lr
 741              		.cfi_endproc
ARM GAS  C:\DOCUME~1\ADMINI~1\LOCALS~1\Temp\ccN8q9TS.s 			page 14


 742              	.LFE72:
 743              		.size	spi_lld_receive, .-spi_lld_receive
 744 003a 00BF     		.section	.text.spi_lld_polled_exchange,"ax",%progbits
 745              		.align	2
 746              		.global	spi_lld_polled_exchange
 747              		.thumb
 748              		.thumb_func
 749              		.type	spi_lld_polled_exchange, %function
 750              	spi_lld_polled_exchange:
 751              	.LFB73:
 752              		.loc 1 481 0
 753              		.cfi_startproc
 754              		@ args = 0, pretend = 0, frame = 0
 755              		@ frame_needed = 0, uses_anonymous_args = 0
 756              		@ link register save eliminated.
 757              	.LVL42:
 758              		.loc 1 483 0
 759 0000 C269     		ldr	r2, [r0, #28]
 760 0002 9181     		strh	r1, [r2, #12]	@ movhi
 761              	.LVL43:
 762              	.L45:
 763              		.loc 1 484 0 discriminator 1
 764 0004 1389     		ldrh	r3, [r2, #8]
 765 0006 D907     		lsls	r1, r3, #31
 766 0008 FCD5     		bpl	.L45
 767              		.loc 1 486 0
 768 000a 9089     		ldrh	r0, [r2, #12]
 769              	.LVL44:
 770              		.loc 1 487 0
 771 000c 80B2     		uxth	r0, r0
 772 000e 7047     		bx	lr
 773              		.cfi_endproc
 774              	.LFE73:
 775              		.size	spi_lld_polled_exchange, .-spi_lld_polled_exchange
 776              		.global	SPID2
 777              		.section	.bss.dummytx,"aw",%nobits
 778              		.align	1
 779              		.set	.LANCHOR0,. + 0
 780              		.type	dummytx, %object
 781              		.size	dummytx, 2
 782              	dummytx:
 783 0000 0000     		.space	2
 784              		.section	.bss.SPID2,"aw",%nobits
 785              		.align	2
 786              		.set	.LANCHOR1,. + 0
 787              		.type	SPID2, %object
 788              		.size	SPID2, 48
 789              	SPID2:
 790 0000 00000000 		.space	48
 790      00000000 
 790      00000000 
 790      00000000 
 790      00000000 
 791              		.section	.bss.dummyrx,"aw",%nobits
 792              		.align	1
 793              		.set	.LANCHOR2,. + 0
 794              		.type	dummyrx, %object
ARM GAS  C:\DOCUME~1\ADMINI~1\LOCALS~1\Temp\ccN8q9TS.s 			page 15


 795              		.size	dummyrx, 2
 796              	dummyrx:
 797 0000 0000     		.space	2
 798              		.text
 799              	.Letext0:
 800              		.file 2 "c:\\program files\\yagarto\\bin\\../lib/gcc/arm-none-eabi/4.7.1/include/stddef.h"
 801              		.file 3 "c:/program files/yagarto/lib/gcc/../../arm-none-eabi/sys-include/stdint.h"
 802              		.file 4 "../../os/ports/GCC/ARMCMx/chtypes.h"
 803              		.file 5 "../../os/kernel/include/chlists.h"
 804              		.file 6 "../../os/kernel/include/chthreads.h"
 805              		.file 7 "../../os/ports/GCC/ARMCMx/chcore_v7m.h"
 806              		.file 8 "../../os/kernel/include/chmtx.h"
 807              		.file 9 "../../os/hal/platforms/STM32L1xx/stm32l1xx.h"
 808              		.file 10 "../../os/hal/platforms/STM32L1xx/stm32_dma.h"
 809              		.file 11 "../../os/hal/platforms/STM32/GPIOv2/pal_lld.h"
 810              		.file 12 "../../os/hal/include/spi.h"
 811              		.file 13 "../../os/hal/platforms/STM32/spi_lld.h"
 812              		.file 14 "../../os/ports/common/ARMCMx/CMSIS/include/core_cm3.h"
 813              		.file 15 "../../os/kernel/include/chschd.h"