ARM GAS  C:\DOCUME~1\ADMINI~1\LOCALS~1\Temp\ccQM6CxM.s 			page 1


   1              		.syntax unified
   2              		.cpu cortex-m3
   3              		.fpu softvfp
   4              		.eabi_attribute 20, 1
   5              		.eabi_attribute 21, 1
   6              		.eabi_attribute 23, 3
   7              		.eabi_attribute 24, 1
   8              		.eabi_attribute 25, 1
   9              		.eabi_attribute 26, 1
  10              		.eabi_attribute 30, 2
  11              		.eabi_attribute 34, 1
  12              		.eabi_attribute 18, 4
  13              		.thumb
  14              		.file	"evtimer.c"
  15              		.text
  16              	.Ltext0:
  17              		.cfi_sections	.debug_frame
  18              		.section	.text.tmrcb,"ax",%progbits
  19              		.align	2
  20              		.thumb
  21              		.thumb_func
  22              		.type	tmrcb, %function
  23              	tmrcb:
  24              	.LFB7:
  25              		.file 1 "../../os/various/evtimer.c"
  26              		.loc 1 39 0
  27              		.cfi_startproc
  28              		@ args = 0, pretend = 0, frame = 0
  29              		@ frame_needed = 0, uses_anonymous_args = 0
  30              	.LVL0:
  31 0000 10B5     		push	{r4, lr}
  32              	.LCFI0:
  33              		.cfi_def_cfa_offset 8
  34              		.cfi_offset 4, -8
  35              		.cfi_offset 14, -4
  36              		.loc 1 42 0
  37 0002 0021     		movs	r1, #0
  38              		.loc 1 39 0
  39 0004 0446     		mov	r4, r0
  40              	.LVL1:
  41              		.loc 1 42 0
  42 0006 00F11400 		add	r0, r0, #20
  43              	.LVL2:
  44 000a FFF7FEFF 		bl	chEvtBroadcastFlagsI
  45              	.LVL3:
  46              		.loc 1 43 0
  47 000e A169     		ldr	r1, [r4, #24]
  48 0010 40F20002 		movw	r2, #:lower16:tmrcb
  49 0014 2046     		mov	r0, r4
  50 0016 C0F20002 		movt	r2, #:upper16:tmrcb
  51 001a 2346     		mov	r3, r4
  52              		.loc 1 44 0
  53 001c BDE81040 		pop	{r4, lr}
  54              		.loc 1 43 0
  55 0020 FFF7FEBF 		b	chVTSetI
  56              	.LVL4:
  57              		.cfi_endproc
ARM GAS  C:\DOCUME~1\ADMINI~1\LOCALS~1\Temp\ccQM6CxM.s 			page 2


  58              	.LFE7:
  59              		.size	tmrcb, .-tmrcb
  60              		.section	.text.evtStart,"ax",%progbits
  61              		.align	2
  62              		.global	evtStart
  63              		.thumb
  64              		.thumb_func
  65              		.type	evtStart, %function
  66              	evtStart:
  67              	.LFB8:
  68              		.loc 1 52 0
  69              		.cfi_startproc
  70              		@ args = 0, pretend = 0, frame = 0
  71              		@ frame_needed = 0, uses_anonymous_args = 0
  72              	.LVL5:
  73 0000 10B5     		push	{r4, lr}
  74              	.LCFI1:
  75              		.cfi_def_cfa_offset 8
  76              		.cfi_offset 4, -8
  77              		.cfi_offset 14, -4
  78              	.LBB2:
  79              		.loc 1 54 0
  80 0002 2023     		movs	r3, #32
  81              	.LVL6:
  82              	.LBE2:
  83              		.loc 1 52 0
  84 0004 0446     		mov	r4, r0
  85              	.LBB3:
  86              		.loc 1 54 0
  87              	@ 54 "../../os/various/evtimer.c" 1
  88 0006 83F31188 		msr     BASEPRI, r3
  89              	@ 0 "" 2
  90              	.LVL7:
  91              		.thumb
  92              	.LBE3:
  93              		.loc 1 56 0
  94 000a C368     		ldr	r3, [r0, #12]
  95              	.LVL8:
  96 000c 1BB1     		cbz	r3, .L5
  97              	.LVL9:
  98              	.L3:
  99              	.LBB4:
 100              		.loc 1 59 0
 101 000e 0023     		movs	r3, #0
 102              	.LVL10:
 103              	@ 59 "../../os/various/evtimer.c" 1
 104 0010 83F31188 		msr     BASEPRI, r3
 105              	@ 0 "" 2
 106              	.LVL11:
 107              		.thumb
 108 0014 10BD     		pop	{r4, pc}
 109              	.LVL12:
 110              	.L5:
 111              	.LBE4:
 112              		.loc 1 57 0
 113 0016 8169     		ldr	r1, [r0, #24]
 114 0018 024A     		ldr	r2, .L6
ARM GAS  C:\DOCUME~1\ADMINI~1\LOCALS~1\Temp\ccQM6CxM.s 			page 3


 115 001a 0346     		mov	r3, r0
 116 001c FFF7FEFF 		bl	chVTSetI
 117              	.LVL13:
 118 0020 F5E7     		b	.L3
 119              	.L7:
 120 0022 00BF     		.align	2
 121              	.L6:
 122 0024 00000000 		.word	tmrcb
 123              		.cfi_endproc
 124              	.LFE8:
 125              		.size	evtStart, .-evtStart
 126              		.section	.text.evtStop,"ax",%progbits
 127              		.align	2
 128              		.global	evtStop
 129              		.thumb
 130              		.thumb_func
 131              		.type	evtStop, %function
 132              	evtStop:
 133              	.LFB9:
 134              		.loc 1 68 0
 135              		.cfi_startproc
 136              		@ args = 0, pretend = 0, frame = 0
 137              		@ frame_needed = 0, uses_anonymous_args = 0
 138              	.LVL14:
 139 0000 08B5     		push	{r3, lr}
 140              	.LCFI2:
 141              		.cfi_def_cfa_offset 8
 142              		.cfi_offset 3, -8
 143              		.cfi_offset 14, -4
 144              	.LBB5:
 145              		.loc 1 70 0
 146 0002 2023     		movs	r3, #32
 147              	.LVL15:
 148              	@ 70 "../../os/various/evtimer.c" 1
 149 0004 83F31188 		msr     BASEPRI, r3
 150              	@ 0 "" 2
 151              	.LVL16:
 152              		.thumb
 153              	.LBE5:
 154              		.loc 1 72 0
 155 0008 C368     		ldr	r3, [r0, #12]
 156              	.LVL17:
 157 000a 0BB1     		cbz	r3, .L9
 158              		.loc 1 73 0
 159 000c FFF7FEFF 		bl	chVTResetI
 160              	.LVL18:
 161              	.L9:
 162              	.LBB6:
 163              		.loc 1 75 0
 164 0010 0023     		movs	r3, #0
 165              	.LVL19:
 166              	@ 75 "../../os/various/evtimer.c" 1
 167 0012 83F31188 		msr     BASEPRI, r3
 168              	@ 0 "" 2
 169              	.LVL20:
 170              		.thumb
 171 0016 08BD     		pop	{r3, pc}
ARM GAS  C:\DOCUME~1\ADMINI~1\LOCALS~1\Temp\ccQM6CxM.s 			page 4


 172              	.LBE6:
 173              		.cfi_endproc
 174              	.LFE9:
 175              		.size	evtStop, .-evtStop
 176              		.text
 177              	.Letext0:
 178              		.file 2 "c:/program files/yagarto/lib/gcc/../../arm-none-eabi/sys-include/stdint.h"
 179              		.file 3 "../../os/ports/GCC/ARMCMx/chtypes.h"
 180              		.file 4 "../../os/kernel/include/chlists.h"
 181              		.file 5 "../../os/kernel/include/chthreads.h"
 182              		.file 6 "../../os/ports/GCC/ARMCMx/chcore_v7m.h"
 183              		.file 7 "../../os/kernel/include/chvt.h"
 184              		.file 8 "../../os/kernel/include/chmtx.h"
 185              		.file 9 "../../os/kernel/include/chevents.h"
 186              		.file 10 "../../os/various/evtimer.h"