ARM GAS  C:\DOCUME~1\ADMINI~1\LOCALS~1\Temp\cc8bhCwt.s 			page 1


   1              		.syntax unified
   2              		.cpu cortex-m3
   3              		.fpu softvfp
   4              		.eabi_attribute 20, 1
   5              		.eabi_attribute 21, 1
   6              		.eabi_attribute 23, 3
   7              		.eabi_attribute 24, 1
   8              		.eabi_attribute 25, 1
   9              		.eabi_attribute 26, 1
  10              		.eabi_attribute 30, 2
  11              		.eabi_attribute 34, 1
  12              		.eabi_attribute 18, 4
  13              		.thumb
  14              		.file	"nvic.c"
  15              		.text
  16              	.Ltext0:
  17              		.cfi_sections	.debug_frame
  18              		.section	.text.nvicEnableVector,"ax",%progbits
  19              		.align	2
  20              		.global	nvicEnableVector
  21              		.thumb
  22              		.thumb_func
  23              		.type	nvicEnableVector, %function
  24              	nvicEnableVector:
  25              	.LFB7:
  26              		.file 1 "../../os/ports/common/ARMCMx/nvic.c"
  27              		.loc 1 46 0
  28              		.cfi_startproc
  29              		@ args = 0, pretend = 0, frame = 0
  30              		@ frame_needed = 0, uses_anonymous_args = 0
  31              		@ link register save eliminated.
  32              	.LVL0:
  33              		.loc 1 47 0
  34 0000 00F00303 		and	r3, r0, #3
  35              		.loc 1 46 0
  36 0004 70B4     		push	{r4, r5, r6}
  37              	.LCFI0:
  38              		.cfi_def_cfa_offset 12
  39              		.cfi_offset 4, -12
  40              		.cfi_offset 5, -8
  41              		.cfi_offset 6, -4
  42              		.loc 1 47 0
  43 0006 DB00     		lsls	r3, r3, #3
  44              	.LVL1:
  45              		.loc 1 49 0
  46 0008 FF25     		movs	r5, #255
  47 000a 05FA03F5 		lsl	r5, r5, r3
  48 000e 01FA03F1 		lsl	r1, r1, r3
  49              	.LVL2:
  50              		.loc 1 50 0
  51 0012 0122     		movs	r2, #1
  52 0014 00F01F03 		and	r3, r0, #31
  53              	.LVL3:
  54 0018 02FA03F2 		lsl	r2, r2, r3
  55              		.loc 1 49 0
  56 001c 8408     		lsrs	r4, r0, #2
  57 001e 4FF46143 		mov	r3, #57600
ARM GAS  C:\DOCUME~1\ADMINI~1\LOCALS~1\Temp\cc8bhCwt.s 			page 2


  58 0022 CEF20003 		movt	r3, 57344
  59 0026 C034     		adds	r4, r4, #192
  60 0028 53F82460 		ldr	r6, [r3, r4, lsl #2]
  61              		.loc 1 50 0
  62 002c 4009     		lsrs	r0, r0, #5
  63              	.LVL4:
  64              		.loc 1 49 0
  65 002e 26EA0505 		bic	r5, r6, r5
  66 0032 0D43     		orrs	r5, r5, r1
  67              		.loc 1 50 0
  68 0034 00F16006 		add	r6, r0, #96
  69              		.loc 1 49 0
  70 0038 43F82450 		str	r5, [r3, r4, lsl #2]
  71              		.loc 1 50 0
  72 003c 43F82620 		str	r2, [r3, r6, lsl #2]
  73              		.loc 1 51 0
  74 0040 43F82020 		str	r2, [r3, r0, lsl #2]
  75              		.loc 1 52 0
  76 0044 70BC     		pop	{r4, r5, r6}
  77 0046 7047     		bx	lr
  78              		.cfi_endproc
  79              	.LFE7:
  80              		.size	nvicEnableVector, .-nvicEnableVector
  81              		.section	.text.nvicDisableVector,"ax",%progbits
  82              		.align	2
  83              		.global	nvicDisableVector
  84              		.thumb
  85              		.thumb_func
  86              		.type	nvicDisableVector, %function
  87              	nvicDisableVector:
  88              	.LFB8:
  89              		.loc 1 60 0
  90              		.cfi_startproc
  91              		@ args = 0, pretend = 0, frame = 0
  92              		@ frame_needed = 0, uses_anonymous_args = 0
  93              		@ link register save eliminated.
  94              	.LVL5:
  95 0000 10B4     		push	{r4}
  96              	.LCFI1:
  97              		.cfi_def_cfa_offset 4
  98              		.cfi_offset 4, -4
  99              		.loc 1 63 0
 100 0002 00F01F03 		and	r3, r0, #31
 101 0006 0124     		movs	r4, #1
 102 0008 04FA03F4 		lsl	r4, r4, r3
 103              		.loc 1 61 0
 104 000c 00F00302 		and	r2, r0, #3
 105              		.loc 1 64 0
 106 0010 FF23     		movs	r3, #255
 107              		.loc 1 61 0
 108 0012 D200     		lsls	r2, r2, #3
 109              	.LVL6:
 110              		.loc 1 64 0
 111 0014 03FA02F2 		lsl	r2, r3, r2
 112              	.LVL7:
 113              		.loc 1 63 0
 114 0018 4109     		lsrs	r1, r0, #5
ARM GAS  C:\DOCUME~1\ADMINI~1\LOCALS~1\Temp\cc8bhCwt.s 			page 3


 115 001a 4FF46143 		mov	r3, #57600
 116 001e CEF20003 		movt	r3, 57344
 117 0022 2031     		adds	r1, r1, #32
 118              		.loc 1 64 0
 119 0024 8008     		lsrs	r0, r0, #2
 120              	.LVL8:
 121              		.loc 1 63 0
 122 0026 43F82140 		str	r4, [r3, r1, lsl #2]
 123              		.loc 1 64 0
 124 002a C030     		adds	r0, r0, #192
 125 002c 53F82010 		ldr	r1, [r3, r0, lsl #2]
 126 0030 21EA0202 		bic	r2, r1, r2
 127 0034 43F82020 		str	r2, [r3, r0, lsl #2]
 128              		.loc 1 65 0
 129 0038 10BC     		pop	{r4}
 130 003a 7047     		bx	lr
 131              		.cfi_endproc
 132              	.LFE8:
 133              		.size	nvicDisableVector, .-nvicDisableVector
 134              		.section	.text.nvicSetSystemHandlerPriority,"ax",%progbits
 135              		.align	2
 136              		.global	nvicSetSystemHandlerPriority
 137              		.thumb
 138              		.thumb_func
 139              		.type	nvicSetSystemHandlerPriority, %function
 140              	nvicSetSystemHandlerPriority:
 141              	.LFB9:
 142              		.loc 1 74 0
 143              		.cfi_startproc
 144              		@ args = 0, pretend = 0, frame = 0
 145              		@ frame_needed = 0, uses_anonymous_args = 0
 146              		@ link register save eliminated.
 147              	.LVL9:
 148              		.loc 1 75 0
 149 0000 00F00303 		and	r3, r0, #3
 150 0004 DB00     		lsls	r3, r3, #3
 151              	.LVL10:
 152              		.loc 1 78 0
 153 0006 FF22     		movs	r2, #255
 154 0008 02FA03F2 		lsl	r2, r2, r3
 155 000c 01FA03F1 		lsl	r1, r1, r3
 156              	.LVL11:
 157              		.loc 1 77 0
 158 0010 8008     		lsrs	r0, r0, #2
 159              	.LVL12:
 160 0012 4FF46D43 		mov	r3, #60672
 161              	.LVL13:
 162 0016 CEF20003 		movt	r3, 57344
 163 001a 0630     		adds	r0, r0, #6
 164              		.loc 1 74 0
 165 001c 10B4     		push	{r4}
 166              	.LCFI2:
 167              		.cfi_def_cfa_offset 4
 168              		.cfi_offset 4, -4
 169              		.loc 1 77 0
 170 001e 53F82040 		ldr	r4, [r3, r0, lsl #2]
 171 0022 24EA0202 		bic	r2, r4, r2
ARM GAS  C:\DOCUME~1\ADMINI~1\LOCALS~1\Temp\cc8bhCwt.s 			page 4


 172              		.loc 1 78 0
 173 0026 0A43     		orrs	r2, r2, r1
 174              		.loc 1 77 0
 175 0028 43F82020 		str	r2, [r3, r0, lsl #2]
 176              		.loc 1 79 0
 177 002c 10BC     		pop	{r4}
 178 002e 7047     		bx	lr
 179              		.cfi_endproc
 180              	.LFE9:
 181              		.size	nvicSetSystemHandlerPriority, .-nvicSetSystemHandlerPriority
 182              		.text
 183              	.Letext0:
 184              		.file 2 "c:/program files/yagarto/lib/gcc/../../arm-none-eabi/sys-include/stdint.h"
 185              		.file 3 "../../os/ports/common/ARMCMx/nvic.h"
 186              		.section	.debug_info,"",%progbits
 187              	.Ldebug_info0:
 188 0000 4A040000 		.4byte	0x44a
 189 0004 0200     		.2byte	0x2
 190 0006 00000000 		.4byte	.Ldebug_abbrev0
 191 000a 04       		.byte	0x4
 192 000b 01       		.uleb128 0x1
 193 000c 79010000 		.4byte	.LASF45
 194 0010 01       		.byte	0x1
 195 0011 0F000000 		.4byte	.LASF46
 196 0015 60000000 		.4byte	.LASF47
 197 0019 00000000 		.4byte	.Ldebug_ranges0+0
 198 001d 00000000 		.4byte	0
 199 0021 00000000 		.4byte	0
 200 0025 00000000 		.4byte	.Ldebug_line0
 201 0029 02       		.uleb128 0x2
 202 002a 04       		.byte	0x4
 203 002b 05       		.byte	0x5
 204 002c 696E7400 		.ascii	"int\000"
 205 0030 03       		.uleb128 0x3
 206 0031 04       		.byte	0x4
 207 0032 07       		.byte	0x7
 208 0033 09010000 		.4byte	.LASF0
 209 0037 03       		.uleb128 0x3
 210 0038 01       		.byte	0x1
 211 0039 06       		.byte	0x6
 212 003a B2010000 		.4byte	.LASF1
 213 003e 03       		.uleb128 0x3
 214 003f 01       		.byte	0x1
 215 0040 08       		.byte	0x8
 216 0041 87000000 		.4byte	.LASF2
 217 0045 03       		.uleb128 0x3
 218 0046 02       		.byte	0x2
 219 0047 05       		.byte	0x5
 220 0048 FF000000 		.4byte	.LASF3
 221 004c 03       		.uleb128 0x3
 222 004d 02       		.byte	0x2
 223 004e 07       		.byte	0x7
 224 004f C5000000 		.4byte	.LASF4
 225 0053 03       		.uleb128 0x3
 226 0054 04       		.byte	0x4
 227 0055 05       		.byte	0x5
 228 0056 A4010000 		.4byte	.LASF5
ARM GAS  C:\DOCUME~1\ADMINI~1\LOCALS~1\Temp\cc8bhCwt.s 			page 5


 229 005a 04       		.uleb128 0x4
 230 005b 9B010000 		.4byte	.LASF9
 231 005f 02       		.byte	0x2
 232 0060 50       		.byte	0x50
 233 0061 65000000 		.4byte	0x65
 234 0065 03       		.uleb128 0x3
 235 0066 04       		.byte	0x4
 236 0067 07       		.byte	0x7
 237 0068 E2000000 		.4byte	.LASF6
 238 006c 03       		.uleb128 0x3
 239 006d 08       		.byte	0x8
 240 006e 05       		.byte	0x5
 241 006f 60010000 		.4byte	.LASF7
 242 0073 03       		.uleb128 0x3
 243 0074 08       		.byte	0x8
 244 0075 07       		.byte	0x7
 245 0076 20010000 		.4byte	.LASF8
 246 007a 04       		.uleb128 0x4
 247 007b 53000000 		.4byte	.LASF10
 248 007f 03       		.byte	0x3
 249 0080 3A       		.byte	0x3a
 250 0081 85000000 		.4byte	0x85
 251 0085 05       		.uleb128 0x5
 252 0086 5A000000 		.4byte	0x5a
 253 008a 06       		.uleb128 0x6
 254 008b 040E     		.2byte	0xe04
 255 008d 03       		.byte	0x3
 256 008e 6A       		.byte	0x6a
 257 008f 55010000 		.4byte	0x155
 258 0093 07       		.uleb128 0x7
 259 0094 85010000 		.4byte	.LASF11
 260 0098 03       		.byte	0x3
 261 0099 6B       		.byte	0x6b
 262 009a 6C010000 		.4byte	0x16c
 263 009e 02       		.byte	0x2
 264 009f 23       		.byte	0x23
 265 00a0 00       		.uleb128 0
 266 00a1 07       		.uleb128 0x7
 267 00a2 95000000 		.4byte	.LASF12
 268 00a6 03       		.byte	0x3
 269 00a7 6C       		.byte	0x6c
 270 00a8 81010000 		.4byte	0x181
 271 00ac 02       		.byte	0x2
 272 00ad 23       		.byte	0x23
 273 00ae 20       		.uleb128 0x20
 274 00af 07       		.uleb128 0x7
 275 00b0 5B000000 		.4byte	.LASF13
 276 00b4 03       		.byte	0x3
 277 00b5 6D       		.byte	0x6d
 278 00b6 86010000 		.4byte	0x186
 279 00ba 03       		.byte	0x3
 280 00bb 23       		.byte	0x23
 281 00bc 8001     		.uleb128 0x80
 282 00be 07       		.uleb128 0x7
 283 00bf 9D000000 		.4byte	.LASF14
 284 00c3 03       		.byte	0x3
 285 00c4 6E       		.byte	0x6e
ARM GAS  C:\DOCUME~1\ADMINI~1\LOCALS~1\Temp\cc8bhCwt.s 			page 6


 286 00c5 8B010000 		.4byte	0x18b
 287 00c9 03       		.byte	0x3
 288 00ca 23       		.byte	0x23
 289 00cb A001     		.uleb128 0xa0
 290 00cd 07       		.uleb128 0x7
 291 00ce 16010000 		.4byte	.LASF15
 292 00d2 03       		.byte	0x3
 293 00d3 6F       		.byte	0x6f
 294 00d4 90010000 		.4byte	0x190
 295 00d8 03       		.byte	0x3
 296 00d9 23       		.byte	0x23
 297 00da 8002     		.uleb128 0x100
 298 00dc 07       		.uleb128 0x7
 299 00dd A5000000 		.4byte	.LASF16
 300 00e1 03       		.byte	0x3
 301 00e2 70       		.byte	0x70
 302 00e3 95010000 		.4byte	0x195
 303 00e7 03       		.byte	0x3
 304 00e8 23       		.byte	0x23
 305 00e9 A002     		.uleb128 0x120
 306 00eb 07       		.uleb128 0x7
 307 00ec 05000000 		.4byte	.LASF17
 308 00f0 03       		.byte	0x3
 309 00f1 71       		.byte	0x71
 310 00f2 9A010000 		.4byte	0x19a
 311 00f6 03       		.byte	0x3
 312 00f7 23       		.byte	0x23
 313 00f8 8003     		.uleb128 0x180
 314 00fa 07       		.uleb128 0x7
 315 00fb AD000000 		.4byte	.LASF18
 316 00ff 03       		.byte	0x3
 317 0100 72       		.byte	0x72
 318 0101 9F010000 		.4byte	0x19f
 319 0105 03       		.byte	0x3
 320 0106 23       		.byte	0x23
 321 0107 A003     		.uleb128 0x1a0
 322 0109 07       		.uleb128 0x7
 323 010a DB010000 		.4byte	.LASF19
 324 010e 03       		.byte	0x3
 325 010f 73       		.byte	0x73
 326 0110 A4010000 		.4byte	0x1a4
 327 0114 03       		.byte	0x3
 328 0115 23       		.byte	0x23
 329 0116 8004     		.uleb128 0x200
 330 0118 07       		.uleb128 0x7
 331 0119 B5000000 		.4byte	.LASF20
 332 011d 03       		.byte	0x3
 333 011e 74       		.byte	0x74
 334 011f B9010000 		.4byte	0x1b9
 335 0123 03       		.byte	0x3
 336 0124 23       		.byte	0x23
 337 0125 A004     		.uleb128 0x220
 338 0127 08       		.uleb128 0x8
 339 0128 49505200 		.ascii	"IPR\000"
 340 012c 03       		.byte	0x3
 341 012d 75       		.byte	0x75
 342 012e CE010000 		.4byte	0x1ce
ARM GAS  C:\DOCUME~1\ADMINI~1\LOCALS~1\Temp\cc8bhCwt.s 			page 7


 343 0132 03       		.byte	0x3
 344 0133 23       		.byte	0x23
 345 0134 8006     		.uleb128 0x300
 346 0136 07       		.uleb128 0x7
 347 0137 BD000000 		.4byte	.LASF21
 348 013b 03       		.byte	0x3
 349 013c 76       		.byte	0x76
 350 013d E4010000 		.4byte	0x1e4
 351 0141 03       		.byte	0x3
 352 0142 23       		.byte	0x23
 353 0143 F007     		.uleb128 0x3f0
 354 0145 07       		.uleb128 0x7
 355 0146 FA000000 		.4byte	.LASF22
 356 014a 03       		.byte	0x3
 357 014b 77       		.byte	0x77
 358 014c 7A000000 		.4byte	0x7a
 359 0150 03       		.byte	0x3
 360 0151 23       		.byte	0x23
 361 0152 801C     		.uleb128 0xe00
 362 0154 00       		.byte	0
 363 0155 09       		.uleb128 0x9
 364 0156 7A000000 		.4byte	0x7a
 365 015a 65010000 		.4byte	0x165
 366 015e 0A       		.uleb128 0xa
 367 015f 65010000 		.4byte	0x165
 368 0163 07       		.byte	0x7
 369 0164 00       		.byte	0
 370 0165 03       		.uleb128 0x3
 371 0166 04       		.byte	0x4
 372 0167 07       		.byte	0x7
 373 0168 57010000 		.4byte	.LASF23
 374 016c 05       		.uleb128 0x5
 375 016d 55010000 		.4byte	0x155
 376 0171 09       		.uleb128 0x9
 377 0172 7A000000 		.4byte	0x7a
 378 0176 81010000 		.4byte	0x181
 379 017a 0A       		.uleb128 0xa
 380 017b 65010000 		.4byte	0x165
 381 017f 17       		.byte	0x17
 382 0180 00       		.byte	0
 383 0181 05       		.uleb128 0x5
 384 0182 71010000 		.4byte	0x171
 385 0186 05       		.uleb128 0x5
 386 0187 55010000 		.4byte	0x155
 387 018b 05       		.uleb128 0x5
 388 018c 71010000 		.4byte	0x171
 389 0190 05       		.uleb128 0x5
 390 0191 55010000 		.4byte	0x155
 391 0195 05       		.uleb128 0x5
 392 0196 71010000 		.4byte	0x171
 393 019a 05       		.uleb128 0x5
 394 019b 55010000 		.4byte	0x155
 395 019f 05       		.uleb128 0x5
 396 01a0 71010000 		.4byte	0x171
 397 01a4 05       		.uleb128 0x5
 398 01a5 55010000 		.4byte	0x155
 399 01a9 09       		.uleb128 0x9
ARM GAS  C:\DOCUME~1\ADMINI~1\LOCALS~1\Temp\cc8bhCwt.s 			page 8


 400 01aa 7A000000 		.4byte	0x7a
 401 01ae B9010000 		.4byte	0x1b9
 402 01b2 0A       		.uleb128 0xa
 403 01b3 65010000 		.4byte	0x165
 404 01b7 37       		.byte	0x37
 405 01b8 00       		.byte	0
 406 01b9 05       		.uleb128 0x5
 407 01ba A9010000 		.4byte	0x1a9
 408 01be 09       		.uleb128 0x9
 409 01bf 7A000000 		.4byte	0x7a
 410 01c3 CE010000 		.4byte	0x1ce
 411 01c7 0A       		.uleb128 0xa
 412 01c8 65010000 		.4byte	0x165
 413 01cc 3B       		.byte	0x3b
 414 01cd 00       		.byte	0
 415 01ce 05       		.uleb128 0x5
 416 01cf BE010000 		.4byte	0x1be
 417 01d3 09       		.uleb128 0x9
 418 01d4 7A000000 		.4byte	0x7a
 419 01d8 E4010000 		.4byte	0x1e4
 420 01dc 0B       		.uleb128 0xb
 421 01dd 65010000 		.4byte	0x165
 422 01e1 8302     		.2byte	0x283
 423 01e3 00       		.byte	0
 424 01e4 05       		.uleb128 0x5
 425 01e5 D3010000 		.4byte	0x1d3
 426 01e9 04       		.uleb128 0x4
 427 01ea 45000000 		.4byte	.LASF24
 428 01ee 03       		.byte	0x3
 429 01ef 78       		.byte	0x78
 430 01f0 8A000000 		.4byte	0x8a
 431 01f4 0C       		.uleb128 0xc
 432 01f5 8C       		.byte	0x8c
 433 01f6 03       		.byte	0x3
 434 01f7 89       		.byte	0x89
 435 01f8 24030000 		.4byte	0x324
 436 01fc 07       		.uleb128 0x7
 437 01fd 6E010000 		.4byte	.LASF25
 438 0201 03       		.byte	0x3
 439 0202 8A       		.byte	0x8a
 440 0203 7A000000 		.4byte	0x7a
 441 0207 02       		.byte	0x2
 442 0208 23       		.byte	0x23
 443 0209 00       		.uleb128 0
 444 020a 07       		.uleb128 0x7
 445 020b 37010000 		.4byte	.LASF26
 446 020f 03       		.byte	0x3
 447 0210 8B       		.byte	0x8b
 448 0211 7A000000 		.4byte	0x7a
 449 0215 02       		.byte	0x2
 450 0216 23       		.byte	0x23
 451 0217 04       		.uleb128 0x4
 452 0218 07       		.uleb128 0x7
 453 0219 4E000000 		.4byte	.LASF27
 454 021d 03       		.byte	0x3
 455 021e 8C       		.byte	0x8c
 456 021f 7A000000 		.4byte	0x7a
ARM GAS  C:\DOCUME~1\ADMINI~1\LOCALS~1\Temp\cc8bhCwt.s 			page 9


 457 0223 02       		.byte	0x2
 458 0224 23       		.byte	0x23
 459 0225 08       		.uleb128 0x8
 460 0226 07       		.uleb128 0x7
 461 0227 44010000 		.4byte	.LASF28
 462 022b 03       		.byte	0x3
 463 022c 8D       		.byte	0x8d
 464 022d 7A000000 		.4byte	0x7a
 465 0231 02       		.byte	0x2
 466 0232 23       		.byte	0x23
 467 0233 0C       		.uleb128 0xc
 468 0234 08       		.uleb128 0x8
 469 0235 53435200 		.ascii	"SCR\000"
 470 0239 03       		.byte	0x3
 471 023a 8E       		.byte	0x8e
 472 023b 7A000000 		.4byte	0x7a
 473 023f 02       		.byte	0x2
 474 0240 23       		.byte	0x23
 475 0241 10       		.uleb128 0x10
 476 0242 08       		.uleb128 0x8
 477 0243 43435200 		.ascii	"CCR\000"
 478 0247 03       		.byte	0x3
 479 0248 8F       		.byte	0x8f
 480 0249 7A000000 		.4byte	0x7a
 481 024d 02       		.byte	0x2
 482 024e 23       		.byte	0x23
 483 024f 14       		.uleb128 0x14
 484 0250 07       		.uleb128 0x7
 485 0251 AD010000 		.4byte	.LASF29
 486 0255 03       		.byte	0x3
 487 0256 90       		.byte	0x90
 488 0257 34030000 		.4byte	0x334
 489 025b 02       		.byte	0x2
 490 025c 23       		.byte	0x23
 491 025d 18       		.uleb128 0x18
 492 025e 07       		.uleb128 0x7
 493 025f 95010000 		.4byte	.LASF30
 494 0263 03       		.byte	0x3
 495 0264 91       		.byte	0x91
 496 0265 7A000000 		.4byte	0x7a
 497 0269 02       		.byte	0x2
 498 026a 23       		.byte	0x23
 499 026b 24       		.uleb128 0x24
 500 026c 07       		.uleb128 0x7
 501 026d D8000000 		.4byte	.LASF31
 502 0271 03       		.byte	0x3
 503 0272 92       		.byte	0x92
 504 0273 7A000000 		.4byte	0x7a
 505 0277 02       		.byte	0x2
 506 0278 23       		.byte	0x23
 507 0279 28       		.uleb128 0x28
 508 027a 07       		.uleb128 0x7
 509 027b DD000000 		.4byte	.LASF32
 510 027f 03       		.byte	0x3
 511 0280 93       		.byte	0x93
 512 0281 7A000000 		.4byte	0x7a
 513 0285 02       		.byte	0x2
ARM GAS  C:\DOCUME~1\ADMINI~1\LOCALS~1\Temp\cc8bhCwt.s 			page 10


 514 0286 23       		.byte	0x23
 515 0287 2C       		.uleb128 0x2c
 516 0288 07       		.uleb128 0x7
 517 0289 1B010000 		.4byte	.LASF33
 518 028d 03       		.byte	0x3
 519 028e 94       		.byte	0x94
 520 028f 7A000000 		.4byte	0x7a
 521 0293 02       		.byte	0x2
 522 0294 23       		.byte	0x23
 523 0295 30       		.uleb128 0x30
 524 0296 07       		.uleb128 0x7
 525 0297 8F010000 		.4byte	.LASF34
 526 029b 03       		.byte	0x3
 527 029c 95       		.byte	0x95
 528 029d 7A000000 		.4byte	0x7a
 529 02a1 02       		.byte	0x2
 530 02a2 23       		.byte	0x23
 531 02a3 34       		.uleb128 0x34
 532 02a4 07       		.uleb128 0x7
 533 02a5 4A010000 		.4byte	.LASF35
 534 02a9 03       		.byte	0x3
 535 02aa 96       		.byte	0x96
 536 02ab 7A000000 		.4byte	0x7a
 537 02af 02       		.byte	0x2
 538 02b0 23       		.byte	0x23
 539 02b1 38       		.uleb128 0x38
 540 02b2 07       		.uleb128 0x7
 541 02b3 8A010000 		.4byte	.LASF36
 542 02b7 03       		.byte	0x3
 543 02b8 97       		.byte	0x97
 544 02b9 7A000000 		.4byte	0x7a
 545 02bd 02       		.byte	0x2
 546 02be 23       		.byte	0x23
 547 02bf 3C       		.uleb128 0x3c
 548 02c0 08       		.uleb128 0x8
 549 02c1 50465200 		.ascii	"PFR\000"
 550 02c5 03       		.byte	0x3
 551 02c6 98       		.byte	0x98
 552 02c7 49030000 		.4byte	0x349
 553 02cb 02       		.byte	0x2
 554 02cc 23       		.byte	0x23
 555 02cd 40       		.uleb128 0x40
 556 02ce 08       		.uleb128 0x8
 557 02cf 44465200 		.ascii	"DFR\000"
 558 02d3 03       		.byte	0x3
 559 02d4 99       		.byte	0x99
 560 02d5 7A000000 		.4byte	0x7a
 561 02d9 02       		.byte	0x2
 562 02da 23       		.byte	0x23
 563 02db 48       		.uleb128 0x48
 564 02dc 08       		.uleb128 0x8
 565 02dd 41445200 		.ascii	"ADR\000"
 566 02e1 03       		.byte	0x3
 567 02e2 9A       		.byte	0x9a
 568 02e3 7A000000 		.4byte	0x7a
 569 02e7 02       		.byte	0x2
 570 02e8 23       		.byte	0x23
ARM GAS  C:\DOCUME~1\ADMINI~1\LOCALS~1\Temp\cc8bhCwt.s 			page 11


 571 02e9 4C       		.uleb128 0x4c
 572 02ea 07       		.uleb128 0x7
 573 02eb 0A000000 		.4byte	.LASF37
 574 02ef 03       		.byte	0x3
 575 02f0 9B       		.byte	0x9b
 576 02f1 5E030000 		.4byte	0x35e
 577 02f5 02       		.byte	0x2
 578 02f6 23       		.byte	0x23
 579 02f7 50       		.uleb128 0x50
 580 02f8 08       		.uleb128 0x8
 581 02f9 53415200 		.ascii	"SAR\000"
 582 02fd 03       		.byte	0x3
 583 02fe 9C       		.byte	0x9c
 584 02ff 73030000 		.4byte	0x373
 585 0303 02       		.byte	0x2
 586 0304 23       		.byte	0x23
 587 0305 60       		.uleb128 0x60
 588 0306 07       		.uleb128 0x7
 589 0307 95000000 		.4byte	.LASF12
 590 030b 03       		.byte	0x3
 591 030c 9D       		.byte	0x9d
 592 030d 78030000 		.4byte	0x378
 593 0311 02       		.byte	0x2
 594 0312 23       		.byte	0x23
 595 0313 74       		.uleb128 0x74
 596 0314 07       		.uleb128 0x7
 597 0315 F4000000 		.4byte	.LASF38
 598 0319 03       		.byte	0x3
 599 031a 9E       		.byte	0x9e
 600 031b 7A000000 		.4byte	0x7a
 601 031f 03       		.byte	0x3
 602 0320 23       		.byte	0x23
 603 0321 8801     		.uleb128 0x88
 604 0323 00       		.byte	0
 605 0324 09       		.uleb128 0x9
 606 0325 7A000000 		.4byte	0x7a
 607 0329 34030000 		.4byte	0x334
 608 032d 0A       		.uleb128 0xa
 609 032e 65010000 		.4byte	0x165
 610 0332 02       		.byte	0x2
 611 0333 00       		.byte	0
 612 0334 05       		.uleb128 0x5
 613 0335 24030000 		.4byte	0x324
 614 0339 09       		.uleb128 0x9
 615 033a 7A000000 		.4byte	0x7a
 616 033e 49030000 		.4byte	0x349
 617 0342 0A       		.uleb128 0xa
 618 0343 65010000 		.4byte	0x165
 619 0347 01       		.byte	0x1
 620 0348 00       		.byte	0
 621 0349 05       		.uleb128 0x5
 622 034a 39030000 		.4byte	0x339
 623 034e 09       		.uleb128 0x9
 624 034f 7A000000 		.4byte	0x7a
 625 0353 5E030000 		.4byte	0x35e
 626 0357 0A       		.uleb128 0xa
 627 0358 65010000 		.4byte	0x165
ARM GAS  C:\DOCUME~1\ADMINI~1\LOCALS~1\Temp\cc8bhCwt.s 			page 12


 628 035c 03       		.byte	0x3
 629 035d 00       		.byte	0
 630 035e 05       		.uleb128 0x5
 631 035f 4E030000 		.4byte	0x34e
 632 0363 09       		.uleb128 0x9
 633 0364 7A000000 		.4byte	0x7a
 634 0368 73030000 		.4byte	0x373
 635 036c 0A       		.uleb128 0xa
 636 036d 65010000 		.4byte	0x165
 637 0371 04       		.byte	0x4
 638 0372 00       		.byte	0
 639 0373 05       		.uleb128 0x5
 640 0374 63030000 		.4byte	0x363
 641 0378 05       		.uleb128 0x5
 642 0379 63030000 		.4byte	0x363
 643 037d 04       		.uleb128 0x4
 644 037e 3C010000 		.4byte	.LASF39
 645 0382 03       		.byte	0x3
 646 0383 9F       		.byte	0x9f
 647 0384 F4010000 		.4byte	0x1f4
 648 0388 03       		.uleb128 0x3
 649 0389 01       		.byte	0x1
 650 038a 08       		.byte	0x8
 651 038b 74010000 		.4byte	.LASF40
 652 038f 0D       		.uleb128 0xd
 653 0390 01       		.byte	0x1
 654 0391 E0010000 		.4byte	.LASF42
 655 0395 01       		.byte	0x1
 656 0396 2E       		.byte	0x2e
 657 0397 01       		.byte	0x1
 658 0398 00000000 		.4byte	.LFB7
 659 039c 48000000 		.4byte	.LFE7
 660 03a0 00000000 		.4byte	.LLST0
 661 03a4 01       		.byte	0x1
 662 03a5 D4030000 		.4byte	0x3d4
 663 03a9 0E       		.uleb128 0xe
 664 03aa 6E00     		.ascii	"n\000"
 665 03ac 01       		.byte	0x1
 666 03ad 2E       		.byte	0x2e
 667 03ae 5A000000 		.4byte	0x5a
 668 03b2 20000000 		.4byte	.LLST1
 669 03b6 0F       		.uleb128 0xf
 670 03b7 00000000 		.4byte	.LASF41
 671 03bb 01       		.byte	0x1
 672 03bc 2E       		.byte	0x2e
 673 03bd 5A000000 		.4byte	0x5a
 674 03c1 41000000 		.4byte	.LLST2
 675 03c5 10       		.uleb128 0x10
 676 03c6 736800   		.ascii	"sh\000"
 677 03c9 01       		.byte	0x1
 678 03ca 2F       		.byte	0x2f
 679 03cb 30000000 		.4byte	0x30
 680 03cf 62000000 		.4byte	.LLST3
 681 03d3 00       		.byte	0
 682 03d4 0D       		.uleb128 0xd
 683 03d5 01       		.byte	0x1
 684 03d6 33000000 		.4byte	.LASF43
ARM GAS  C:\DOCUME~1\ADMINI~1\LOCALS~1\Temp\cc8bhCwt.s 			page 13


 685 03da 01       		.byte	0x1
 686 03db 3C       		.byte	0x3c
 687 03dc 01       		.byte	0x1
 688 03dd 00000000 		.4byte	.LFB8
 689 03e1 3C000000 		.4byte	.LFE8
 690 03e5 A9000000 		.4byte	.LLST4
 691 03e9 01       		.byte	0x1
 692 03ea 0A040000 		.4byte	0x40a
 693 03ee 0E       		.uleb128 0xe
 694 03ef 6E00     		.ascii	"n\000"
 695 03f1 01       		.byte	0x1
 696 03f2 3C       		.byte	0x3c
 697 03f3 5A000000 		.4byte	0x5a
 698 03f7 C9000000 		.4byte	.LLST5
 699 03fb 10       		.uleb128 0x10
 700 03fc 736800   		.ascii	"sh\000"
 701 03ff 01       		.byte	0x1
 702 0400 3D       		.byte	0x3d
 703 0401 30000000 		.4byte	0x30
 704 0405 EA000000 		.4byte	.LLST6
 705 0409 00       		.byte	0
 706 040a 11       		.uleb128 0x11
 707 040b 01       		.byte	0x1
 708 040c BE010000 		.4byte	.LASF48
 709 0410 01       		.byte	0x1
 710 0411 4A       		.byte	0x4a
 711 0412 01       		.byte	0x1
 712 0413 00000000 		.4byte	.LFB9
 713 0417 30000000 		.4byte	.LFE9
 714 041b 31010000 		.4byte	.LLST7
 715 041f 01       		.byte	0x1
 716 0420 0F       		.uleb128 0xf
 717 0421 4F010000 		.4byte	.LASF44
 718 0425 01       		.byte	0x1
 719 0426 4A       		.byte	0x4a
 720 0427 5A000000 		.4byte	0x5a
 721 042b 51010000 		.4byte	.LLST8
 722 042f 0F       		.uleb128 0xf
 723 0430 00000000 		.4byte	.LASF41
 724 0434 01       		.byte	0x1
 725 0435 4A       		.byte	0x4a
 726 0436 5A000000 		.4byte	0x5a
 727 043a 72010000 		.4byte	.LLST9
 728 043e 10       		.uleb128 0x10
 729 043f 736800   		.ascii	"sh\000"
 730 0442 01       		.byte	0x1
 731 0443 4B       		.byte	0x4b
 732 0444 30000000 		.4byte	0x30
 733 0448 93010000 		.4byte	.LLST10
 734 044c 00       		.byte	0
 735 044d 00       		.byte	0
 736              		.section	.debug_abbrev,"",%progbits
 737              	.Ldebug_abbrev0:
 738 0000 01       		.uleb128 0x1
 739 0001 11       		.uleb128 0x11
 740 0002 01       		.byte	0x1
 741 0003 25       		.uleb128 0x25
ARM GAS  C:\DOCUME~1\ADMINI~1\LOCALS~1\Temp\cc8bhCwt.s 			page 14


 742 0004 0E       		.uleb128 0xe
 743 0005 13       		.uleb128 0x13
 744 0006 0B       		.uleb128 0xb
 745 0007 03       		.uleb128 0x3
 746 0008 0E       		.uleb128 0xe
 747 0009 1B       		.uleb128 0x1b
 748 000a 0E       		.uleb128 0xe
 749 000b 55       		.uleb128 0x55
 750 000c 06       		.uleb128 0x6
 751 000d 11       		.uleb128 0x11
 752 000e 01       		.uleb128 0x1
 753 000f 52       		.uleb128 0x52
 754 0010 01       		.uleb128 0x1
 755 0011 10       		.uleb128 0x10
 756 0012 06       		.uleb128 0x6
 757 0013 00       		.byte	0
 758 0014 00       		.byte	0
 759 0015 02       		.uleb128 0x2
 760 0016 24       		.uleb128 0x24
 761 0017 00       		.byte	0
 762 0018 0B       		.uleb128 0xb
 763 0019 0B       		.uleb128 0xb
 764 001a 3E       		.uleb128 0x3e
 765 001b 0B       		.uleb128 0xb
 766 001c 03       		.uleb128 0x3
 767 001d 08       		.uleb128 0x8
 768 001e 00       		.byte	0
 769 001f 00       		.byte	0
 770 0020 03       		.uleb128 0x3
 771 0021 24       		.uleb128 0x24
 772 0022 00       		.byte	0
 773 0023 0B       		.uleb128 0xb
 774 0024 0B       		.uleb128 0xb
 775 0025 3E       		.uleb128 0x3e
 776 0026 0B       		.uleb128 0xb
 777 0027 03       		.uleb128 0x3
 778 0028 0E       		.uleb128 0xe
 779 0029 00       		.byte	0
 780 002a 00       		.byte	0
 781 002b 04       		.uleb128 0x4
 782 002c 16       		.uleb128 0x16
 783 002d 00       		.byte	0
 784 002e 03       		.uleb128 0x3
 785 002f 0E       		.uleb128 0xe
 786 0030 3A       		.uleb128 0x3a
 787 0031 0B       		.uleb128 0xb
 788 0032 3B       		.uleb128 0x3b
 789 0033 0B       		.uleb128 0xb
 790 0034 49       		.uleb128 0x49
 791 0035 13       		.uleb128 0x13
 792 0036 00       		.byte	0
 793 0037 00       		.byte	0
 794 0038 05       		.uleb128 0x5
 795 0039 35       		.uleb128 0x35
 796 003a 00       		.byte	0
 797 003b 49       		.uleb128 0x49
 798 003c 13       		.uleb128 0x13
ARM GAS  C:\DOCUME~1\ADMINI~1\LOCALS~1\Temp\cc8bhCwt.s 			page 15


 799 003d 00       		.byte	0
 800 003e 00       		.byte	0
 801 003f 06       		.uleb128 0x6
 802 0040 13       		.uleb128 0x13
 803 0041 01       		.byte	0x1
 804 0042 0B       		.uleb128 0xb
 805 0043 05       		.uleb128 0x5
 806 0044 3A       		.uleb128 0x3a
 807 0045 0B       		.uleb128 0xb
 808 0046 3B       		.uleb128 0x3b
 809 0047 0B       		.uleb128 0xb
 810 0048 01       		.uleb128 0x1
 811 0049 13       		.uleb128 0x13
 812 004a 00       		.byte	0
 813 004b 00       		.byte	0
 814 004c 07       		.uleb128 0x7
 815 004d 0D       		.uleb128 0xd
 816 004e 00       		.byte	0
 817 004f 03       		.uleb128 0x3
 818 0050 0E       		.uleb128 0xe
 819 0051 3A       		.uleb128 0x3a
 820 0052 0B       		.uleb128 0xb
 821 0053 3B       		.uleb128 0x3b
 822 0054 0B       		.uleb128 0xb
 823 0055 49       		.uleb128 0x49
 824 0056 13       		.uleb128 0x13
 825 0057 38       		.uleb128 0x38
 826 0058 0A       		.uleb128 0xa
 827 0059 00       		.byte	0
 828 005a 00       		.byte	0
 829 005b 08       		.uleb128 0x8
 830 005c 0D       		.uleb128 0xd
 831 005d 00       		.byte	0
 832 005e 03       		.uleb128 0x3
 833 005f 08       		.uleb128 0x8
 834 0060 3A       		.uleb128 0x3a
 835 0061 0B       		.uleb128 0xb
 836 0062 3B       		.uleb128 0x3b
 837 0063 0B       		.uleb128 0xb
 838 0064 49       		.uleb128 0x49
 839 0065 13       		.uleb128 0x13
 840 0066 38       		.uleb128 0x38
 841 0067 0A       		.uleb128 0xa
 842 0068 00       		.byte	0
 843 0069 00       		.byte	0
 844 006a 09       		.uleb128 0x9
 845 006b 01       		.uleb128 0x1
 846 006c 01       		.byte	0x1
 847 006d 49       		.uleb128 0x49
 848 006e 13       		.uleb128 0x13
 849 006f 01       		.uleb128 0x1
 850 0070 13       		.uleb128 0x13
 851 0071 00       		.byte	0
 852 0072 00       		.byte	0
 853 0073 0A       		.uleb128 0xa
 854 0074 21       		.uleb128 0x21
 855 0075 00       		.byte	0
ARM GAS  C:\DOCUME~1\ADMINI~1\LOCALS~1\Temp\cc8bhCwt.s 			page 16


 856 0076 49       		.uleb128 0x49
 857 0077 13       		.uleb128 0x13
 858 0078 2F       		.uleb128 0x2f
 859 0079 0B       		.uleb128 0xb
 860 007a 00       		.byte	0
 861 007b 00       		.byte	0
 862 007c 0B       		.uleb128 0xb
 863 007d 21       		.uleb128 0x21
 864 007e 00       		.byte	0
 865 007f 49       		.uleb128 0x49
 866 0080 13       		.uleb128 0x13
 867 0081 2F       		.uleb128 0x2f
 868 0082 05       		.uleb128 0x5
 869 0083 00       		.byte	0
 870 0084 00       		.byte	0
 871 0085 0C       		.uleb128 0xc
 872 0086 13       		.uleb128 0x13
 873 0087 01       		.byte	0x1
 874 0088 0B       		.uleb128 0xb
 875 0089 0B       		.uleb128 0xb
 876 008a 3A       		.uleb128 0x3a
 877 008b 0B       		.uleb128 0xb
 878 008c 3B       		.uleb128 0x3b
 879 008d 0B       		.uleb128 0xb
 880 008e 01       		.uleb128 0x1
 881 008f 13       		.uleb128 0x13
 882 0090 00       		.byte	0
 883 0091 00       		.byte	0
 884 0092 0D       		.uleb128 0xd
 885 0093 2E       		.uleb128 0x2e
 886 0094 01       		.byte	0x1
 887 0095 3F       		.uleb128 0x3f
 888 0096 0C       		.uleb128 0xc
 889 0097 03       		.uleb128 0x3
 890 0098 0E       		.uleb128 0xe
 891 0099 3A       		.uleb128 0x3a
 892 009a 0B       		.uleb128 0xb
 893 009b 3B       		.uleb128 0x3b
 894 009c 0B       		.uleb128 0xb
 895 009d 27       		.uleb128 0x27
 896 009e 0C       		.uleb128 0xc
 897 009f 11       		.uleb128 0x11
 898 00a0 01       		.uleb128 0x1
 899 00a1 12       		.uleb128 0x12
 900 00a2 01       		.uleb128 0x1
 901 00a3 40       		.uleb128 0x40
 902 00a4 06       		.uleb128 0x6
 903 00a5 9742     		.uleb128 0x2117
 904 00a7 0C       		.uleb128 0xc
 905 00a8 01       		.uleb128 0x1
 906 00a9 13       		.uleb128 0x13
 907 00aa 00       		.byte	0
 908 00ab 00       		.byte	0
 909 00ac 0E       		.uleb128 0xe
 910 00ad 05       		.uleb128 0x5
 911 00ae 00       		.byte	0
 912 00af 03       		.uleb128 0x3
ARM GAS  C:\DOCUME~1\ADMINI~1\LOCALS~1\Temp\cc8bhCwt.s 			page 17


 913 00b0 08       		.uleb128 0x8
 914 00b1 3A       		.uleb128 0x3a
 915 00b2 0B       		.uleb128 0xb
 916 00b3 3B       		.uleb128 0x3b
 917 00b4 0B       		.uleb128 0xb
 918 00b5 49       		.uleb128 0x49
 919 00b6 13       		.uleb128 0x13
 920 00b7 02       		.uleb128 0x2
 921 00b8 06       		.uleb128 0x6
 922 00b9 00       		.byte	0
 923 00ba 00       		.byte	0
 924 00bb 0F       		.uleb128 0xf
 925 00bc 05       		.uleb128 0x5
 926 00bd 00       		.byte	0
 927 00be 03       		.uleb128 0x3
 928 00bf 0E       		.uleb128 0xe
 929 00c0 3A       		.uleb128 0x3a
 930 00c1 0B       		.uleb128 0xb
 931 00c2 3B       		.uleb128 0x3b
 932 00c3 0B       		.uleb128 0xb
 933 00c4 49       		.uleb128 0x49
 934 00c5 13       		.uleb128 0x13
 935 00c6 02       		.uleb128 0x2
 936 00c7 06       		.uleb128 0x6
 937 00c8 00       		.byte	0
 938 00c9 00       		.byte	0
 939 00ca 10       		.uleb128 0x10
 940 00cb 34       		.uleb128 0x34
 941 00cc 00       		.byte	0
 942 00cd 03       		.uleb128 0x3
 943 00ce 08       		.uleb128 0x8
 944 00cf 3A       		.uleb128 0x3a
 945 00d0 0B       		.uleb128 0xb
 946 00d1 3B       		.uleb128 0x3b
 947 00d2 0B       		.uleb128 0xb
 948 00d3 49       		.uleb128 0x49
 949 00d4 13       		.uleb128 0x13
 950 00d5 02       		.uleb128 0x2
 951 00d6 06       		.uleb128 0x6
 952 00d7 00       		.byte	0
 953 00d8 00       		.byte	0
 954 00d9 11       		.uleb128 0x11
 955 00da 2E       		.uleb128 0x2e
 956 00db 01       		.byte	0x1
 957 00dc 3F       		.uleb128 0x3f
 958 00dd 0C       		.uleb128 0xc
 959 00de 03       		.uleb128 0x3
 960 00df 0E       		.uleb128 0xe
 961 00e0 3A       		.uleb128 0x3a
 962 00e1 0B       		.uleb128 0xb
 963 00e2 3B       		.uleb128 0x3b
 964 00e3 0B       		.uleb128 0xb
 965 00e4 27       		.uleb128 0x27
 966 00e5 0C       		.uleb128 0xc
 967 00e6 11       		.uleb128 0x11
 968 00e7 01       		.uleb128 0x1
 969 00e8 12       		.uleb128 0x12
ARM GAS  C:\DOCUME~1\ADMINI~1\LOCALS~1\Temp\cc8bhCwt.s 			page 18


 970 00e9 01       		.uleb128 0x1
 971 00ea 40       		.uleb128 0x40
 972 00eb 06       		.uleb128 0x6
 973 00ec 9742     		.uleb128 0x2117
 974 00ee 0C       		.uleb128 0xc
 975 00ef 00       		.byte	0
 976 00f0 00       		.byte	0
 977 00f1 00       		.byte	0
 978              		.section	.debug_loc,"",%progbits
 979              	.Ldebug_loc0:
 980              	.LLST0:
 981 0000 00000000 		.4byte	.LFB7
 982 0004 06000000 		.4byte	.LCFI0
 983 0008 0200     		.2byte	0x2
 984 000a 7D       		.byte	0x7d
 985 000b 00       		.sleb128 0
 986 000c 06000000 		.4byte	.LCFI0
 987 0010 48000000 		.4byte	.LFE7
 988 0014 0200     		.2byte	0x2
 989 0016 7D       		.byte	0x7d
 990 0017 0C       		.sleb128 12
 991 0018 00000000 		.4byte	0
 992 001c 00000000 		.4byte	0
 993              	.LLST1:
 994 0020 00000000 		.4byte	.LVL0
 995 0024 2E000000 		.4byte	.LVL4
 996 0028 0100     		.2byte	0x1
 997 002a 50       		.byte	0x50
 998 002b 2E000000 		.4byte	.LVL4
 999 002f 48000000 		.4byte	.LFE7
 1000 0033 0400     		.2byte	0x4
 1001 0035 F3       		.byte	0xf3
 1002 0036 01       		.uleb128 0x1
 1003 0037 50       		.byte	0x50
 1004 0038 9F       		.byte	0x9f
 1005 0039 00000000 		.4byte	0
 1006 003d 00000000 		.4byte	0
 1007              	.LLST2:
 1008 0041 00000000 		.4byte	.LVL0
 1009 0045 12000000 		.4byte	.LVL2
 1010 0049 0100     		.2byte	0x1
 1011 004b 51       		.byte	0x51
 1012 004c 12000000 		.4byte	.LVL2
 1013 0050 48000000 		.4byte	.LFE7
 1014 0054 0400     		.2byte	0x4
 1015 0056 F3       		.byte	0xf3
 1016 0057 01       		.uleb128 0x1
 1017 0058 51       		.byte	0x51
 1018 0059 9F       		.byte	0x9f
 1019 005a 00000000 		.4byte	0
 1020 005e 00000000 		.4byte	0
 1021              	.LLST3:
 1022 0062 00000000 		.4byte	.LVL0
 1023 0066 08000000 		.4byte	.LVL1
 1024 006a 0700     		.2byte	0x7
 1025 006c 70       		.byte	0x70
 1026 006d 00       		.sleb128 0
ARM GAS  C:\DOCUME~1\ADMINI~1\LOCALS~1\Temp\cc8bhCwt.s 			page 19


 1027 006e 33       		.byte	0x33
 1028 006f 1A       		.byte	0x1a
 1029 0070 33       		.byte	0x33
 1030 0071 24       		.byte	0x24
 1031 0072 9F       		.byte	0x9f
 1032 0073 08000000 		.4byte	.LVL1
 1033 0077 18000000 		.4byte	.LVL3
 1034 007b 0100     		.2byte	0x1
 1035 007d 53       		.byte	0x53
 1036 007e 18000000 		.4byte	.LVL3
 1037 0082 2E000000 		.4byte	.LVL4
 1038 0086 0700     		.2byte	0x7
 1039 0088 70       		.byte	0x70
 1040 0089 00       		.sleb128 0
 1041 008a 33       		.byte	0x33
 1042 008b 1A       		.byte	0x1a
 1043 008c 33       		.byte	0x33
 1044 008d 24       		.byte	0x24
 1045 008e 9F       		.byte	0x9f
 1046 008f 2E000000 		.4byte	.LVL4
 1047 0093 48000000 		.4byte	.LFE7
 1048 0097 0800     		.2byte	0x8
 1049 0099 F3       		.byte	0xf3
 1050 009a 01       		.uleb128 0x1
 1051 009b 50       		.byte	0x50
 1052 009c 33       		.byte	0x33
 1053 009d 1A       		.byte	0x1a
 1054 009e 33       		.byte	0x33
 1055 009f 24       		.byte	0x24
 1056 00a0 9F       		.byte	0x9f
 1057 00a1 00000000 		.4byte	0
 1058 00a5 00000000 		.4byte	0
 1059              	.LLST4:
 1060 00a9 00000000 		.4byte	.LFB8
 1061 00ad 02000000 		.4byte	.LCFI1
 1062 00b1 0200     		.2byte	0x2
 1063 00b3 7D       		.byte	0x7d
 1064 00b4 00       		.sleb128 0
 1065 00b5 02000000 		.4byte	.LCFI1
 1066 00b9 3C000000 		.4byte	.LFE8
 1067 00bd 0200     		.2byte	0x2
 1068 00bf 7D       		.byte	0x7d
 1069 00c0 04       		.sleb128 4
 1070 00c1 00000000 		.4byte	0
 1071 00c5 00000000 		.4byte	0
 1072              	.LLST5:
 1073 00c9 00000000 		.4byte	.LVL5
 1074 00cd 26000000 		.4byte	.LVL8
 1075 00d1 0100     		.2byte	0x1
 1076 00d3 50       		.byte	0x50
 1077 00d4 26000000 		.4byte	.LVL8
 1078 00d8 3C000000 		.4byte	.LFE8
 1079 00dc 0400     		.2byte	0x4
 1080 00de F3       		.byte	0xf3
 1081 00df 01       		.uleb128 0x1
 1082 00e0 50       		.byte	0x50
 1083 00e1 9F       		.byte	0x9f
ARM GAS  C:\DOCUME~1\ADMINI~1\LOCALS~1\Temp\cc8bhCwt.s 			page 20


 1084 00e2 00000000 		.4byte	0
 1085 00e6 00000000 		.4byte	0
 1086              	.LLST6:
 1087 00ea 00000000 		.4byte	.LVL5
 1088 00ee 14000000 		.4byte	.LVL6
 1089 00f2 0700     		.2byte	0x7
 1090 00f4 70       		.byte	0x70
 1091 00f5 00       		.sleb128 0
 1092 00f6 33       		.byte	0x33
 1093 00f7 1A       		.byte	0x1a
 1094 00f8 33       		.byte	0x33
 1095 00f9 24       		.byte	0x24
 1096 00fa 9F       		.byte	0x9f
 1097 00fb 14000000 		.4byte	.LVL6
 1098 00ff 18000000 		.4byte	.LVL7
 1099 0103 0100     		.2byte	0x1
 1100 0105 52       		.byte	0x52
 1101 0106 18000000 		.4byte	.LVL7
 1102 010a 26000000 		.4byte	.LVL8
 1103 010e 0700     		.2byte	0x7
 1104 0110 70       		.byte	0x70
 1105 0111 00       		.sleb128 0
 1106 0112 33       		.byte	0x33
 1107 0113 1A       		.byte	0x1a
 1108 0114 33       		.byte	0x33
 1109 0115 24       		.byte	0x24
 1110 0116 9F       		.byte	0x9f
 1111 0117 26000000 		.4byte	.LVL8
 1112 011b 3C000000 		.4byte	.LFE8
 1113 011f 0800     		.2byte	0x8
 1114 0121 F3       		.byte	0xf3
 1115 0122 01       		.uleb128 0x1
 1116 0123 50       		.byte	0x50
 1117 0124 33       		.byte	0x33
 1118 0125 1A       		.byte	0x1a
 1119 0126 33       		.byte	0x33
 1120 0127 24       		.byte	0x24
 1121 0128 9F       		.byte	0x9f
 1122 0129 00000000 		.4byte	0
 1123 012d 00000000 		.4byte	0
 1124              	.LLST7:
 1125 0131 00000000 		.4byte	.LFB9
 1126 0135 1E000000 		.4byte	.LCFI2
 1127 0139 0200     		.2byte	0x2
 1128 013b 7D       		.byte	0x7d
 1129 013c 00       		.sleb128 0
 1130 013d 1E000000 		.4byte	.LCFI2
 1131 0141 30000000 		.4byte	.LFE9
 1132 0145 0200     		.2byte	0x2
 1133 0147 7D       		.byte	0x7d
 1134 0148 04       		.sleb128 4
 1135 0149 00000000 		.4byte	0
 1136 014d 00000000 		.4byte	0
 1137              	.LLST8:
 1138 0151 00000000 		.4byte	.LVL9
 1139 0155 12000000 		.4byte	.LVL12
 1140 0159 0100     		.2byte	0x1
ARM GAS  C:\DOCUME~1\ADMINI~1\LOCALS~1\Temp\cc8bhCwt.s 			page 21


 1141 015b 50       		.byte	0x50
 1142 015c 12000000 		.4byte	.LVL12
 1143 0160 30000000 		.4byte	.LFE9
 1144 0164 0400     		.2byte	0x4
 1145 0166 F3       		.byte	0xf3
 1146 0167 01       		.uleb128 0x1
 1147 0168 50       		.byte	0x50
 1148 0169 9F       		.byte	0x9f
 1149 016a 00000000 		.4byte	0
 1150 016e 00000000 		.4byte	0
 1151              	.LLST9:
 1152 0172 00000000 		.4byte	.LVL9
 1153 0176 10000000 		.4byte	.LVL11
 1154 017a 0100     		.2byte	0x1
 1155 017c 51       		.byte	0x51
 1156 017d 10000000 		.4byte	.LVL11
 1157 0181 30000000 		.4byte	.LFE9
 1158 0185 0400     		.2byte	0x4
 1159 0187 F3       		.byte	0xf3
 1160 0188 01       		.uleb128 0x1
 1161 0189 51       		.byte	0x51
 1162 018a 9F       		.byte	0x9f
 1163 018b 00000000 		.4byte	0
 1164 018f 00000000 		.4byte	0
 1165              	.LLST10:
 1166 0193 00000000 		.4byte	.LVL9
 1167 0197 06000000 		.4byte	.LVL10
 1168 019b 0700     		.2byte	0x7
 1169 019d 70       		.byte	0x70
 1170 019e 00       		.sleb128 0
 1171 019f 33       		.byte	0x33
 1172 01a0 1A       		.byte	0x1a
 1173 01a1 33       		.byte	0x33
 1174 01a2 24       		.byte	0x24
 1175 01a3 9F       		.byte	0x9f
 1176 01a4 06000000 		.4byte	.LVL10
 1177 01a8 16000000 		.4byte	.LVL13
 1178 01ac 0100     		.2byte	0x1
 1179 01ae 53       		.byte	0x53
 1180 01af 16000000 		.4byte	.LVL13
 1181 01b3 30000000 		.4byte	.LFE9
 1182 01b7 0800     		.2byte	0x8
 1183 01b9 F3       		.byte	0xf3
 1184 01ba 01       		.uleb128 0x1
 1185 01bb 50       		.byte	0x50
 1186 01bc 33       		.byte	0x33
 1187 01bd 1A       		.byte	0x1a
 1188 01be 33       		.byte	0x33
 1189 01bf 24       		.byte	0x24
 1190 01c0 9F       		.byte	0x9f
 1191 01c1 00000000 		.4byte	0
 1192 01c5 00000000 		.4byte	0
 1193              		.section	.debug_aranges,"",%progbits
 1194 0000 2C000000 		.4byte	0x2c
 1195 0004 0200     		.2byte	0x2
 1196 0006 00000000 		.4byte	.Ldebug_info0
 1197 000a 04       		.byte	0x4
ARM GAS  C:\DOCUME~1\ADMINI~1\LOCALS~1\Temp\cc8bhCwt.s 			page 22


 1198 000b 00       		.byte	0
 1199 000c 0000     		.2byte	0
 1200 000e 0000     		.2byte	0
 1201 0010 00000000 		.4byte	.LFB7
 1202 0014 48000000 		.4byte	.LFE7-.LFB7
 1203 0018 00000000 		.4byte	.LFB8
 1204 001c 3C000000 		.4byte	.LFE8-.LFB8
 1205 0020 00000000 		.4byte	.LFB9
 1206 0024 30000000 		.4byte	.LFE9-.LFB9
 1207 0028 00000000 		.4byte	0
 1208 002c 00000000 		.4byte	0
 1209              		.section	.debug_ranges,"",%progbits
 1210              	.Ldebug_ranges0:
 1211 0000 00000000 		.4byte	.LFB7
 1212 0004 48000000 		.4byte	.LFE7
 1213 0008 00000000 		.4byte	.LFB8
 1214 000c 3C000000 		.4byte	.LFE8
 1215 0010 00000000 		.4byte	.LFB9
 1216 0014 30000000 		.4byte	.LFE9
 1217 0018 00000000 		.4byte	0
 1218 001c 00000000 		.4byte	0
 1219              		.section	.debug_line,"",%progbits
 1220              	.Ldebug_line0:
 1221 0000 E4000000 		.section	.debug_str,"MS",%progbits,1
 1221      02009100 
 1221      00000201 
 1221      FB0E0D00 
 1221      01010101 
 1222              	.LASF41:
 1223 0000 7072696F 		.ascii	"prio\000"
 1223      00
 1224              	.LASF17:
 1225 0005 49435052 		.ascii	"ICPR\000"
 1225      00
 1226              	.LASF37:
 1227 000a 4D4D4652 		.ascii	"MMFR\000"
 1227      00
 1228              	.LASF46:
 1229 000f 2E2E2F2E 		.ascii	"../../os/ports/common/ARMCMx/nvic.c\000"
 1229      2E2F6F73 
 1229      2F706F72 
 1229      74732F63 
 1229      6F6D6D6F 
 1230              	.LASF43:
 1231 0033 6E766963 		.ascii	"nvicDisableVector\000"
 1231      44697361 
 1231      626C6556 
 1231      6563746F 
 1231      7200
 1232              	.LASF24:
 1233 0045 434D785F 		.ascii	"CMx_NVIC\000"
 1233      4E564943 
 1233      00
 1234              	.LASF27:
 1235 004e 56544F52 		.ascii	"VTOR\000"
 1235      00
 1236              	.LASF10:
ARM GAS  C:\DOCUME~1\ADMINI~1\LOCALS~1\Temp\cc8bhCwt.s 			page 23


 1237 0053 494F5245 		.ascii	"IOREG32\000"
 1237      47333200 
 1238              	.LASF13:
 1239 005b 49434552 		.ascii	"ICER\000"
 1239      00
 1240              	.LASF47:
 1241 0060 433A5C70 		.ascii	"C:\\projects\\ChibiOS_2.4.2\\demos\\TOAST2\000"
 1241      726F6A65 
 1241      6374735C 
 1241      43686962 
 1241      694F535F 
 1242              	.LASF2:
 1243 0087 756E7369 		.ascii	"unsigned char\000"
 1243      676E6564 
 1243      20636861 
 1243      7200
 1244              	.LASF12:
 1245 0095 756E7573 		.ascii	"unused1\000"
 1245      65643100 
 1246              	.LASF14:
 1247 009d 756E7573 		.ascii	"unused2\000"
 1247      65643200 
 1248              	.LASF16:
 1249 00a5 756E7573 		.ascii	"unused3\000"
 1249      65643300 
 1250              	.LASF18:
 1251 00ad 756E7573 		.ascii	"unused4\000"
 1251      65643400 
 1252              	.LASF20:
 1253 00b5 756E7573 		.ascii	"unused5\000"
 1253      65643500 
 1254              	.LASF21:
 1255 00bd 756E7573 		.ascii	"unused6\000"
 1255      65643600 
 1256              	.LASF4:
 1257 00c5 73686F72 		.ascii	"short unsigned int\000"
 1257      7420756E 
 1257      7369676E 
 1257      65642069 
 1257      6E7400
 1258              	.LASF31:
 1259 00d8 43465352 		.ascii	"CFSR\000"
 1259      00
 1260              	.LASF32:
 1261 00dd 48465352 		.ascii	"HFSR\000"
 1261      00
 1262              	.LASF6:
 1263 00e2 6C6F6E67 		.ascii	"long unsigned int\000"
 1263      20756E73 
 1263      69676E65 
 1263      6420696E 
 1263      7400
 1264              	.LASF38:
 1265 00f4 43504143 		.ascii	"CPACR\000"
 1265      5200
 1266              	.LASF22:
 1267 00fa 53544952 		.ascii	"STIR\000"
ARM GAS  C:\DOCUME~1\ADMINI~1\LOCALS~1\Temp\cc8bhCwt.s 			page 24


 1267      00
 1268              	.LASF3:
 1269 00ff 73686F72 		.ascii	"short int\000"
 1269      7420696E 
 1269      7400
 1270              	.LASF0:
 1271 0109 756E7369 		.ascii	"unsigned int\000"
 1271      676E6564 
 1271      20696E74 
 1271      00
 1272              	.LASF15:
 1273 0116 49535052 		.ascii	"ISPR\000"
 1273      00
 1274              	.LASF33:
 1275 011b 44465352 		.ascii	"DFSR\000"
 1275      00
 1276              	.LASF8:
 1277 0120 6C6F6E67 		.ascii	"long long unsigned int\000"
 1277      206C6F6E 
 1277      6720756E 
 1277      7369676E 
 1277      65642069 
 1278              	.LASF26:
 1279 0137 49435352 		.ascii	"ICSR\000"
 1279      00
 1280              	.LASF39:
 1281 013c 434D785F 		.ascii	"CMx_SCB\000"
 1281      53434200 
 1282              	.LASF28:
 1283 0144 41495243 		.ascii	"AIRCR\000"
 1283      5200
 1284              	.LASF35:
 1285 014a 42464152 		.ascii	"BFAR\000"
 1285      00
 1286              	.LASF44:
 1287 014f 68616E64 		.ascii	"handler\000"
 1287      6C657200 
 1288              	.LASF23:
 1289 0157 73697A65 		.ascii	"sizetype\000"
 1289      74797065 
 1289      00
 1290              	.LASF7:
 1291 0160 6C6F6E67 		.ascii	"long long int\000"
 1291      206C6F6E 
 1291      6720696E 
 1291      7400
 1292              	.LASF25:
 1293 016e 43505549 		.ascii	"CPUID\000"
 1293      4400
 1294              	.LASF40:
 1295 0174 63686172 		.ascii	"char\000"
 1295      00
 1296              	.LASF45:
 1297 0179 474E5520 		.ascii	"GNU C 4.7.1\000"
 1297      4320342E 
 1297      372E3100 
 1298              	.LASF11:
ARM GAS  C:\DOCUME~1\ADMINI~1\LOCALS~1\Temp\cc8bhCwt.s 			page 25


 1299 0185 49534552 		.ascii	"ISER\000"
 1299      00
 1300              	.LASF36:
 1301 018a 41465352 		.ascii	"AFSR\000"
 1301      00
 1302              	.LASF34:
 1303 018f 4D4D4641 		.ascii	"MMFAR\000"
 1303      5200
 1304              	.LASF30:
 1305 0195 53484353 		.ascii	"SHCSR\000"
 1305      5200
 1306              	.LASF9:
 1307 019b 75696E74 		.ascii	"uint32_t\000"
 1307      33325F74 
 1307      00
 1308              	.LASF5:
 1309 01a4 6C6F6E67 		.ascii	"long int\000"
 1309      20696E74 
 1309      00
 1310              	.LASF29:
 1311 01ad 53485052 		.ascii	"SHPR\000"
 1311      00
 1312              	.LASF1:
 1313 01b2 7369676E 		.ascii	"signed char\000"
 1313      65642063 
 1313      68617200 
 1314              	.LASF48:
 1315 01be 6E766963 		.ascii	"nvicSetSystemHandlerPriority\000"
 1315      53657453 
 1315      79737465 
 1315      6D48616E 
 1315      646C6572 
 1316              	.LASF19:
 1317 01db 49414252 		.ascii	"IABR\000"
 1317      00
 1318              	.LASF42:
 1319 01e0 6E766963 		.ascii	"nvicEnableVector\000"
 1319      456E6162 
 1319      6C655665 
 1319      63746F72 
 1319      00
 1320              		.ident	"GCC: (GNU) 4.7.1"
ARM GAS  C:\DOCUME~1\ADMINI~1\LOCALS~1\Temp\cc8bhCwt.s 			page 26


DEFINED SYMBOLS
                            *ABS*:00000000 nvic.c
C:\DOCUME~1\ADMINI~1\LOCALS~1\Temp\cc8bhCwt.s:19     .text.nvicEnableVector:00000000 $t
C:\DOCUME~1\ADMINI~1\LOCALS~1\Temp\cc8bhCwt.s:24     .text.nvicEnableVector:00000000 nvicEnableVector
C:\DOCUME~1\ADMINI~1\LOCALS~1\Temp\cc8bhCwt.s:82     .text.nvicDisableVector:00000000 $t
C:\DOCUME~1\ADMINI~1\LOCALS~1\Temp\cc8bhCwt.s:87     .text.nvicDisableVector:00000000 nvicDisableVector
C:\DOCUME~1\ADMINI~1\LOCALS~1\Temp\cc8bhCwt.s:135    .text.nvicSetSystemHandlerPriority:00000000 $t
C:\DOCUME~1\ADMINI~1\LOCALS~1\Temp\cc8bhCwt.s:140    .text.nvicSetSystemHandlerPriority:00000000 nvicSetSystemHandlerPriority
                     .debug_frame:00000010 $d

NO UNDEFINED SYMBOLS
