ARM GAS  C:\DOCUME~1\ADMINI~1\LOCALS~1\Temp\cc8bhCwt.s 			page 1


   1              		.syntax unified
   2              		.cpu cortex-m3
   3              		.fpu softvfp
   4              		.eabi_attribute 20, 1
   5              		.eabi_attribute 21, 1
   6              		.eabi_attribute 23, 3
   7              		.eabi_attribute 24, 1
   8              		.eabi_attribute 25, 1
   9              		.eabi_attribute 26, 1
  10              		.eabi_attribute 30, 2
  11              		.eabi_attribute 34, 1
  12              		.eabi_attribute 18, 4
  13              		.thumb
  14              		.file	"nvic.c"
  15              		.text
  16              	.Ltext0:
  17              		.cfi_sections	.debug_frame
  18              		.section	.text.nvicEnableVector,"ax",%progbits
  19              		.align	2
  20              		.global	nvicEnableVector
  21              		.thumb
  22              		.thumb_func
  23              		.type	nvicEnableVector, %function
  24              	nvicEnableVector:
  25              	.LFB7:
  26              		.file 1 "../../os/ports/common/ARMCMx/nvic.c"
  27              		.loc 1 46 0
  28              		.cfi_startproc
  29              		@ args = 0, pretend = 0, frame = 0
  30              		@ frame_needed = 0, uses_anonymous_args = 0
  31              		@ link register save eliminated.
  32              	.LVL0:
  33              		.loc 1 47 0
  34 0000 00F00303 		and	r3, r0, #3
  35              		.loc 1 46 0
  36 0004 70B4     		push	{r4, r5, r6}
  37              	.LCFI0:
  38              		.cfi_def_cfa_offset 12
  39              		.cfi_offset 4, -12
  40              		.cfi_offset 5, -8
  41              		.cfi_offset 6, -4
  42              		.loc 1 47 0
  43 0006 DB00     		lsls	r3, r3, #3
  44              	.LVL1:
  45              		.loc 1 49 0
  46 0008 FF25     		movs	r5, #255
  47 000a 05FA03F5 		lsl	r5, r5, r3
  48 000e 01FA03F1 		lsl	r1, r1, r3
  49              	.LVL2:
  50              		.loc 1 50 0
  51 0012 0122     		movs	r2, #1
  52 0014 00F01F03 		and	r3, r0, #31
  53              	.LVL3:
  54 0018 02FA03F2 		lsl	r2, r2, r3
  55              		.loc 1 49 0
  56 001c 8408     		lsrs	r4, r0, #2
  57 001e 4FF46143 		mov	r3, #57600
ARM GAS  C:\DOCUME~1\ADMINI~1\LOCALS~1\Temp\cc8bhCwt.s 			page 2


  58 0022 CEF20003 		movt	r3, 57344
  59 0026 C034     		adds	r4, r4, #192
  60 0028 53F82460 		ldr	r6, [r3, r4, lsl #2]
  61              		.loc 1 50 0
  62 002c 4009     		lsrs	r0, r0, #5
  63              	.LVL4:
  64              		.loc 1 49 0
  65 002e 26EA0505 		bic	r5, r6, r5
  66 0032 0D43     		orrs	r5, r5, r1
  67              		.loc 1 50 0
  68 0034 00F16006 		add	r6, r0, #96
  69              		.loc 1 49 0
  70 0038 43F82450 		str	r5, [r3, r4, lsl #2]
  71              		.loc 1 50 0
  72 003c 43F82620 		str	r2, [r3, r6, lsl #2]
  73              		.loc 1 51 0
  74 0040 43F82020 		str	r2, [r3, r0, lsl #2]
  75              		.loc 1 52 0
  76 0044 70BC     		pop	{r4, r5, r6}
  77 0046 7047     		bx	lr
  78              		.cfi_endproc
  79              	.LFE7:
  80              		.size	nvicEnableVector, .-nvicEnableVector
  81              		.section	.text.nvicDisableVector,"ax",%progbits
  82              		.align	2
  83              		.global	nvicDisableVector
  84              		.thumb
  85              		.thumb_func
  86              		.type	nvicDisableVector, %function
  87              	nvicDisableVector:
  88              	.LFB8:
  89              		.loc 1 60 0
  90              		.cfi_startproc
  91              		@ args = 0, pretend = 0, frame = 0
  92              		@ frame_needed = 0, uses_anonymous_args = 0
  93              		@ link register save eliminated.
  94              	.LVL5:
  95 0000 10B4     		push	{r4}
  96              	.LCFI1:
  97              		.cfi_def_cfa_offset 4
  98              		.cfi_offset 4, -4
  99              		.loc 1 63 0
 100 0002 00F01F03 		and	r3, r0, #31
 101 0006 0124     		movs	r4, #1
 102 0008 04FA03F4 		lsl	r4, r4, r3
 103              		.loc 1 61 0
 104 000c 00F00302 		and	r2, r0, #3
 105              		.loc 1 64 0
 106 0010 FF23     		movs	r3, #255
 107              		.loc 1 61 0
 108 0012 D200     		lsls	r2, r2, #3
 109              	.LVL6:
 110              		.loc 1 64 0
 111 0014 03FA02F2 		lsl	r2, r3, r2
 112              	.LVL7:
 113              		.loc 1 63 0
 114 0018 4109     		lsrs	r1, r0, #5
ARM GAS  C:\DOCUME~1\ADMINI~1\LOCALS~1\Temp\cc8bhCwt.s 			page 3


 115 001a 4FF46143 		mov	r3, #57600
 116 001e CEF20003 		movt	r3, 57344
 117 0022 2031     		adds	r1, r1, #32
 118              		.loc 1 64 0
 119 0024 8008     		lsrs	r0, r0, #2
 120              	.LVL8:
 121              		.loc 1 63 0
 122 0026 43F82140 		str	r4, [r3, r1, lsl #2]
 123              		.loc 1 64 0
 124 002a C030     		adds	r0, r0, #192
 125 002c 53F82010 		ldr	r1, [r3, r0, lsl #2]
 126 0030 21EA0202 		bic	r2, r1, r2
 127 0034 43F82020 		str	r2, [r3, r0, lsl #2]
 128              		.loc 1 65 0
 129 0038 10BC     		pop	{r4}
 130 003a 7047     		bx	lr
 131              		.cfi_endproc
 132              	.LFE8:
 133              		.size	nvicDisableVector, .-nvicDisableVector
 134              		.section	.text.nvicSetSystemHandlerPriority,"ax",%progbits
 135              		.align	2
 136              		.global	nvicSetSystemHandlerPriority
 137              		.thumb
 138              		.thumb_func
 139              		.type	nvicSetSystemHandlerPriority, %function
 140              	nvicSetSystemHandlerPriority:
 141              	.LFB9:
 142              		.loc 1 74 0
 143              		.cfi_startproc
 144              		@ args = 0, pretend = 0, frame = 0
 145              		@ frame_needed = 0, uses_anonymous_args = 0
 146              		@ link register save eliminated.
 147              	.LVL9:
 148              		.loc 1 75 0
 149 0000 00F00303 		and	r3, r0, #3
 150 0004 DB00     		lsls	r3, r3, #3
 151              	.LVL10:
 152              		.loc 1 78 0
 153 0006 FF22     		movs	r2, #255
 154 0008 02FA03F2 		lsl	r2, r2, r3
 155 000c 01FA03F1 		lsl	r1, r1, r3
 156              	.LVL11:
 157              		.loc 1 77 0
 158 0010 8008     		lsrs	r0, r0, #2
 159              	.LVL12:
 160 0012 4FF46D43 		mov	r3, #60672
 161              	.LVL13:
 162 0016 CEF20003 		movt	r3, 57344
 163 001a 0630     		adds	r0, r0, #6
 164              		.loc 1 74 0
 165 001c 10B4     		push	{r4}
 166              	.LCFI2:
 167              		.cfi_def_cfa_offset 4
 168              		.cfi_offset 4, -4
 169              		.loc 1 77 0
 170 001e 53F82040 		ldr	r4, [r3, r0, lsl #2]
 171 0022 24EA0202 		bic	r2, r4, r2
ARM GAS  C:\DOCUME~1\ADMINI~1\LOCALS~1\Temp\cc8bhCwt.s 			page 4


 172              		.loc 1 78 0
 173 0026 0A43     		orrs	r2, r2, r1
 174              		.loc 1 77 0
 175 0028 43F82020 		str	r2, [r3, r0, lsl #2]
 176              		.loc 1 79 0
 177 002c 10BC     		pop	{r4}
 178 002e 7047     		bx	lr
 179              		.cfi_endproc
 180              	.LFE9:
 181              		.size	nvicSetSystemHandlerPriority, .-nvicSetSystemHandlerPriority
 182              		.text
 183              	.Letext0:
 184              		.file 2 "c:/program files/yagarto/lib/gcc/../../arm-none-eabi/sys-include/stdint.h"
 185              		.file 3 "../../os/ports/common/ARMCMx/nvic.h"