ARM GAS  C:\DOCUME~1\ADMINI~1\LOCALS~1\Temp\ccNtjtDh.s 			page 1


   1              		.syntax unified
   2              		.cpu cortex-m3
   3              		.fpu softvfp
   4              		.eabi_attribute 20, 1
   5              		.eabi_attribute 21, 1
   6              		.eabi_attribute 23, 3
   7              		.eabi_attribute 24, 1
   8              		.eabi_attribute 25, 1
   9              		.eabi_attribute 26, 1
  10              		.eabi_attribute 30, 2
  11              		.eabi_attribute 34, 1
  12              		.eabi_attribute 18, 4
  13              		.thumb
  14              		.file	"pid.c"
  15              		.text
  16              	.Ltext0:
  17              		.cfi_sections	.debug_frame
  18              		.section	.text.initPIDStruct,"ax",%progbits
  19              		.align	2
  20              		.global	initPIDStruct
  21              		.thumb
  22              		.thumb_func
  23              		.type	initPIDStruct, %function
  24              	initPIDStruct:
  25              	.LFB62:
  26              		.file 1 "pid.c"
  27              		.loc 1 45 0
  28              		.cfi_startproc
  29              		@ args = 0, pretend = 0, frame = 0
  30              		@ frame_needed = 0, uses_anonymous_args = 0
  31              		@ link register save eliminated.
  32              	.LVL0:
  33              		.loc 1 46 0
  34 0000 0023     		movs	r3, #0
  35 0002 0360     		str	r3, [r0, #0]	@ float
  36              		.loc 1 50 0
  37 0004 0361     		str	r3, [r0, #16]	@ float
  38              		.loc 1 51 0
  39 0006 4361     		str	r3, [r0, #20]	@ float
  40              		.loc 1 52 0
  41 0008 8361     		str	r3, [r0, #24]	@ float
  42              		.loc 1 53 0
  43 000a 0362     		str	r3, [r0, #32]	@ float
  44              		.loc 1 54 0
  45 000c 4FF40003 		mov	r3, #8388608
  46 0010 4362     		str	r3, [r0, #36]	@ float
  47              		.loc 1 55 0
  48 0012 4FF6FF73 		movw	r3, #65535
  49              		.loc 1 48 0
  50 0016 4FF07E52 		mov	r2, #1065353216
  51              		.loc 1 47 0
  52 001a 0021     		movs	r1, #0
  53              		.loc 1 55 0
  54 001c C7F67F73 		movt	r3, 32639
  55              		.loc 1 47 0
  56 0020 4160     		str	r1, [r0, #4]
  57              		.loc 1 48 0
ARM GAS  C:\DOCUME~1\ADMINI~1\LOCALS~1\Temp\ccNtjtDh.s 			page 2


  58 0022 8260     		str	r2, [r0, #8]	@ float
  59              		.loc 1 49 0
  60 0024 C260     		str	r2, [r0, #12]	@ float
  61              		.loc 1 55 0
  62 0026 8362     		str	r3, [r0, #40]	@ float
  63              		.loc 1 56 0
  64 0028 C162     		str	r1, [r0, #44]
  65 002a 7047     		bx	lr
  66              		.cfi_endproc
  67              	.LFE62:
  68              		.size	initPIDStruct, .-initPIDStruct
  69              		.section	.text.resetPIDStruct,"ax",%progbits
  70              		.align	2
  71              		.global	resetPIDStruct
  72              		.thumb
  73              		.thumb_func
  74              		.type	resetPIDStruct, %function
  75              	resetPIDStruct:
  76              	.LFB63:
  77              		.loc 1 60 0
  78              		.cfi_startproc
  79              		@ args = 0, pretend = 0, frame = 0
  80              		@ frame_needed = 0, uses_anonymous_args = 0
  81              		@ link register save eliminated.
  82              	.LVL1:
  83              		.loc 1 61 0
  84 0000 0023     		movs	r3, #0
  85 0002 0362     		str	r3, [r0, #32]	@ float
  86              		.loc 1 62 0
  87 0004 8361     		str	r3, [r0, #24]	@ float
  88              		.loc 1 63 0
  89 0006 C162     		str	r1, [r0, #44]
  90 0008 7047     		bx	lr
  91              		.cfi_endproc
  92              	.LFE63:
  93              		.size	resetPIDStruct, .-resetPIDStruct
  94              		.global	__aeabi_fsub
  95              		.global	__aeabi_fmul
  96              		.global	__aeabi_i2f
  97              		.global	__aeabi_fadd
  98              		.global	__aeabi_fcmple
  99              		.global	__aeabi_fcmpge
 100              		.global	__aeabi_fdiv
 101              		.global	__aeabi_f2uiz
 102              		.global	__aeabi_f2d
 103 000a 00BF     		.section	.text.PIDUpdatePid,"ax",%progbits
 104              		.align	2
 105              		.global	PIDUpdatePid
 106              		.thumb
 107              		.thumb_func
 108              		.type	PIDUpdatePid, %function
 109              	PIDUpdatePid:
 110              	.LFB64:
 111              		.loc 1 77 0
 112              		.cfi_startproc
 113              		@ args = 0, pretend = 0, frame = 264
 114              		@ frame_needed = 0, uses_anonymous_args = 0
ARM GAS  C:\DOCUME~1\ADMINI~1\LOCALS~1\Temp\ccNtjtDh.s 			page 3


 115              	.LVL2:
 116 0000 2DE9F04F 		push	{r4, r5, r6, r7, r8, r9, sl, fp, lr}
 117              	.LCFI0:
 118              		.cfi_def_cfa_offset 36
 119              		.cfi_offset 4, -36
 120              		.cfi_offset 5, -32
 121              		.cfi_offset 6, -28
 122              		.cfi_offset 7, -24
 123              		.cfi_offset 8, -20
 124              		.cfi_offset 9, -16
 125              		.cfi_offset 10, -12
 126              		.cfi_offset 11, -8
 127              		.cfi_offset 14, -4
 128              		.loc 1 88 0
 129 0004 4368     		ldr	r3, [r0, #4]
 130              		.loc 1 77 0
 131 0006 C9B0     		sub	sp, sp, #292
 132              	.LCFI1:
 133              		.cfi_def_cfa_offset 328
 134              		.loc 1 88 0
 135 0008 012B     		cmp	r3, #1
 136              		.loc 1 77 0
 137 000a 0446     		mov	r4, r0
 138 000c 8946     		mov	r9, r1
 139 000e 9046     		mov	r8, r2
 140              		.loc 1 88 0
 141 0010 00F09080 		beq	.L18
 142              		.loc 1 96 0
 143 0014 0369     		ldr	r3, [r0, #16]	@ float
 144              		.loc 1 95 0
 145 0016 C768     		ldr	r7, [r0, #12]	@ float
 146              	.LVL3:
 147              		.loc 1 97 0
 148 0018 D0F814B0 		ldr	fp, [r0, #20]	@ float
 149              		.loc 1 96 0
 150 001c 0793     		str	r3, [sp, #28]	@ float
 151              	.LVL4:
 152              	.L5:
 153              		.loc 1 101 0
 154 001e 2068     		ldr	r0, [r4, #0]	@ float
 155 0020 4946     		mov	r1, r9
 156 0022 FFF7FEFF 		bl	__aeabi_fsub
 157              	.LVL5:
 158 0026 0546     		mov	r5, r0
 159              	.LVL6:
 160              		.loc 1 109 0
 161 0028 2946     		mov	r1, r5
 162 002a 3846     		mov	r0, r7
 163              	.LVL7:
 164 002c FFF7FEFF 		bl	__aeabi_fmul
 165              	.LVL8:
 166 0030 0746     		mov	r7, r0
 167              	.LVL9:
 168              		.loc 1 106 0
 169 0032 E06A     		ldr	r0, [r4, #44]
 170              	.LVL10:
 171 0034 C0EB0800 		rsb	r0, r0, r8
ARM GAS  C:\DOCUME~1\ADMINI~1\LOCALS~1\Temp\ccNtjtDh.s 			page 4


 172              		.loc 1 112 0
 173 0038 80B2     		uxth	r0, r0
 174 003a FFF7FEFF 		bl	__aeabi_i2f
 175              	.LVL11:
 176 003e 2946     		mov	r1, r5
 177 0040 8246     		mov	sl, r0
 178 0042 FFF7FEFF 		bl	__aeabi_fmul
 179              	.LVL12:
 180 0046 216A     		ldr	r1, [r4, #32]	@ float
 181 0048 FFF7FEFF 		bl	__aeabi_fadd
 182              	.LVL13:
 183              		.loc 1 113 0
 184 004c 626A     		ldr	r2, [r4, #36]	@ float
 185              		.loc 1 112 0
 186 004e 2062     		str	r0, [r4, #32]	@ float
 187              		.loc 1 113 0
 188 0050 1146     		mov	r1, r2
 189 0052 0692     		str	r2, [sp, #24]
 190              		.loc 1 112 0
 191 0054 0646     		mov	r6, r0
 192              		.loc 1 113 0
 193 0056 FFF7FEFF 		bl	__aeabi_fcmple
 194              	.LVL14:
 195 005a 069A     		ldr	r2, [sp, #24]
 196 005c 0028     		cmp	r0, #0
 197 005e 60D1     		bne	.L16
 198              		.loc 1 113 0 is_stmt 0 discriminator 2
 199 0060 A26A     		ldr	r2, [r4, #40]	@ float
 200 0062 3046     		mov	r0, r6
 201 0064 1146     		mov	r1, r2
 202 0066 0692     		str	r2, [sp, #24]
 203 0068 FFF7FEFF 		bl	__aeabi_fcmpge
 204              	.LVL15:
 205 006c 069A     		ldr	r2, [sp, #24]
 206 006e 0028     		cmp	r0, #0
 207 0070 57D1     		bne	.L16
 208              	.L8:
 209              		.loc 1 114 0 is_stmt 1
 210 0072 3146     		mov	r1, r6
 211 0074 0798     		ldr	r0, [sp, #28]	@ float
 212 0076 FFF7FEFF 		bl	__aeabi_fmul
 213              	.LVL16:
 214              		.loc 1 117 0
 215 007a A169     		ldr	r1, [r4, #24]	@ float
 216              		.loc 1 114 0
 217 007c 0646     		mov	r6, r0
 218              	.LVL17:
 219              		.loc 1 117 0
 220 007e 2846     		mov	r0, r5
 221              	.LVL18:
 222 0080 FFF7FEFF 		bl	__aeabi_fsub
 223              	.LVL19:
 224 0084 5946     		mov	r1, fp
 225 0086 FFF7FEFF 		bl	__aeabi_fmul
 226              	.LVL20:
 227 008a 5146     		mov	r1, sl
 228 008c FFF7FEFF 		bl	__aeabi_fdiv
ARM GAS  C:\DOCUME~1\ADMINI~1\LOCALS~1\Temp\ccNtjtDh.s 			page 5


 229              	.LVL21:
 230              		.loc 1 125 0
 231 0090 A368     		ldr	r3, [r4, #8]
 232              		.loc 1 122 0
 233 0092 C4F82C80 		str	r8, [r4, #44]
 234              		.loc 1 117 0
 235 0096 8246     		mov	sl, r0
 236              	.LVL22:
 237              		.loc 1 120 0
 238 0098 A561     		str	r5, [r4, #24]	@ float
 239              		.loc 1 121 0
 240 009a C4F81C90 		str	r9, [r4, #28]	@ float
 241              		.loc 1 125 0
 242 009e 3146     		mov	r1, r6
 243 00a0 3846     		mov	r0, r7
 244              	.LVL23:
 245 00a2 03F10044 		add	r4, r3, #-2147483648
 246              	.LVL24:
 247 00a6 FFF7FEFF 		bl	__aeabi_fadd
 248              	.LVL25:
 249 00aa 5146     		mov	r1, sl
 250 00ac FFF7FEFF 		bl	__aeabi_fadd
 251              	.LVL26:
 252 00b0 0146     		mov	r1, r0
 253 00b2 2046     		mov	r0, r4
 254 00b4 FFF7FEFF 		bl	__aeabi_fmul
 255              	.LVL27:
 256              		.loc 1 126 0
 257 00b8 0021     		movs	r1, #0
 258              		.loc 1 125 0
 259 00ba 0446     		mov	r4, r0
 260              	.LVL28:
 261              		.loc 1 126 0
 262 00bc FFF7FEFF 		bl	__aeabi_fcmple
 263              	.LVL29:
 264 00c0 4FF00008 		mov	r8, #0
 265              	.LVL30:
 266 00c4 50B9     		cbnz	r0, .L10
 267              		.loc 1 126 0 is_stmt 0 discriminator 2
 268 00c6 4FF47F41 		mov	r1, #65280
 269 00ca 2046     		mov	r0, r4
 270 00cc C4F27F71 		movt	r1, 18303
 271 00d0 FFF7FEFF 		bl	__aeabi_fcmpge
 272              	.LVL31:
 273 00d4 4FF6FF78 		movw	r8, #65535
 274 00d8 0028     		cmp	r0, #0
 275 00da 25D0     		beq	.L19
 276              	.L10:
 277              	.LVL32:
 278              		.loc 1 131 0 is_stmt 1
 279 00dc 2846     		mov	r0, r5
 280 00de FFF7FEFF 		bl	__aeabi_f2d
 281              	.LVL33:
 282 00e2 0446     		mov	r4, r0
 283 00e4 3846     		mov	r0, r7
 284 00e6 0D46     		mov	r5, r1
 285              	.LVL34:
ARM GAS  C:\DOCUME~1\ADMINI~1\LOCALS~1\Temp\ccNtjtDh.s 			page 6


 286 00e8 FFF7FEFF 		bl	__aeabi_f2d
 287              	.LVL35:
 288 00ec CDE90001 		strd	r0, [sp]
 289 00f0 3046     		mov	r0, r6
 290 00f2 FFF7FEFF 		bl	__aeabi_f2d
 291              	.LVL36:
 292 00f6 CDE90201 		strd	r0, [sp, #8]
 293 00fa 5046     		mov	r0, sl
 294 00fc FFF7FEFF 		bl	__aeabi_f2d
 295              	.LVL37:
 296 0100 2246     		mov	r2, r4
 297 0102 CDE90401 		strd	r0, [sp, #16]
 298 0106 2B46     		mov	r3, r5
 299 0108 1249     		ldr	r1, .L20
 300 010a 08A8     		add	r0, sp, #32
 301 010c FFF7FEFF 		bl	sprintf
 302              	.LVL38:
 303              		.loc 1 132 0
 304 0110 1149     		ldr	r1, .L20+4
 305 0112 08AA     		add	r2, sp, #32
 306 0114 1148     		ldr	r0, .L20+8
 307 0116 FFF7FEFF 		bl	chprintf
 308              	.LVL39:
 309              		.loc 1 136 0
 310 011a 4046     		mov	r0, r8
 311 011c 49B0     		add	sp, sp, #292
 312 011e BDE8F08F 		pop	{r4, r5, r6, r7, r8, r9, sl, fp, pc}
 313              	.LVL40:
 314              	.L16:
 315              		.loc 1 113 0 discriminator 3
 316 0122 2262     		str	r2, [r4, #32]	@ float
 317 0124 1646     		mov	r6, r2
 318 0126 A4E7     		b	.L8
 319              	.LVL41:
 320              	.L19:
 321 0128 2046     		mov	r0, r4
 322 012a FFF7FEFF 		bl	__aeabi_f2uiz
 323              	.LVL42:
 324 012e 1FFA80F8 		uxth	r8, r0
 325 0132 D3E7     		b	.L10
 326              	.LVL43:
 327              	.L18:
 328              		.loc 1 90 0
 329 0134 C168     		ldr	r1, [r0, #12]	@ float
 330              	.LVL44:
 331 0136 0020     		movs	r0, #0
 332              	.LVL45:
 333 0138 FFF7FEFF 		bl	__aeabi_fsub
 334              	.LVL46:
 335              		.loc 1 91 0
 336 013c 2169     		ldr	r1, [r4, #16]	@ float
 337              		.loc 1 90 0
 338 013e 0746     		mov	r7, r0
 339              	.LVL47:
 340              		.loc 1 91 0
 341 0140 0020     		movs	r0, #0
 342              	.LVL48:
ARM GAS  C:\DOCUME~1\ADMINI~1\LOCALS~1\Temp\ccNtjtDh.s 			page 7


 343 0142 FFF7FEFF 		bl	__aeabi_fsub
 344              	.LVL49:
 345              		.loc 1 92 0
 346 0146 6169     		ldr	r1, [r4, #20]	@ float
 347              		.loc 1 91 0
 348 0148 0790     		str	r0, [sp, #28]	@ float
 349              	.LVL50:
 350              		.loc 1 92 0
 351 014a 0020     		movs	r0, #0
 352              	.LVL51:
 353 014c FFF7FEFF 		bl	__aeabi_fsub
 354              	.LVL52:
 355 0150 8346     		mov	fp, r0
 356              	.LVL53:
 357 0152 64E7     		b	.L5
 358              	.L21:
 359              		.align	2
 360              	.L20:
 361 0154 00000000 		.word	.LC0
 362 0158 1C000000 		.word	.LC1
 363 015c 00000000 		.word	SD1
 364              		.cfi_endproc
 365              	.LFE64:
 366              		.size	PIDUpdatePid, .-PIDUpdatePid
 367              		.section	.rodata.str1.4,"aMS",%progbits,1
 368              		.align	2
 369              	.LC0:
 370 0000 45202566 		.ascii	"E %f pT %f iT %f dT %f\015\012\000"
 370      20705420 
 370      25662069 
 370      54202566 
 370      20645420 
 371 0019 000000   		.space	3
 372              	.LC1:
 373 001c 257300   		.ascii	"%s\000"
 374 001f 00       		.text
 375              	.Letext0:
 376              		.file 2 "c:\\program files\\yagarto\\bin\\../lib/gcc/arm-none-eabi/4.7.1/include/stddef.h"
 377              		.file 3 "c:/program files/yagarto/lib/gcc/../../arm-none-eabi/sys-include/stdint.h"
 378              		.file 4 "../../os/ports/GCC/ARMCMx/chtypes.h"
 379              		.file 5 "../../os/kernel/include/chlists.h"
 380              		.file 6 "../../os/kernel/include/chthreads.h"
 381              		.file 7 "../../os/ports/GCC/ARMCMx/chcore_v7m.h"
 382              		.file 8 "../../os/kernel/include/chmtx.h"
 383              		.file 9 "../../os/kernel/include/chevents.h"
 384              		.file 10 "../../os/kernel/include/chqueues.h"
 385              		.file 11 "../../os/kernel/include/chioch.h"
 386              		.file 12 "../../os/hal/platforms/STM32L1xx/stm32l1xx.h"
 387              		.file 13 "../../os/hal/include/serial.h"
 388              		.file 14 "pid.h"
 389              		.file 15 "../../os/ports/common/ARMCMx/CMSIS/include/core_cm3.h"
 390              		.file 16 "../../os/hal/platforms/STM32/serial_lld.h"
 391              		.file 17 "c:/program files/yagarto/lib/gcc/../../arm-none-eabi/sys-include/stdio.h"