ARM GAS  C:\DOCUME~1\ADMINI~1\LOCALS~1\Temp\ccmjjdjh.s 			page 1


   1              		.syntax unified
   2              		.cpu cortex-m3
   3              		.fpu softvfp
   4              		.eabi_attribute 20, 1
   5              		.eabi_attribute 21, 1
   6              		.eabi_attribute 23, 3
   7              		.eabi_attribute 24, 1
   8              		.eabi_attribute 25, 1
   9              		.eabi_attribute 26, 1
  10              		.eabi_attribute 30, 2
  11              		.eabi_attribute 34, 1
  12              		.eabi_attribute 18, 4
  13              		.thumb
  14              		.file	"pwm.c"
  15              		.text
  16              	.Ltext0:
  17              		.cfi_sections	.debug_frame
  18              		.section	.text.pwmInit,"ax",%progbits
  19              		.align	2
  20              		.global	pwmInit
  21              		.thumb
  22              		.thumb_func
  23              		.type	pwmInit, %function
  24              	pwmInit:
  25              	.LFB62:
  26              		.file 1 "../../os/hal/src/pwm.c"
  27              		.loc 1 68 0
  28              		.cfi_startproc
  29              		@ args = 0, pretend = 0, frame = 0
  30              		@ frame_needed = 0, uses_anonymous_args = 0
  31              		@ link register save eliminated.
  32              		.loc 1 71 0
  33              		.loc 1 70 0
  34 0000 FFF7FEBF 		b	pwm_lld_init
  35              	.LVL0:
  36              		.cfi_endproc
  37              	.LFE62:
  38              		.size	pwmInit, .-pwmInit
  39              		.section	.text.pwmObjectInit,"ax",%progbits
  40              		.align	2
  41              		.global	pwmObjectInit
  42              		.thumb
  43              		.thumb_func
  44              		.type	pwmObjectInit, %function
  45              	pwmObjectInit:
  46              	.LFB63:
  47              		.loc 1 80 0
  48              		.cfi_startproc
  49              		@ args = 0, pretend = 0, frame = 0
  50              		@ frame_needed = 0, uses_anonymous_args = 0
  51              		@ link register save eliminated.
  52              	.LVL1:
  53              		.loc 1 82 0
  54 0000 0123     		movs	r3, #1
  55 0002 0370     		strb	r3, [r0, #0]
  56              		.loc 1 83 0
  57 0004 0023     		movs	r3, #0
ARM GAS  C:\DOCUME~1\ADMINI~1\LOCALS~1\Temp\ccmjjdjh.s 			page 2


  58 0006 4360     		str	r3, [r0, #4]
  59 0008 7047     		bx	lr
  60              		.cfi_endproc
  61              	.LFE63:
  62              		.size	pwmObjectInit, .-pwmObjectInit
  63 000a 00BF     		.section	.text.pwmStart,"ax",%progbits
  64              		.align	2
  65              		.global	pwmStart
  66              		.thumb
  67              		.thumb_func
  68              		.type	pwmStart, %function
  69              	pwmStart:
  70              	.LFB64:
  71              		.loc 1 99 0
  72              		.cfi_startproc
  73              		@ args = 0, pretend = 0, frame = 0
  74              		@ frame_needed = 0, uses_anonymous_args = 0
  75              	.LVL2:
  76 0000 10B5     		push	{r4, lr}
  77              	.LCFI0:
  78              		.cfi_def_cfa_offset 8
  79              		.cfi_offset 4, -8
  80              		.cfi_offset 14, -4
  81              	.LBB2:
  82              		.loc 1 103 0
  83 0002 2023     		movs	r3, #32
  84              	.LVL3:
  85              	.LBE2:
  86              		.loc 1 99 0
  87 0004 0446     		mov	r4, r0
  88              	.LBB3:
  89              		.loc 1 103 0
  90              	@ 103 "../../os/hal/src/pwm.c" 1
  91 0006 83F31188 		msr     BASEPRI, r3
  92              	@ 0 "" 2
  93              	.LVL4:
  94              		.thumb
  95              	.LBE3:
  96              		.loc 1 107 0
  97 000a 8B88     		ldrh	r3, [r1, #4]
  98              	.LVL5:
  99              		.loc 1 106 0
 100 000c 4160     		str	r1, [r0, #4]
 101              		.loc 1 107 0
 102 000e 0381     		strh	r3, [r0, #8]	@ movhi
 103              		.loc 1 108 0
 104 0010 FFF7FEFF 		bl	pwm_lld_start
 105              	.LVL6:
 106              		.loc 1 109 0
 107 0014 0223     		movs	r3, #2
 108 0016 2370     		strb	r3, [r4, #0]
 109              	.LBB4:
 110              		.loc 1 110 0
 111 0018 0023     		movs	r3, #0
 112              	.LVL7:
 113              	@ 110 "../../os/hal/src/pwm.c" 1
 114 001a 83F31188 		msr     BASEPRI, r3
ARM GAS  C:\DOCUME~1\ADMINI~1\LOCALS~1\Temp\ccmjjdjh.s 			page 3


 115              	@ 0 "" 2
 116              	.LVL8:
 117              		.thumb
 118 001e 10BD     		pop	{r4, pc}
 119              	.LBE4:
 120              		.cfi_endproc
 121              	.LFE64:
 122              		.size	pwmStart, .-pwmStart
 123              		.section	.text.pwmStop,"ax",%progbits
 124              		.align	2
 125              		.global	pwmStop
 126              		.thumb
 127              		.thumb_func
 128              		.type	pwmStop, %function
 129              	pwmStop:
 130              	.LFB65:
 131              		.loc 1 120 0
 132              		.cfi_startproc
 133              		@ args = 0, pretend = 0, frame = 0
 134              		@ frame_needed = 0, uses_anonymous_args = 0
 135              	.LVL9:
 136 0000 10B5     		push	{r4, lr}
 137              	.LCFI1:
 138              		.cfi_def_cfa_offset 8
 139              		.cfi_offset 4, -8
 140              		.cfi_offset 14, -4
 141              	.LBB5:
 142              		.loc 1 124 0
 143 0002 2023     		movs	r3, #32
 144              	.LVL10:
 145              	.LBE5:
 146              		.loc 1 120 0
 147 0004 0446     		mov	r4, r0
 148              	.LBB6:
 149              		.loc 1 124 0
 150              	@ 124 "../../os/hal/src/pwm.c" 1
 151 0006 83F31188 		msr     BASEPRI, r3
 152              	@ 0 "" 2
 153              	.LVL11:
 154              		.thumb
 155              	.LBE6:
 156              		.loc 1 127 0
 157 000a FFF7FEFF 		bl	pwm_lld_stop
 158              	.LVL12:
 159              		.loc 1 128 0
 160 000e 0123     		movs	r3, #1
 161 0010 2370     		strb	r3, [r4, #0]
 162              	.LBB7:
 163              		.loc 1 129 0
 164 0012 0023     		movs	r3, #0
 165              	.LVL13:
 166              	@ 129 "../../os/hal/src/pwm.c" 1
 167 0014 83F31188 		msr     BASEPRI, r3
 168              	@ 0 "" 2
 169              	.LVL14:
 170              		.thumb
 171 0018 10BD     		pop	{r4, pc}
ARM GAS  C:\DOCUME~1\ADMINI~1\LOCALS~1\Temp\ccmjjdjh.s 			page 4


 172              	.LBE7:
 173              		.cfi_endproc
 174              	.LFE65:
 175              		.size	pwmStop, .-pwmStop
 176 001a 00BF     		.section	.text.pwmChangePeriod,"ax",%progbits
 177              		.align	2
 178              		.global	pwmChangePeriod
 179              		.thumb
 180              		.thumb_func
 181              		.type	pwmChangePeriod, %function
 182              	pwmChangePeriod:
 183              	.LFB66:
 184              		.loc 1 147 0
 185              		.cfi_startproc
 186              		@ args = 0, pretend = 0, frame = 0
 187              		@ frame_needed = 0, uses_anonymous_args = 0
 188              		@ link register save eliminated.
 189              	.LVL15:
 190 0000 10B4     		push	{r4}
 191              	.LCFI2:
 192              		.cfi_def_cfa_offset 4
 193              		.cfi_offset 4, -4
 194              	.LBB8:
 195              		.loc 1 151 0
 196 0002 2023     		movs	r3, #32
 197              	.LVL16:
 198              	@ 151 "../../os/hal/src/pwm.c" 1
 199 0004 83F31188 		msr     BASEPRI, r3
 200              	@ 0 "" 2
 201              	.LVL17:
 202              		.thumb
 203              	.LBE8:
 204              		.loc 1 154 0
 205 0008 0269     		ldr	r2, [r0, #16]
 206 000a 4C1E     		subs	r4, r1, #1
 207 000c A4B2     		uxth	r4, r4
 208 000e 0181     		strh	r1, [r0, #8]	@ movhi
 209              	.LBB9:
 210              		.loc 1 155 0
 211 0010 0023     		movs	r3, #0
 212              	.LVL18:
 213              	.LBE9:
 214              		.loc 1 154 0
 215 0012 D462     		str	r4, [r2, #44]
 216              	.LBB10:
 217              		.loc 1 155 0
 218              	@ 155 "../../os/hal/src/pwm.c" 1
 219 0014 83F31188 		msr     BASEPRI, r3
 220              	@ 0 "" 2
 221              	.LVL19:
 222              		.thumb
 223              	.LBE10:
 224              		.loc 1 156 0
 225 0018 10BC     		pop	{r4}
 226 001a 7047     		bx	lr
 227              		.cfi_endproc
 228              	.LFE66:
ARM GAS  C:\DOCUME~1\ADMINI~1\LOCALS~1\Temp\ccmjjdjh.s 			page 5


 229              		.size	pwmChangePeriod, .-pwmChangePeriod
 230              		.section	.text.pwmEnableChannel,"ax",%progbits
 231              		.align	2
 232              		.global	pwmEnableChannel
 233              		.thumb
 234              		.thumb_func
 235              		.type	pwmEnableChannel, %function
 236              	pwmEnableChannel:
 237              	.LFB67:
 238              		.loc 1 174 0
 239              		.cfi_startproc
 240              		@ args = 0, pretend = 0, frame = 0
 241              		@ frame_needed = 0, uses_anonymous_args = 0
 242              	.LVL20:
 243 0000 08B5     		push	{r3, lr}
 244              	.LCFI3:
 245              		.cfi_def_cfa_offset 8
 246              		.cfi_offset 3, -8
 247              		.cfi_offset 14, -4
 248              	.LBB11:
 249              		.loc 1 179 0
 250 0002 2023     		movs	r3, #32
 251              	.LVL21:
 252              	@ 179 "../../os/hal/src/pwm.c" 1
 253 0004 83F31188 		msr     BASEPRI, r3
 254              	@ 0 "" 2
 255              	.LVL22:
 256              		.thumb
 257              	.LBE11:
 258              		.loc 1 182 0
 259 0008 FFF7FEFF 		bl	pwm_lld_enable_channel
 260              	.LVL23:
 261              	.LBB12:
 262              		.loc 1 183 0
 263 000c 0023     		movs	r3, #0
 264              	.LVL24:
 265              	@ 183 "../../os/hal/src/pwm.c" 1
 266 000e 83F31188 		msr     BASEPRI, r3
 267              	@ 0 "" 2
 268              	.LVL25:
 269              		.thumb
 270 0012 08BD     		pop	{r3, pc}
 271              	.LBE12:
 272              		.cfi_endproc
 273              	.LFE67:
 274              		.size	pwmEnableChannel, .-pwmEnableChannel
 275              		.section	.text.pwmDisableChannel,"ax",%progbits
 276              		.align	2
 277              		.global	pwmDisableChannel
 278              		.thumb
 279              		.thumb_func
 280              		.type	pwmDisableChannel, %function
 281              	pwmDisableChannel:
 282              	.LFB68:
 283              		.loc 1 200 0
 284              		.cfi_startproc
 285              		@ args = 0, pretend = 0, frame = 0
ARM GAS  C:\DOCUME~1\ADMINI~1\LOCALS~1\Temp\ccmjjdjh.s 			page 6


 286              		@ frame_needed = 0, uses_anonymous_args = 0
 287              	.LVL26:
 288 0000 08B5     		push	{r3, lr}
 289              	.LCFI4:
 290              		.cfi_def_cfa_offset 8
 291              		.cfi_offset 3, -8
 292              		.cfi_offset 14, -4
 293              	.LBB13:
 294              		.loc 1 205 0
 295 0002 2023     		movs	r3, #32
 296              	.LVL27:
 297              	@ 205 "../../os/hal/src/pwm.c" 1
 298 0004 83F31188 		msr     BASEPRI, r3
 299              	@ 0 "" 2
 300              	.LVL28:
 301              		.thumb
 302              	.LBE13:
 303              		.loc 1 208 0
 304 0008 FFF7FEFF 		bl	pwm_lld_disable_channel
 305              	.LVL29:
 306              	.LBB14:
 307              		.loc 1 209 0
 308 000c 0023     		movs	r3, #0
 309              	.LVL30:
 310              	@ 209 "../../os/hal/src/pwm.c" 1
 311 000e 83F31188 		msr     BASEPRI, r3
 312              	@ 0 "" 2
 313              	.LVL31:
 314              		.thumb
 315 0012 08BD     		pop	{r3, pc}
 316              	.LBE14:
 317              		.cfi_endproc
 318              	.LFE68:
 319              		.size	pwmDisableChannel, .-pwmDisableChannel
 320              		.text
 321              	.Letext0:
 322              		.file 2 "c:/program files/yagarto/lib/gcc/../../arm-none-eabi/sys-include/stdint.h"
 323              		.file 3 "../../os/hal/platforms/STM32/stm32.h"
 324              		.file 4 "../../os/hal/include/pwm.h"
 325              		.file 5 "../../os/hal/platforms/STM32/pwm_lld.h"
 326              		.file 6 "../../os/ports/common/ARMCMx/CMSIS/include/core_cm3.h"