ARM GAS  C:\DOCUME~1\ADMINI~1\LOCALS~1\Temp\ccsGauZ4.s 			page 1


   1              		.syntax unified
   2              		.cpu cortex-m3
   3              		.fpu softvfp
   4              		.eabi_attribute 20, 1
   5              		.eabi_attribute 21, 1
   6              		.eabi_attribute 23, 3
   7              		.eabi_attribute 24, 1
   8              		.eabi_attribute 25, 1
   9              		.eabi_attribute 26, 1
  10              		.eabi_attribute 30, 2
  11              		.eabi_attribute 34, 1
  12              		.eabi_attribute 18, 4
  13              		.thumb
  14              		.file	"syscalls.c"
  15              		.text
  16              	.Ltext0:
  17              		.cfi_sections	.debug_frame
  18              		.section	.text._read_r,"ax",%progbits
  19              		.align	2
  20              		.global	_read_r
  21              		.thumb
  22              		.thumb_func
  23              		.type	_read_r, %function
  24              	_read_r:
  25              	.LFB7:
  26              		.file 1 "../../os/various/syscalls.c"
  27              		.loc 1 82 0
  28              		.cfi_startproc
  29              		@ args = 0, pretend = 0, frame = 0
  30              		@ frame_needed = 0, uses_anonymous_args = 0
  31              		@ link register save eliminated.
  32              	.LVL0:
  33              		.loc 1 95 0
  34 0000 1623     		movs	r3, #22
  35              	.LVL1:
  36 0002 0360     		str	r3, [r0, #0]
  37              		.loc 1 98 0
  38 0004 4FF0FF30 		mov	r0, #-1
  39              	.LVL2:
  40 0008 7047     		bx	lr
  41              		.cfi_endproc
  42              	.LFE7:
  43              		.size	_read_r, .-_read_r
  44 000a 00BF     		.section	.text._lseek_r,"ax",%progbits
  45              		.align	2
  46              		.global	_lseek_r
  47              		.thumb
  48              		.thumb_func
  49              		.type	_lseek_r, %function
  50              	_lseek_r:
  51              	.LFB8:
  52              		.loc 1 103 0
  53              		.cfi_startproc
  54              		@ args = 0, pretend = 0, frame = 0
  55              		@ frame_needed = 0, uses_anonymous_args = 0
  56              		@ link register save eliminated.
  57              	.LVL3:
ARM GAS  C:\DOCUME~1\ADMINI~1\LOCALS~1\Temp\ccsGauZ4.s 			page 2


  58              		.loc 1 110 0
  59 0000 0020     		movs	r0, #0
  60              	.LVL4:
  61 0002 7047     		bx	lr
  62              		.cfi_endproc
  63              	.LFE8:
  64              		.size	_lseek_r, .-_lseek_r
  65              		.section	.text._write_r,"ax",%progbits
  66              		.align	2
  67              		.global	_write_r
  68              		.thumb
  69              		.thumb_func
  70              		.type	_write_r, %function
  71              	_write_r:
  72              	.LFB9:
  73              		.loc 1 115 0
  74              		.cfi_startproc
  75              		@ args = 0, pretend = 0, frame = 0
  76              		@ frame_needed = 0, uses_anonymous_args = 0
  77              		@ link register save eliminated.
  78              	.LVL5:
  79              		.loc 1 127 0
  80 0000 1846     		mov	r0, r3
  81              	.LVL6:
  82 0002 7047     		bx	lr
  83              		.cfi_endproc
  84              	.LFE9:
  85              		.size	_write_r, .-_write_r
  86              		.section	.text._close_r,"ax",%progbits
  87              		.align	2
  88              		.global	_close_r
  89              		.thumb
  90              		.thumb_func
  91              		.type	_close_r, %function
  92              	_close_r:
  93              	.LFB10:
  94              		.loc 1 132 0
  95              		.cfi_startproc
  96              		@ args = 0, pretend = 0, frame = 0
  97              		@ frame_needed = 0, uses_anonymous_args = 0
  98              		@ link register save eliminated.
  99              	.LVL7:
 100              		.loc 1 137 0
 101 0000 0020     		movs	r0, #0
 102              	.LVL8:
 103 0002 7047     		bx	lr
 104              		.cfi_endproc
 105              	.LFE10:
 106              		.size	_close_r, .-_close_r
 107              		.section	.text._sbrk_r,"ax",%progbits
 108              		.align	2
 109              		.global	_sbrk_r
 110              		.thumb
 111              		.thumb_func
 112              		.type	_sbrk_r, %function
 113              	_sbrk_r:
 114              	.LFB11:
ARM GAS  C:\DOCUME~1\ADMINI~1\LOCALS~1\Temp\ccsGauZ4.s 			page 3


 115              		.loc 1 142 0
 116              		.cfi_startproc
 117              		@ args = 0, pretend = 0, frame = 0
 118              		@ frame_needed = 0, uses_anonymous_args = 0
 119              	.LVL9:
 120 0000 10B5     		push	{r4, lr}
 121              	.LCFI0:
 122              		.cfi_def_cfa_offset 8
 123              		.cfi_offset 4, -8
 124              		.cfi_offset 14, -4
 125              		.loc 1 142 0
 126 0002 0446     		mov	r4, r0
 127              		.loc 1 148 0
 128 0004 0846     		mov	r0, r1
 129              	.LVL10:
 130 0006 FFF7FEFF 		bl	chCoreAlloc
 131              	.LVL11:
 132              		.loc 1 149 0
 133 000a 00B1     		cbz	r0, .L8
 134              		.loc 1 154 0
 135 000c 10BD     		pop	{r4, pc}
 136              	.L8:
 137              		.loc 1 150 0
 138 000e 0C23     		movs	r3, #12
 139 0010 2360     		str	r3, [r4, #0]
 140              		.loc 1 151 0
 141 0012 4FF0FF30 		mov	r0, #-1
 142              	.LVL12:
 143              		.loc 1 154 0
 144 0016 10BD     		pop	{r4, pc}
 145              		.cfi_endproc
 146              	.LFE11:
 147              		.size	_sbrk_r, .-_sbrk_r
 148              		.section	.text._fstat_r,"ax",%progbits
 149              		.align	2
 150              		.global	_fstat_r
 151              		.thumb
 152              		.thumb_func
 153              		.type	_fstat_r, %function
 154              	_fstat_r:
 155              	.LFB12:
 156              		.loc 1 159 0
 157              		.cfi_startproc
 158              		@ args = 0, pretend = 0, frame = 0
 159              		@ frame_needed = 0, uses_anonymous_args = 0
 160              	.LVL13:
 161 0000 10B5     		push	{r4, lr}
 162              	.LCFI1:
 163              		.cfi_def_cfa_offset 8
 164              		.cfi_offset 4, -8
 165              		.cfi_offset 14, -4
 166              		.loc 1 163 0
 167 0002 1046     		mov	r0, r2
 168              	.LVL14:
 169              		.loc 1 159 0
 170 0004 1446     		mov	r4, r2
 171              		.loc 1 163 0
ARM GAS  C:\DOCUME~1\ADMINI~1\LOCALS~1\Temp\ccsGauZ4.s 			page 4


 172 0006 0021     		movs	r1, #0
 173              	.LVL15:
 174 0008 3C22     		movs	r2, #60
 175              	.LVL16:
 176 000a FFF7FEFF 		bl	memset
 177              	.LVL17:
 178              		.loc 1 164 0
 179 000e 4FF40053 		mov	r3, #8192
 180 0012 6360     		str	r3, [r4, #4]
 181              		.loc 1 166 0
 182 0014 0020     		movs	r0, #0
 183 0016 10BD     		pop	{r4, pc}
 184              		.cfi_endproc
 185              	.LFE12:
 186              		.size	_fstat_r, .-_fstat_r
 187              		.section	.text._isatty_r,"ax",%progbits
 188              		.align	2
 189              		.global	_isatty_r
 190              		.thumb
 191              		.thumb_func
 192              		.type	_isatty_r, %function
 193              	_isatty_r:
 194              	.LFB13:
 195              		.loc 1 171 0
 196              		.cfi_startproc
 197              		@ args = 0, pretend = 0, frame = 0
 198              		@ frame_needed = 0, uses_anonymous_args = 0
 199              		@ link register save eliminated.
 200              	.LVL18:
 201              		.loc 1 176 0
 202 0000 0120     		movs	r0, #1
 203              	.LVL19:
 204 0002 7047     		bx	lr
 205              		.cfi_endproc
 206              	.LFE13:
 207              		.size	_isatty_r, .-_isatty_r
 208              		.text
 209              	.Letext0:
 210              		.file 2 "c:\\program files\\yagarto\\bin\\../lib/gcc/arm-none-eabi/4.7.1/include/stddef.h"
 211              		.file 3 "c:/program files/yagarto/lib/gcc/../../arm-none-eabi/sys-include/sys/lock.h"
 212              		.file 4 "c:/program files/yagarto/lib/gcc/../../arm-none-eabi/sys-include/sys/_types.h"
 213              		.file 5 "c:/program files/yagarto/lib/gcc/../../arm-none-eabi/sys-include/sys/reent.h"
 214              		.file 6 "c:/program files/yagarto/lib/gcc/../../arm-none-eabi/sys-include/sys/types.h"
 215              		.file 7 "c:/program files/yagarto/lib/gcc/../../arm-none-eabi/sys-include/sys/stat.h"
 216              		.file 8 "../../os/kernel/include/chmemcore.h"