ARM GAS  C:\DOCUME~1\ADMINI~1\LOCALS~1\Temp\ccZ2ObXc.s 			page 1


   1              		.syntax unified
   2              		.cpu cortex-m3
   3              		.fpu softvfp
   4              		.eabi_attribute 20, 1
   5              		.eabi_attribute 21, 1
   6              		.eabi_attribute 23, 3
   7              		.eabi_attribute 24, 1
   8              		.eabi_attribute 25, 1
   9              		.eabi_attribute 26, 1
  10              		.eabi_attribute 30, 2
  11              		.eabi_attribute 34, 1
  12              		.eabi_attribute 18, 4
  13              		.thumb
  14              		.file	"testevt.c"
  15              		.text
  16              	.Ltext0:
  17              		.cfi_sections	.debug_frame
  18              		.section	.text.evt3_setup,"ax",%progbits
  19              		.align	2
  20              		.thumb
  21              		.thumb_func
  22              		.type	evt3_setup, %function
  23              	evt3_setup:
  24              	.LFB16:
  25              		.file 1 "../../test/testevt.c"
  26              		.loc 1 258 0
  27              		.cfi_startproc
  28              		@ args = 0, pretend = 0, frame = 0
  29              		@ frame_needed = 0, uses_anonymous_args = 0
  30              		@ link register save eliminated.
  31              		.loc 1 260 0
  32 0000 4FF0FF30 		mov	r0, #-1
  33              		.loc 1 261 0
  34              		.loc 1 260 0
  35 0004 FFF7FEBF 		b	chEvtClearFlags
  36              	.LVL0:
  37              		.cfi_endproc
  38              	.LFE16:
  39              		.size	evt3_setup, .-evt3_setup
  40              		.section	.text.evt2_setup,"ax",%progbits
  41              		.align	2
  42              		.thumb
  43              		.thumb_func
  44              		.type	evt2_setup, %function
  45              	evt2_setup:
  46              	.LFB12:
  47              		.loc 1 139 0
  48              		.cfi_startproc
  49              		@ args = 0, pretend = 0, frame = 0
  50              		@ frame_needed = 0, uses_anonymous_args = 0
  51              		@ link register save eliminated.
  52              		.loc 1 141 0
  53 0000 4FF0FF30 		mov	r0, #-1
  54              		.loc 1 142 0
  55              		.loc 1 141 0
  56 0004 FFF7FEBF 		b	chEvtClearFlags
  57              	.LVL1:
ARM GAS  C:\DOCUME~1\ADMINI~1\LOCALS~1\Temp\ccZ2ObXc.s 			page 2


  58              		.cfi_endproc
  59              	.LFE12:
  60              		.size	evt2_setup, .-evt2_setup
  61              		.section	.text.evt1_setup,"ax",%progbits
  62              		.align	2
  63              		.thumb
  64              		.thumb_func
  65              		.type	evt1_setup, %function
  66              	evt1_setup:
  67              	.LFB7:
  68              		.loc 1 86 0
  69              		.cfi_startproc
  70              		@ args = 0, pretend = 0, frame = 0
  71              		@ frame_needed = 0, uses_anonymous_args = 0
  72              		@ link register save eliminated.
  73              		.loc 1 88 0
  74 0000 4FF0FF30 		mov	r0, #-1
  75              		.loc 1 89 0
  76              		.loc 1 88 0
  77 0004 FFF7FEBF 		b	chEvtClearFlags
  78              	.LVL2:
  79              		.cfi_endproc
  80              	.LFE7:
  81              		.size	evt1_setup, .-evt1_setup
  82              		.section	.text.evt2_execute,"ax",%progbits
  83              		.align	2
  84              		.thumb
  85              		.thumb_func
  86              		.type	evt2_execute, %function
  87              	evt2_execute:
  88              	.LFB15:
  89              		.loc 1 160 0
  90              		.cfi_startproc
  91              		@ args = 0, pretend = 0, frame = 32
  92              		@ frame_needed = 0, uses_anonymous_args = 0
  93 0000 2DE9F042 		push	{r4, r5, r6, r7, r9, lr}
  94              	.LCFI0:
  95              		.cfi_def_cfa_offset 24
  96              		.cfi_offset 4, -24
  97              		.cfi_offset 5, -20
  98              		.cfi_offset 6, -16
  99              		.cfi_offset 7, -12
 100              		.cfi_offset 9, -8
 101              		.cfi_offset 14, -4
 102              		.loc 1 168 0
 103 0004 0520     		movs	r0, #5
 104              		.loc 1 160 0
 105 0006 8AB0     		sub	sp, sp, #40
 106              	.LCFI1:
 107              		.cfi_def_cfa_offset 64
 108              		.loc 1 168 0
 109 0008 FFF7FEFF 		bl	chEvtAddFlags
 110              	.LVL3:
 111              		.loc 1 169 0
 112 000c 4FF0FF30 		mov	r0, #-1
 113 0010 FFF7FEFF 		bl	chEvtWaitOne
 114              	.LVL4:
ARM GAS  C:\DOCUME~1\ADMINI~1\LOCALS~1\Temp\ccZ2ObXc.s 			page 3


 115              		.loc 1 170 0
 116 0014 0138     		subs	r0, r0, #1
 117              	.LVL5:
 118 0016 4142     		rsbs	r1, r0, #0
 119 0018 4141     		adcs	r1, r1, r0
 120 001a 0120     		movs	r0, #1
 121              	.LVL6:
 122 001c FFF7FEFF 		bl	_test_assert
 123              	.LVL7:
 124 0020 10B1     		cbz	r0, .L8
 125              	.L4:
 126              		.loc 1 233 0
 127 0022 0AB0     		add	sp, sp, #40
 128 0024 BDE8F082 		pop	{r4, r5, r6, r7, r9, pc}
 129              	.L8:
 130              		.loc 1 171 0
 131 0028 4FF0FF30 		mov	r0, #-1
 132 002c FFF7FEFF 		bl	chEvtWaitOne
 133              	.LVL8:
 134              		.loc 1 172 0
 135 0030 021F     		subs	r2, r0, #4
 136 0032 5142     		rsbs	r1, r2, #0
 137 0034 5141     		adcs	r1, r1, r2
 138 0036 0220     		movs	r0, #2
 139              	.LVL9:
 140 0038 FFF7FEFF 		bl	_test_assert
 141              	.LVL10:
 142 003c 0028     		cmp	r0, #0
 143 003e F0D1     		bne	.L4
 144              		.loc 1 173 0
 145 0040 4FF0FF30 		mov	r0, #-1
 146 0044 FFF7FEFF 		bl	chEvtClearFlags
 147              	.LVL11:
 148              		.loc 1 174 0
 149 0048 D0F10101 		rsbs	r1, r0, #1
 150 004c 38BF     		it	cc
 151 004e 0021     		movcc	r1, #0
 152 0050 0320     		movs	r0, #3
 153              	.LVL12:
 154 0052 FFF7FEFF 		bl	_test_assert
 155              	.LVL13:
 156 0056 0028     		cmp	r0, #0
 157 0058 E3D1     		bne	.L4
 158              		.loc 1 181 0
 159 005a 754D     		ldr	r5, .L9
 160              		.loc 1 179 0
 161 005c FFF7FEFF 		bl	test_wait_tick
 162              	.LVL14:
 163              		.loc 1 181 0
 164 0060 744B     		ldr	r3, .L9+4
 165 0062 EC69     		ldr	r4, [r5, #28]
 166 0064 1B68     		ldr	r3, [r3, #0]
 167 0066 A268     		ldr	r2, [r4, #8]
 168 0068 0393     		str	r3, [sp, #12]
 169              		.loc 1 180 0
 170 006a 734F     		ldr	r7, .L9+8
 171              		.loc 1 181 0
ARM GAS  C:\DOCUME~1\ADMINI~1\LOCALS~1\Temp\ccZ2ObXc.s 			page 4


 172 006c 4FF49871 		mov	r1, #304
 173 0070 013A     		subs	r2, r2, #1
 174 0072 724B     		ldr	r3, .L9+12
 175 0074 0094     		str	r4, [sp, #0]
 176 0076 0398     		ldr	r0, [sp, #12]
 177              		.loc 1 180 0
 178 0078 FC68     		ldr	r4, [r7, #12]
 179              	.LVL15:
 180              		.loc 1 181 0
 181 007a FFF7FEFF 		bl	chThdCreateStatic
 182              	.LVL16:
 183 007e 704E     		ldr	r6, .L9+16
 184 0080 3060     		str	r0, [r6, #0]
 185              		.loc 1 183 0
 186 0082 4FF0FF30 		mov	r0, #-1
 187 0086 FFF7FEFF 		bl	chEvtWaitOne
 188              	.LVL17:
 189              		.loc 1 184 0
 190 008a 04F13201 		add	r1, r4, #50
 191              	.LVL18:
 192              		.loc 1 183 0
 193 008e 8146     		mov	r9, r0
 194              	.LVL19:
 195              		.loc 1 184 0
 196 0090 04F13702 		add	r2, r4, #55
 197 0094 0420     		movs	r0, #4
 198              	.LVL20:
 199 0096 FFF7FEFF 		bl	_test_assert_time_window
 200              	.LVL21:
 201 009a 0028     		cmp	r0, #0
 202 009c C1D1     		bne	.L4
 203              		.loc 1 185 0
 204 009e 0520     		movs	r0, #5
 205 00a0 B9F10103 		subs	r3, r9, #1
 206 00a4 5942     		rsbs	r1, r3, #0
 207 00a6 5941     		adcs	r1, r1, r3
 208 00a8 FFF7FEFF 		bl	_test_assert
 209              	.LVL22:
 210 00ac 0028     		cmp	r0, #0
 211 00ae B8D1     		bne	.L4
 212              		.loc 1 186 0
 213 00b0 4FF0FF30 		mov	r0, #-1
 214 00b4 FFF7FEFF 		bl	chEvtClearFlags
 215              	.LVL23:
 216              		.loc 1 187 0
 217 00b8 D0F10101 		rsbs	r1, r0, #1
 218 00bc 38BF     		it	cc
 219 00be 0021     		movcc	r1, #0
 220 00c0 0620     		movs	r0, #6
 221              	.LVL24:
 222 00c2 FFF7FEFF 		bl	_test_assert
 223              	.LVL25:
 224 00c6 0028     		cmp	r0, #0
 225 00c8 ABD1     		bne	.L4
 226              		.loc 1 188 0
 227 00ca FFF7FEFF 		bl	test_wait_threads
 228              	.LVL26:
ARM GAS  C:\DOCUME~1\ADMINI~1\LOCALS~1\Temp\ccZ2ObXc.s 			page 5


 229              		.loc 1 193 0
 230 00ce 0520     		movs	r0, #5
 231 00d0 FFF7FEFF 		bl	chEvtAddFlags
 232              	.LVL27:
 233              		.loc 1 194 0
 234 00d4 4FF0FF30 		mov	r0, #-1
 235 00d8 FFF7FEFF 		bl	chEvtWaitAny
 236              	.LVL28:
 237              		.loc 1 195 0
 238 00dc B0F1050C 		subs	ip, r0, #5
 239 00e0 DCF10001 		rsbs	r1, ip, #0
 240 00e4 51EB0C01 		adcs	r1, r1, ip
 241 00e8 0720     		movs	r0, #7
 242              	.LVL29:
 243 00ea FFF7FEFF 		bl	_test_assert
 244              	.LVL30:
 245 00ee 0028     		cmp	r0, #0
 246 00f0 97D1     		bne	.L4
 247              		.loc 1 196 0
 248 00f2 4FF0FF30 		mov	r0, #-1
 249 00f6 FFF7FEFF 		bl	chEvtClearFlags
 250              	.LVL31:
 251              		.loc 1 197 0
 252 00fa D0F10101 		rsbs	r1, r0, #1
 253 00fe 38BF     		it	cc
 254 0100 0021     		movcc	r1, #0
 255 0102 0820     		movs	r0, #8
 256              	.LVL32:
 257 0104 FFF7FEFF 		bl	_test_assert
 258              	.LVL33:
 259 0108 0028     		cmp	r0, #0
 260 010a 8AD1     		bne	.L4
 261              		.loc 1 202 0
 262 010c FFF7FEFF 		bl	test_wait_tick
 263              	.LVL34:
 264              		.loc 1 204 0
 265 0110 E869     		ldr	r0, [r5, #28]
 266 0112 4FF49871 		mov	r1, #304
 267 0116 8268     		ldr	r2, [r0, #8]
 268 0118 484B     		ldr	r3, .L9+12
 269 011a 013A     		subs	r2, r2, #1
 270 011c 0090     		str	r0, [sp, #0]
 271 011e 0398     		ldr	r0, [sp, #12]
 272              		.loc 1 203 0
 273 0120 FC68     		ldr	r4, [r7, #12]
 274              	.LVL35:
 275              		.loc 1 204 0
 276 0122 FFF7FEFF 		bl	chThdCreateStatic
 277              	.LVL36:
 278 0126 3060     		str	r0, [r6, #0]
 279              		.loc 1 206 0
 280 0128 4FF0FF30 		mov	r0, #-1
 281 012c FFF7FEFF 		bl	chEvtWaitAny
 282              	.LVL37:
 283              		.loc 1 207 0
 284 0130 04F13201 		add	r1, r4, #50
 285              	.LVL38:
ARM GAS  C:\DOCUME~1\ADMINI~1\LOCALS~1\Temp\ccZ2ObXc.s 			page 6


 286              		.loc 1 206 0
 287 0134 8146     		mov	r9, r0
 288              	.LVL39:
 289              		.loc 1 207 0
 290 0136 04F13702 		add	r2, r4, #55
 291 013a 0920     		movs	r0, #9
 292              	.LVL40:
 293 013c FFF7FEFF 		bl	_test_assert_time_window
 294              	.LVL41:
 295 0140 0028     		cmp	r0, #0
 296 0142 7FF46EAF 		bne	.L4
 297              		.loc 1 208 0
 298 0146 0A20     		movs	r0, #10
 299 0148 B9F1010E 		subs	lr, r9, #1
 300 014c DEF10001 		rsbs	r1, lr, #0
 301 0150 51EB0E01 		adcs	r1, r1, lr
 302 0154 FFF7FEFF 		bl	_test_assert
 303              	.LVL42:
 304 0158 0028     		cmp	r0, #0
 305 015a 7FF462AF 		bne	.L4
 306              		.loc 1 209 0
 307 015e 4FF0FF30 		mov	r0, #-1
 308 0162 FFF7FEFF 		bl	chEvtClearFlags
 309              	.LVL43:
 310              		.loc 1 210 0
 311 0166 D0F10101 		rsbs	r1, r0, #1
 312 016a 38BF     		it	cc
 313 016c 0021     		movcc	r1, #0
 314 016e 0B20     		movs	r0, #11
 315              	.LVL44:
 316 0170 FFF7FEFF 		bl	_test_assert
 317              	.LVL45:
 318 0174 0028     		cmp	r0, #0
 319 0176 7FF454AF 		bne	.L4
 320              		.loc 1 216 0
 321 017a DFF8D490 		ldr	r9, .L9+32
 322              		.loc 1 217 0
 323 017e 314C     		ldr	r4, .L9+20
 324              	.LVL46:
 325              		.loc 1 211 0
 326 0180 FFF7FEFF 		bl	test_wait_threads
 327              	.LVL47:
 328              		.loc 1 218 0
 329 0184 4846     		mov	r0, r9
 330 0186 04A9     		add	r1, sp, #16
 331 0188 0122     		movs	r2, #1
 332              		.loc 1 216 0
 333 018a C9F80090 		str	r9, [r9, #0]
 334              		.loc 1 217 0
 335 018e 2460     		str	r4, [r4, #0]
 336              		.loc 1 218 0
 337 0190 FFF7FEFF 		bl	chEvtRegisterMask
 338              	.LVL48:
 339              		.loc 1 219 0
 340 0194 07A9     		add	r1, sp, #28
 341 0196 0422     		movs	r2, #4
 342 0198 2046     		mov	r0, r4
ARM GAS  C:\DOCUME~1\ADMINI~1\LOCALS~1\Temp\ccZ2ObXc.s 			page 7


 343 019a FFF7FEFF 		bl	chEvtRegisterMask
 344              	.LVL49:
 345              		.loc 1 220 0
 346 019e FFF7FEFF 		bl	test_wait_tick
 347              	.LVL50:
 348              		.loc 1 222 0
 349 01a2 EB69     		ldr	r3, [r5, #28]
 350 01a4 2848     		ldr	r0, .L9+24
 351 01a6 9A68     		ldr	r2, [r3, #8]
 352 01a8 4FF49871 		mov	r1, #304
 353 01ac 013A     		subs	r2, r2, #1
 354 01ae 0090     		str	r0, [sp, #0]
 355 01b0 264B     		ldr	r3, .L9+28
 356 01b2 0398     		ldr	r0, [sp, #12]
 357              		.loc 1 221 0
 358 01b4 FD68     		ldr	r5, [r7, #12]
 359              	.LVL51:
 360              		.loc 1 222 0
 361 01b6 FFF7FEFF 		bl	chThdCreateStatic
 362              	.LVL52:
 363 01ba 3060     		str	r0, [r6, #0]
 364              		.loc 1 224 0
 365 01bc 0520     		movs	r0, #5
 366 01be FFF7FEFF 		bl	chEvtWaitAll
 367              	.LVL53:
 368              		.loc 1 225 0
 369 01c2 0C20     		movs	r0, #12
 370 01c4 05F13201 		add	r1, r5, #50
 371              	.LVL54:
 372 01c8 05F13702 		add	r2, r5, #55
 373 01cc FFF7FEFF 		bl	_test_assert_time_window
 374              	.LVL55:
 375 01d0 0028     		cmp	r0, #0
 376 01d2 7FF426AF 		bne	.L4
 377              		.loc 1 226 0
 378 01d6 4FF0FF30 		mov	r0, #-1
 379 01da FFF7FEFF 		bl	chEvtClearFlags
 380              	.LVL56:
 381              		.loc 1 227 0
 382 01de D0F10101 		rsbs	r1, r0, #1
 383 01e2 38BF     		it	cc
 384 01e4 0021     		movcc	r1, #0
 385 01e6 0D20     		movs	r0, #13
 386              	.LVL57:
 387 01e8 FFF7FEFF 		bl	_test_assert
 388              	.LVL58:
 389 01ec 0028     		cmp	r0, #0
 390 01ee 7FF418AF 		bne	.L4
 391              		.loc 1 228 0
 392 01f2 FFF7FEFF 		bl	test_wait_threads
 393              	.LVL59:
 394              		.loc 1 229 0
 395 01f6 4846     		mov	r0, r9
 396 01f8 04A9     		add	r1, sp, #16
 397 01fa FFF7FEFF 		bl	chEvtUnregister
 398              	.LVL60:
 399              		.loc 1 230 0
ARM GAS  C:\DOCUME~1\ADMINI~1\LOCALS~1\Temp\ccZ2ObXc.s 			page 8


 400 01fe 2046     		mov	r0, r4
 401 0200 07A9     		add	r1, sp, #28
 402 0202 FFF7FEFF 		bl	chEvtUnregister
 403              	.LVL61:
 404              		.loc 1 231 0
 405 0206 D9F80010 		ldr	r1, [r9, #0]
 406 020a 0E20     		movs	r0, #14
 407 020c B1EB0902 		subs	r2, r1, r9
 408 0210 5142     		rsbs	r1, r2, #0
 409 0212 5141     		adcs	r1, r1, r2
 410 0214 FFF7FEFF 		bl	_test_assert
 411              	.LVL62:
 412 0218 0028     		cmp	r0, #0
 413 021a 7FF402AF 		bne	.L4
 414              		.loc 1 232 0
 415 021e 2168     		ldr	r1, [r4, #0]
 416 0220 0F20     		movs	r0, #15
 417 0222 0B1B     		subs	r3, r1, r4
 418 0224 5942     		rsbs	r1, r3, #0
 419 0226 5941     		adcs	r1, r1, r3
 420 0228 FFF7FEFF 		bl	_test_assert
 421              	.LVL63:
 422 022c F9E6     		b	.L4
 423              	.L10:
 424 022e 00BF     		.align	2
 425              	.L9:
 426 0230 00000000 		.word	rlist
 427 0234 00000000 		.word	wa
 428 0238 00000000 		.word	vtlist
 429 023c 00000000 		.word	thread1
 430 0240 00000000 		.word	threads
 431 0244 00000000 		.word	.LANCHOR1
 432 0248 00000000 		.word	.LC0
 433 024c 00000000 		.word	thread2
 434 0250 00000000 		.word	.LANCHOR0
 435              		.cfi_endproc
 436              	.LFE15:
 437              		.size	evt2_execute, .-evt2_execute
 438              		.section	.text.thread2,"ax",%progbits
 439              		.align	2
 440              		.thumb
 441              		.thumb_func
 442              		.type	thread2, %function
 443              	thread2:
 444              	.LFB14:
 445              		.loc 1 151 0
 446              		.cfi_startproc
 447              		@ args = 0, pretend = 0, frame = 0
 448              		@ frame_needed = 0, uses_anonymous_args = 0
 449              	.LVL64:
 450              		.loc 1 154 0
 451 0000 40F20000 		movw	r0, #:lower16:.LANCHOR0
 452              	.LVL65:
 453              		.loc 1 151 0
 454 0004 08B5     		push	{r3, lr}
 455              	.LCFI2:
 456              		.cfi_def_cfa_offset 8
ARM GAS  C:\DOCUME~1\ADMINI~1\LOCALS~1\Temp\ccZ2ObXc.s 			page 9


 457              		.cfi_offset 3, -8
 458              		.cfi_offset 14, -4
 459              		.loc 1 154 0
 460 0006 0021     		movs	r1, #0
 461 0008 C0F20000 		movt	r0, #:upper16:.LANCHOR0
 462 000c FFF7FEFF 		bl	chEvtBroadcastFlags
 463              	.LVL66:
 464              		.loc 1 155 0
 465 0010 3220     		movs	r0, #50
 466 0012 FFF7FEFF 		bl	chThdSleep
 467              	.LVL67:
 468              		.loc 1 156 0
 469 0016 40F20000 		movw	r0, #:lower16:.LANCHOR1
 470 001a C0F20000 		movt	r0, #:upper16:.LANCHOR1
 471 001e 0021     		movs	r1, #0
 472 0020 FFF7FEFF 		bl	chEvtBroadcastFlags
 473              	.LVL68:
 474              		.loc 1 158 0
 475 0024 0020     		movs	r0, #0
 476 0026 08BD     		pop	{r3, pc}
 477              		.cfi_endproc
 478              	.LFE14:
 479              		.size	thread2, .-thread2
 480              		.section	.text.thread1,"ax",%progbits
 481              		.align	2
 482              		.thumb
 483              		.thumb_func
 484              		.type	thread1, %function
 485              	thread1:
 486              	.LFB13:
 487              		.loc 1 144 0
 488              		.cfi_startproc
 489              		@ args = 0, pretend = 0, frame = 0
 490              		@ frame_needed = 0, uses_anonymous_args = 0
 491              	.LVL69:
 492 0000 10B5     		push	{r4, lr}
 493              	.LCFI3:
 494              		.cfi_def_cfa_offset 8
 495              		.cfi_offset 4, -8
 496              		.cfi_offset 14, -4
 497              		.loc 1 144 0
 498 0002 0446     		mov	r4, r0
 499              		.loc 1 146 0
 500 0004 3220     		movs	r0, #50
 501              	.LVL70:
 502 0006 FFF7FEFF 		bl	chThdSleep
 503              	.LVL71:
 504              		.loc 1 147 0
 505 000a 2046     		mov	r0, r4
 506 000c 0121     		movs	r1, #1
 507 000e FFF7FEFF 		bl	chEvtSignalFlags
 508              	.LVL72:
 509              		.loc 1 149 0
 510 0012 0020     		movs	r0, #0
 511 0014 10BD     		pop	{r4, pc}
 512              		.cfi_endproc
 513              	.LFE13:
ARM GAS  C:\DOCUME~1\ADMINI~1\LOCALS~1\Temp\ccZ2ObXc.s 			page 10


 514              		.size	thread1, .-thread1
 515 0016 00BF     		.section	.text.evt1_execute,"ax",%progbits
 516              		.align	2
 517              		.thumb
 518              		.thumb_func
 519              		.type	evt1_execute, %function
 520              	evt1_execute:
 521              	.LFB11:
 522              		.loc 1 96 0
 523              		.cfi_startproc
 524              		@ args = 0, pretend = 0, frame = 24
 525              		@ frame_needed = 0, uses_anonymous_args = 0
 526 0000 10B5     		push	{r4, lr}
 527              	.LCFI4:
 528              		.cfi_def_cfa_offset 8
 529              		.cfi_offset 4, -8
 530              		.cfi_offset 14, -4
 531              		.loc 1 102 0
 532 0002 1E4C     		ldr	r4, .L17
 533              		.loc 1 96 0
 534 0004 86B0     		sub	sp, sp, #24
 535              	.LCFI5:
 536              		.cfi_def_cfa_offset 32
 537              		.loc 1 103 0
 538 0006 0122     		movs	r2, #1
 539 0008 2046     		mov	r0, r4
 540 000a 6946     		mov	r1, sp
 541              		.loc 1 102 0
 542 000c 2460     		str	r4, [r4, #0]
 543              		.loc 1 103 0
 544 000e FFF7FEFF 		bl	chEvtRegisterMask
 545              	.LVL73:
 546              		.loc 1 104 0
 547 0012 2046     		mov	r0, r4
 548 0014 03A9     		add	r1, sp, #12
 549 0016 0222     		movs	r2, #2
 550 0018 FFF7FEFF 		bl	chEvtRegisterMask
 551              	.LVL74:
 552              		.loc 1 105 0
 553 001c 2168     		ldr	r1, [r4, #0]
 554 001e 0120     		movs	r0, #1
 555 0020 091B     		subs	r1, r1, r4
 556 0022 18BF     		it	ne
 557 0024 0121     		movne	r1, #1
 558 0026 FFF7FEFF 		bl	_test_assert
 559              	.LVL75:
 560 002a 08B1     		cbz	r0, .L16
 561              	.L13:
 562              		.loc 1 116 0
 563 002c 06B0     		add	sp, sp, #24
 564 002e 10BD     		pop	{r4, pc}
 565              	.L16:
 566              		.loc 1 106 0
 567 0030 2046     		mov	r0, r4
 568 0032 6946     		mov	r1, sp
 569 0034 FFF7FEFF 		bl	chEvtUnregister
 570              	.LVL76:
ARM GAS  C:\DOCUME~1\ADMINI~1\LOCALS~1\Temp\ccZ2ObXc.s 			page 11


 571              		.loc 1 107 0
 572 0038 2168     		ldr	r1, [r4, #0]
 573 003a 0220     		movs	r0, #2
 574 003c 091B     		subs	r1, r1, r4
 575 003e 18BF     		it	ne
 576 0040 0121     		movne	r1, #1
 577 0042 FFF7FEFF 		bl	_test_assert
 578              	.LVL77:
 579 0046 0028     		cmp	r0, #0
 580 0048 F0D1     		bne	.L13
 581              		.loc 1 108 0
 582 004a 2046     		mov	r0, r4
 583 004c 03A9     		add	r1, sp, #12
 584 004e FFF7FEFF 		bl	chEvtUnregister
 585              	.LVL78:
 586              		.loc 1 109 0
 587 0052 2168     		ldr	r1, [r4, #0]
 588 0054 0320     		movs	r0, #3
 589 0056 B1EB040E 		subs	lr, r1, r4
 590 005a DEF10001 		rsbs	r1, lr, #0
 591 005e 51EB0E01 		adcs	r1, r1, lr
 592 0062 FFF7FEFF 		bl	_test_assert
 593              	.LVL79:
 594 0066 0028     		cmp	r0, #0
 595 0068 E0D1     		bne	.L13
 596              		.loc 1 114 0
 597 006a 0721     		movs	r1, #7
 598 006c 0448     		ldr	r0, .L17+4
 599 006e FFF7FEFF 		bl	chEvtDispatch
 600              	.LVL80:
 601              		.loc 1 115 0
 602 0072 0420     		movs	r0, #4
 603 0074 0349     		ldr	r1, .L17+8
 604 0076 FFF7FEFF 		bl	_test_assert_sequence
 605              	.LVL81:
 606 007a D7E7     		b	.L13
 607              	.L18:
 608              		.align	2
 609              	.L17:
 610 007c 00000000 		.word	.LANCHOR0
 611 0080 00000000 		.word	.LANCHOR2
 612 0084 04000000 		.word	.LC1
 613              		.cfi_endproc
 614              	.LFE11:
 615              		.size	evt1_execute, .-evt1_execute
 616              		.section	.text.h3,"ax",%progbits
 617              		.align	2
 618              		.thumb
 619              		.thumb_func
 620              		.type	h3, %function
 621              	h3:
 622              	.LFB10:
 623              		.loc 1 93 0
 624              		.cfi_startproc
 625              		@ args = 0, pretend = 0, frame = 0
 626              		@ frame_needed = 0, uses_anonymous_args = 0
 627              		@ link register save eliminated.
ARM GAS  C:\DOCUME~1\ADMINI~1\LOCALS~1\Temp\ccZ2ObXc.s 			page 12


 628              	.LVL82:
 629              		.loc 1 93 0
 630 0000 4320     		movs	r0, #67
 631              	.LVL83:
 632 0002 FFF7FEBF 		b	test_emit_token
 633              	.LVL84:
 634              		.cfi_endproc
 635              	.LFE10:
 636              		.size	h3, .-h3
 637 0006 00BF     		.section	.text.h2,"ax",%progbits
 638              		.align	2
 639              		.thumb
 640              		.thumb_func
 641              		.type	h2, %function
 642              	h2:
 643              	.LFB9:
 644              		.loc 1 92 0
 645              		.cfi_startproc
 646              		@ args = 0, pretend = 0, frame = 0
 647              		@ frame_needed = 0, uses_anonymous_args = 0
 648              		@ link register save eliminated.
 649              	.LVL85:
 650              		.loc 1 92 0
 651 0000 4220     		movs	r0, #66
 652              	.LVL86:
 653 0002 FFF7FEBF 		b	test_emit_token
 654              	.LVL87:
 655              		.cfi_endproc
 656              	.LFE9:
 657              		.size	h2, .-h2
 658 0006 00BF     		.section	.text.h1,"ax",%progbits
 659              		.align	2
 660              		.thumb
 661              		.thumb_func
 662              		.type	h1, %function
 663              	h1:
 664              	.LFB8:
 665              		.loc 1 91 0
 666              		.cfi_startproc
 667              		@ args = 0, pretend = 0, frame = 0
 668              		@ frame_needed = 0, uses_anonymous_args = 0
 669              		@ link register save eliminated.
 670              	.LVL88:
 671              		.loc 1 91 0
 672 0000 4120     		movs	r0, #65
 673              	.LVL89:
 674 0002 FFF7FEBF 		b	test_emit_token
 675              	.LVL90:
 676              		.cfi_endproc
 677              	.LFE8:
 678              		.size	h1, .-h1
 679 0006 00BF     		.section	.text.evt3_execute,"ax",%progbits
 680              		.align	2
 681              		.thumb
 682              		.thumb_func
 683              		.type	evt3_execute, %function
 684              	evt3_execute:
ARM GAS  C:\DOCUME~1\ADMINI~1\LOCALS~1\Temp\ccZ2ObXc.s 			page 13


 685              	.LFB17:
 686              		.loc 1 263 0
 687              		.cfi_startproc
 688              		@ args = 0, pretend = 0, frame = 0
 689              		@ frame_needed = 0, uses_anonymous_args = 0
 690 0000 08B5     		push	{r3, lr}
 691              	.LCFI6:
 692              		.cfi_def_cfa_offset 8
 693              		.cfi_offset 3, -8
 694              		.cfi_offset 14, -4
 695              		.loc 1 269 0
 696 0002 0021     		movs	r1, #0
 697 0004 4FF0FF30 		mov	r0, #-1
 698 0008 FFF7FEFF 		bl	chEvtWaitOneTimeout
 699              	.LVL91:
 700              		.loc 1 270 0
 701 000c D0F10101 		rsbs	r1, r0, #1
 702 0010 38BF     		it	cc
 703 0012 0021     		movcc	r1, #0
 704 0014 0120     		movs	r0, #1
 705              	.LVL92:
 706 0016 FFF7FEFF 		bl	_test_assert
 707              	.LVL93:
 708 001a 00B1     		cbz	r0, .L26
 709              	.L22:
 710 001c 08BD     		pop	{r3, pc}
 711              	.L26:
 712              		.loc 1 271 0
 713 001e 0146     		mov	r1, r0
 714 0020 4FF0FF30 		mov	r0, #-1
 715 0024 FFF7FEFF 		bl	chEvtWaitAnyTimeout
 716              	.LVL94:
 717              		.loc 1 272 0
 718 0028 D0F10101 		rsbs	r1, r0, #1
 719 002c 38BF     		it	cc
 720 002e 0021     		movcc	r1, #0
 721 0030 0220     		movs	r0, #2
 722              	.LVL95:
 723 0032 FFF7FEFF 		bl	_test_assert
 724              	.LVL96:
 725 0036 0028     		cmp	r0, #0
 726 0038 F0D1     		bne	.L22
 727              		.loc 1 273 0
 728 003a 0146     		mov	r1, r0
 729 003c 4FF0FF30 		mov	r0, #-1
 730 0040 FFF7FEFF 		bl	chEvtWaitAllTimeout
 731              	.LVL97:
 732              		.loc 1 274 0
 733 0044 D0F10101 		rsbs	r1, r0, #1
 734 0048 38BF     		it	cc
 735 004a 0021     		movcc	r1, #0
 736 004c 0320     		movs	r0, #3
 737              	.LVL98:
 738 004e FFF7FEFF 		bl	_test_assert
 739              	.LVL99:
 740 0052 0028     		cmp	r0, #0
 741 0054 E2D1     		bne	.L22
ARM GAS  C:\DOCUME~1\ADMINI~1\LOCALS~1\Temp\ccZ2ObXc.s 			page 14


 742              	.LBB4:
 743              	.LBB5:
 744              		.loc 1 275 0
 745 0056 0A21     		movs	r1, #10
 746 0058 4FF0FF30 		mov	r0, #-1
 747 005c FFF7FEFF 		bl	chEvtWaitOneTimeout
 748              	.LVL100:
 749              		.loc 1 276 0
 750 0060 D0F10101 		rsbs	r1, r0, #1
 751 0064 38BF     		it	cc
 752 0066 0021     		movcc	r1, #0
 753 0068 0420     		movs	r0, #4
 754              	.LVL101:
 755 006a FFF7FEFF 		bl	_test_assert
 756              	.LVL102:
 757 006e 0028     		cmp	r0, #0
 758 0070 D4D1     		bne	.L22
 759              		.loc 1 277 0
 760 0072 0A21     		movs	r1, #10
 761 0074 4FF0FF30 		mov	r0, #-1
 762 0078 FFF7FEFF 		bl	chEvtWaitAnyTimeout
 763              	.LVL103:
 764              		.loc 1 278 0
 765 007c D0F10101 		rsbs	r1, r0, #1
 766 0080 38BF     		it	cc
 767 0082 0021     		movcc	r1, #0
 768 0084 0520     		movs	r0, #5
 769              	.LVL104:
 770 0086 FFF7FEFF 		bl	_test_assert
 771              	.LVL105:
 772 008a 0028     		cmp	r0, #0
 773 008c C6D1     		bne	.L22
 774              		.loc 1 279 0
 775 008e 0A21     		movs	r1, #10
 776 0090 4FF0FF30 		mov	r0, #-1
 777 0094 FFF7FEFF 		bl	chEvtWaitAllTimeout
 778              	.LVL106:
 779              		.loc 1 280 0
 780 0098 D0F10101 		rsbs	r1, r0, #1
 781 009c 38BF     		it	cc
 782 009e 0021     		movcc	r1, #0
 783 00a0 0620     		movs	r0, #6
 784              	.LVL107:
 785              	.LBE5:
 786              	.LBE4:
 787              		.loc 1 281 0
 788 00a2 BDE80840 		pop	{r3, lr}
 789              	.LBB7:
 790              	.LBB6:
 791              		.loc 1 280 0
 792 00a6 FFF7FEBF 		b	_test_assert
 793              	.LVL108:
 794              	.LBE6:
 795              	.LBE7:
 796              		.cfi_endproc
 797              	.LFE17:
 798              		.size	evt3_execute, .-evt3_execute
ARM GAS  C:\DOCUME~1\ADMINI~1\LOCALS~1\Temp\ccZ2ObXc.s 			page 15


 799              		.global	patternevt
 800              		.global	testevt3
 801              		.global	testevt2
 802              		.global	testevt1
 803 00aa 00BF     		.section	.rodata.patternevt,"a",%progbits
 804              		.align	2
 805              		.type	patternevt, %object
 806              		.size	patternevt, 16
 807              	patternevt:
 808 0000 00000000 		.word	testevt1
 809 0004 00000000 		.word	testevt2
 810 0008 00000000 		.word	testevt3
 811 000c 00000000 		.word	0
 812              		.section	.rodata.testevt2,"a",%progbits
 813              		.align	2
 814              		.type	testevt2, %object
 815              		.size	testevt2, 16
 816              	testevt2:
 817 0000 1C000000 		.word	.LC3
 818 0004 00000000 		.word	evt2_setup
 819 0008 00000000 		.word	0
 820 000c 00000000 		.word	evt2_execute
 821              		.section	.rodata.str1.4,"aMS",%progbits,1
 822              		.align	2
 823              	.LC0:
 824 0000 4100     		.ascii	"A\000"
 825 0002 0000     		.space	2
 826              	.LC1:
 827 0004 41424300 		.ascii	"ABC\000"
 828              	.LC2:
 829 0008 4576656E 		.ascii	"Events, timeouts\000"
 829      74732C20 
 829      74696D65 
 829      6F757473 
 829      00
 830 0019 000000   		.space	3
 831              	.LC3:
 832 001c 4576656E 		.ascii	"Events, wait and broadcast\000"
 832      74732C20 
 832      77616974 
 832      20616E64 
 832      2062726F 
 833 0037 00       		.space	1
 834              	.LC4:
 835 0038 4576656E 		.ascii	"Events, registration and dispatch\000"
 835      74732C20 
 835      72656769 
 835      73747261 
 835      74696F6E 
 836 005a 0000     		.section	.rodata.testevt1,"a",%progbits
 837              		.align	2
 838              		.type	testevt1, %object
 839              		.size	testevt1, 16
 840              	testevt1:
 841 0000 38000000 		.word	.LC4
 842 0004 00000000 		.word	evt1_setup
 843 0008 00000000 		.word	0
ARM GAS  C:\DOCUME~1\ADMINI~1\LOCALS~1\Temp\ccZ2ObXc.s 			page 16


 844 000c 00000000 		.word	evt1_execute
 845              		.section	.rodata.evhndl,"a",%progbits
 846              		.align	2
 847              		.set	.LANCHOR2,. + 0
 848              		.type	evhndl, %object
 849              		.size	evhndl, 12
 850              	evhndl:
 851 0000 00000000 		.word	h1
 852 0004 00000000 		.word	h2
 853 0008 00000000 		.word	h3
 854              		.section	.rodata.testevt3,"a",%progbits
 855              		.align	2
 856              		.type	testevt3, %object
 857              		.size	testevt3, 16
 858              	testevt3:
 859 0000 08000000 		.word	.LC2
 860 0004 00000000 		.word	evt3_setup
 861 0008 00000000 		.word	0
 862 000c 00000000 		.word	evt3_execute
 863              		.section	.data.es1,"aw",%progbits
 864              		.align	2
 865              		.set	.LANCHOR0,. + 0
 866              		.type	es1, %object
 867              		.size	es1, 4
 868              	es1:
 869 0000 00000000 		.word	es1
 870              		.section	.data.es2,"aw",%progbits
 871              		.align	2
 872              		.set	.LANCHOR1,. + 0
 873              		.type	es2, %object
 874              		.size	es2, 4
 875              	es2:
 876 0000 00000000 		.word	es2
 877              		.text
 878              	.Letext0:
 879              		.file 2 "c:\\program files\\yagarto\\bin\\../lib/gcc/arm-none-eabi/4.7.1/include/stddef.h"
 880              		.file 3 "c:/program files/yagarto/lib/gcc/../../arm-none-eabi/sys-include/stdint.h"
 881              		.file 4 "../../os/ports/GCC/ARMCMx/chtypes.h"
 882              		.file 5 "../../os/kernel/include/chlists.h"
 883              		.file 6 "../../os/kernel/include/chthreads.h"
 884              		.file 7 "../../os/ports/GCC/ARMCMx/chcore_v7m.h"
 885              		.file 8 "../../os/kernel/include/chvt.h"
 886              		.file 9 "../../os/kernel/include/chschd.h"
 887              		.file 10 "../../os/kernel/include/chmtx.h"
 888              		.file 11 "../../os/kernel/include/chevents.h"
 889              		.file 12 "../../test/test.h"