ARM GAS  C:\DOCUME~1\ADMINI~1\LOCALS~1\Temp\ccKamrue.s 			page 1


   1              		.syntax unified
   2              		.cpu cortex-m3
   3              		.fpu softvfp
   4              		.eabi_attribute 20, 1
   5              		.eabi_attribute 21, 1
   6              		.eabi_attribute 23, 3
   7              		.eabi_attribute 24, 1
   8              		.eabi_attribute 25, 1
   9              		.eabi_attribute 26, 1
  10              		.eabi_attribute 30, 2
  11              		.eabi_attribute 34, 1
  12              		.eabi_attribute 18, 4
  13              		.thumb
  14              		.file	"tm.c"
  15              		.text
  16              	.Ltext0:
  17              		.cfi_sections	.debug_frame
  18              		.section	.text.tm_start,"ax",%progbits
  19              		.align	2
  20              		.thumb
  21              		.thumb_func
  22              		.type	tm_start, %function
  23              	tm_start:
  24              	.LFB62:
  25              		.file 1 "../../os/hal/src/tm.c"
  26              		.loc 1 69 0
  27              		.cfi_startproc
  28              		@ args = 0, pretend = 0, frame = 0
  29              		@ frame_needed = 0, uses_anonymous_args = 0
  30              		@ link register save eliminated.
  31              	.LVL0:
  32              		.loc 1 71 0
  33 0000 4FF48053 		mov	r3, #4096
  34 0004 CEF20003 		movt	r3, 57344
  35 0008 5B68     		ldr	r3, [r3, #4]
  36 000a 8360     		str	r3, [r0, #8]
  37 000c 7047     		bx	lr
  38              		.cfi_endproc
  39              	.LFE62:
  40              		.size	tm_start, .-tm_start
  41 000e 00BF     		.section	.text.tm_stop,"ax",%progbits
  42              		.align	2
  43              		.thumb
  44              		.thumb_func
  45              		.type	tm_stop, %function
  46              	tm_stop:
  47              	.LFB63:
  48              		.loc 1 81 0
  49              		.cfi_startproc
  50              		@ args = 0, pretend = 0, frame = 0
  51              		@ frame_needed = 0, uses_anonymous_args = 0
  52              		@ link register save eliminated.
  53              	.LVL1:
  54              		.loc 1 83 0
  55 0000 4FF48053 		mov	r3, #4096
  56 0004 CEF20003 		movt	r3, 57344
  57              		.loc 1 84 0
ARM GAS  C:\DOCUME~1\ADMINI~1\LOCALS~1\Temp\ccKamrue.s 			page 2


  58 0008 0849     		ldr	r1, .L7
  59 000a 8268     		ldr	r2, [r0, #8]
  60              		.loc 1 83 0
  61 000c 5B68     		ldr	r3, [r3, #4]
  62              	.LVL2:
  63              		.loc 1 84 0
  64 000e 0968     		ldr	r1, [r1, #0]
  65 0010 9B1A     		subs	r3, r3, r2
  66              	.LVL3:
  67              		.loc 1 85 0
  68 0012 C268     		ldr	r2, [r0, #12]
  69              		.loc 1 84 0
  70 0014 5B1A     		subs	r3, r3, r1
  71              		.loc 1 85 0
  72 0016 9342     		cmp	r3, r2
  73              		.loc 1 84 0
  74 0018 8360     		str	r3, [r0, #8]
  75              		.loc 1 85 0
  76 001a 04D8     		bhi	.L6
  77              		.loc 1 87 0
  78 001c 0269     		ldr	r2, [r0, #16]
  79 001e 9342     		cmp	r3, r2
  80              		.loc 1 88 0
  81 0020 38BF     		it	cc
  82 0022 0361     		strcc	r3, [r0, #16]
  83 0024 7047     		bx	lr
  84              	.L6:
  85              		.loc 1 86 0
  86 0026 C360     		str	r3, [r0, #12]
  87 0028 7047     		bx	lr
  88              	.L8:
  89 002a 00BF     		.align	2
  90              	.L7:
  91 002c 00000000 		.word	.LANCHOR0
  92              		.cfi_endproc
  93              	.LFE63:
  94              		.size	tm_stop, .-tm_stop
  95              		.section	.text.tmInit,"ax",%progbits
  96              		.align	2
  97              		.global	tmInit
  98              		.thumb
  99              		.thumb_func
 100              		.type	tmInit, %function
 101              	tmInit:
 102              	.LFB64:
 103              		.loc 1 104 0
 104              		.cfi_startproc
 105              		@ args = 0, pretend = 0, frame = 24
 106              		@ frame_needed = 0, uses_anonymous_args = 0
 107 0000 10B5     		push	{r4, lr}
 108              	.LCFI0:
 109              		.cfi_def_cfa_offset 8
 110              		.cfi_offset 4, -8
 111              		.cfi_offset 14, -4
 112              		.loc 1 110 0
 113 0002 40F20004 		movw	r4, #:lower16:.LANCHOR0
 114              		.loc 1 104 0
ARM GAS  C:\DOCUME~1\ADMINI~1\LOCALS~1\Temp\ccKamrue.s 			page 3


 115 0006 86B0     		sub	sp, sp, #24
 116              	.LCFI1:
 117              		.cfi_def_cfa_offset 32
 118              		.loc 1 110 0
 119 0008 0022     		movs	r2, #0
 120 000a C0F20004 		movt	r4, #:upper16:.LANCHOR0
 121 000e 2260     		str	r2, [r4, #0]
 122              	.LVL4:
 123              	.LBB8:
 124              	.LBB9:
 125              		.loc 1 129 0
 126 0010 0492     		str	r2, [sp, #16]
 127              		.loc 1 130 0
 128 0012 4FF0FF32 		mov	r2, #-1
 129 0016 0592     		str	r2, [sp, #20]
 130              	.LVL5:
 131              	.LBE9:
 132              	.LBE8:
 133              	.LBB13:
 134              	.LBB14:
 135              		.loc 1 71 0
 136 0018 4FF48053 		mov	r3, #4096
 137              	.LBE14:
 138              	.LBE13:
 139              	.LBB17:
 140              	.LBB10:
 141              		.loc 1 126 0
 142 001c 40F20002 		movw	r2, #:lower16:tm_start
 143 0020 C0F20002 		movt	r2, #:upper16:tm_start
 144              	.LBE10:
 145              	.LBE17:
 146              	.LBB18:
 147              	.LBB15:
 148              		.loc 1 71 0
 149 0024 CEF20003 		movt	r3, 57344
 150 0028 5B68     		ldr	r3, [r3, #4]
 151              	.LBE15:
 152              	.LBE18:
 153              	.LBB19:
 154              	.LBB11:
 155              		.loc 1 126 0
 156 002a 0192     		str	r2, [sp, #4]
 157              		.loc 1 127 0
 158 002c 40F20002 		movw	r2, #:lower16:tm_stop
 159 0030 C0F20002 		movt	r2, #:upper16:tm_stop
 160              	.LBE11:
 161              	.LBE19:
 162              		.loc 1 113 0
 163 0034 01A8     		add	r0, sp, #4
 164              	.LVL6:
 165              	.LBB20:
 166              	.LBB16:
 167              		.loc 1 71 0
 168 0036 0393     		str	r3, [sp, #12]
 169              	.LBE16:
 170              	.LBE20:
 171              	.LBB21:
ARM GAS  C:\DOCUME~1\ADMINI~1\LOCALS~1\Temp\ccKamrue.s 			page 4


 172              	.LBB12:
 173              		.loc 1 127 0
 174 0038 0292     		str	r2, [sp, #8]
 175              	.LBE12:
 176              	.LBE21:
 177              		.loc 1 113 0
 178 003a FFF7FEFF 		bl	tm_stop
 179              	.LVL7:
 180              		.loc 1 114 0
 181 003e 039B     		ldr	r3, [sp, #12]
 182 0040 2360     		str	r3, [r4, #0]
 183              		.loc 1 115 0
 184 0042 06B0     		add	sp, sp, #24
 185 0044 10BD     		pop	{r4, pc}
 186              		.cfi_endproc
 187              	.LFE64:
 188              		.size	tmInit, .-tmInit
 189 0046 00BF     		.section	.text.tmObjectInit,"ax",%progbits
 190              		.align	2
 191              		.global	tmObjectInit
 192              		.thumb
 193              		.thumb_func
 194              		.type	tmObjectInit, %function
 195              	tmObjectInit:
 196              	.LFB65:
 197              		.loc 1 124 0
 198              		.cfi_startproc
 199              		@ args = 0, pretend = 0, frame = 0
 200              		@ frame_needed = 0, uses_anonymous_args = 0
 201              		@ link register save eliminated.
 202              	.LVL8:
 203              		.loc 1 126 0
 204 0000 40F20002 		movw	r2, #:lower16:tm_start
 205 0004 C0F20002 		movt	r2, #:upper16:tm_start
 206              		.loc 1 128 0
 207 0008 0023     		movs	r3, #0
 208              		.loc 1 126 0
 209 000a 0260     		str	r2, [r0, #0]
 210              		.loc 1 127 0
 211 000c 40F20002 		movw	r2, #:lower16:tm_stop
 212 0010 C0F20002 		movt	r2, #:upper16:tm_stop
 213              		.loc 1 128 0
 214 0014 8360     		str	r3, [r0, #8]
 215              		.loc 1 129 0
 216 0016 C360     		str	r3, [r0, #12]
 217              		.loc 1 130 0
 218 0018 4FF0FF33 		mov	r3, #-1
 219              		.loc 1 127 0
 220 001c 4260     		str	r2, [r0, #4]
 221              		.loc 1 130 0
 222 001e 0361     		str	r3, [r0, #16]
 223 0020 7047     		bx	lr
 224              		.cfi_endproc
 225              	.LFE65:
 226              		.size	tmObjectInit, .-tmObjectInit
 227 0022 00BF     		.section	.bss.measurement_offset,"aw",%nobits
 228              		.align	2
ARM GAS  C:\DOCUME~1\ADMINI~1\LOCALS~1\Temp\ccKamrue.s 			page 5


 229              		.set	.LANCHOR0,. + 0
 230              		.type	measurement_offset, %object
 231              		.size	measurement_offset, 4
 232              	measurement_offset:
 233 0000 00000000 		.space	4
 234              		.text
 235              	.Letext0:
 236              		.file 2 "c:/program files/yagarto/lib/gcc/../../arm-none-eabi/sys-include/stdint.h"
 237              		.file 3 "../../os/ports/common/ARMCMx/nvic.h"
 238              		.file 4 "../../os/hal/platforms/STM32L1xx/hal_lld.h"
 239              		.file 5 "../../os/hal/include/tm.h"
 240              		.file 6 "../../os/ports/common/ARMCMx/CMSIS/include/core_cm3.h"