ARM GAS  C:\DOCUME~1\ADMINI~1\LOCALS~1\Temp\cc4Uox7I.s 			page 1


   1              		.syntax unified
   2              		.cpu cortex-m3
   3              		.fpu softvfp
   4              		.eabi_attribute 20, 1
   5              		.eabi_attribute 21, 1
   6              		.eabi_attribute 23, 3
   7              		.eabi_attribute 24, 1
   8              		.eabi_attribute 25, 1
   9              		.eabi_attribute 26, 1
  10              		.eabi_attribute 30, 2
  11              		.eabi_attribute 34, 1
  12              		.eabi_attribute 18, 4
  13              		.thumb
  14              		.file	"chmempools.c"
  15              		.text
  16              	.Ltext0:
  17              		.cfi_sections	.debug_frame
  18              		.section	.text.chPoolInit,"ax",%progbits
  19              		.align	2
  20              		.global	chPoolInit
  21              		.thumb
  22              		.thumb_func
  23              		.type	chPoolInit, %function
  24              	chPoolInit:
  25              	.LFB7:
  26              		.file 1 "../../os/kernel/src/chmempools.c"
  27              		.loc 1 61 0
  28              		.cfi_startproc
  29              		@ args = 0, pretend = 0, frame = 0
  30              		@ frame_needed = 0, uses_anonymous_args = 0
  31              		@ link register save eliminated.
  32              	.LVL0:
  33              		.loc 1 66 0
  34 0000 0731     		adds	r1, r1, #7
  35              	.LVL1:
  36 0002 21F00701 		bic	r1, r1, #7
  37              	.LVL2:
  38              		.loc 1 65 0
  39 0006 0023     		movs	r3, #0
  40 0008 0360     		str	r3, [r0, #0]
  41              		.loc 1 66 0
  42 000a 4160     		str	r1, [r0, #4]
  43              		.loc 1 67 0
  44 000c 8260     		str	r2, [r0, #8]
  45 000e 7047     		bx	lr
  46              		.cfi_endproc
  47              	.LFE7:
  48              		.size	chPoolInit, .-chPoolInit
  49              		.section	.text.chPoolAllocI,"ax",%progbits
  50              		.align	2
  51              		.global	chPoolAllocI
  52              		.thumb
  53              		.thumb_func
  54              		.type	chPoolAllocI, %function
  55              	chPoolAllocI:
  56              	.LFB8:
  57              		.loc 1 79 0
ARM GAS  C:\DOCUME~1\ADMINI~1\LOCALS~1\Temp\cc4Uox7I.s 			page 2


  58              		.cfi_startproc
  59              		@ args = 0, pretend = 0, frame = 0
  60              		@ frame_needed = 0, uses_anonymous_args = 0
  61              	.LVL3:
  62 0000 08B5     		push	{r3, lr}
  63              	.LCFI0:
  64              		.cfi_def_cfa_offset 8
  65              		.cfi_offset 3, -8
  66              		.cfi_offset 14, -4
  67              		.loc 1 79 0
  68 0002 0346     		mov	r3, r0
  69              		.loc 1 85 0
  70 0004 0068     		ldr	r0, [r0, #0]
  71              	.LVL4:
  72 0006 10B1     		cbz	r0, .L3
  73              		.loc 1 86 0
  74 0008 0268     		ldr	r2, [r0, #0]
  75 000a 1A60     		str	r2, [r3, #0]
  76 000c 08BD     		pop	{r3, pc}
  77              	.L3:
  78              		.loc 1 87 0
  79 000e 9A68     		ldr	r2, [r3, #8]
  80 0010 0AB1     		cbz	r2, .L4
  81              		.loc 1 88 0
  82 0012 5868     		ldr	r0, [r3, #4]
  83              	.LVL5:
  84 0014 9047     		blx	r2
  85              	.LVL6:
  86              	.L4:
  87              		.loc 1 90 0
  88 0016 08BD     		pop	{r3, pc}
  89              		.cfi_endproc
  90              	.LFE8:
  91              		.size	chPoolAllocI, .-chPoolAllocI
  92              		.section	.text.chPoolAlloc,"ax",%progbits
  93              		.align	2
  94              		.global	chPoolAlloc
  95              		.thumb
  96              		.thumb_func
  97              		.type	chPoolAlloc, %function
  98              	chPoolAlloc:
  99              	.LFB9:
 100              		.loc 1 101 0
 101              		.cfi_startproc
 102              		@ args = 0, pretend = 0, frame = 0
 103              		@ frame_needed = 0, uses_anonymous_args = 0
 104              	.LVL7:
 105 0000 08B5     		push	{r3, lr}
 106              	.LCFI1:
 107              		.cfi_def_cfa_offset 8
 108              		.cfi_offset 3, -8
 109              		.cfi_offset 14, -4
 110              		.loc 1 101 0
 111 0002 0246     		mov	r2, r0
 112              	.LBB10:
 113              		.loc 1 104 0
 114 0004 2023     		movs	r3, #32
ARM GAS  C:\DOCUME~1\ADMINI~1\LOCALS~1\Temp\cc4Uox7I.s 			page 3


 115              	.LVL8:
 116              	@ 104 "../../os/kernel/src/chmempools.c" 1
 117 0006 83F31188 		msr     BASEPRI, r3
 118              	@ 0 "" 2
 119              	.LVL9:
 120              		.thumb
 121              	.LBE10:
 122              	.LBB11:
 123              	.LBB12:
 124              		.loc 1 85 0
 125 000a 0068     		ldr	r0, [r0, #0]
 126              	.LVL10:
 127 000c 28B1     		cbz	r0, .L10
 128              		.loc 1 86 0
 129 000e 0368     		ldr	r3, [r0, #0]
 130              	.LVL11:
 131 0010 1360     		str	r3, [r2, #0]
 132              	.LVL12:
 133              	.L11:
 134              	.LBE12:
 135              	.LBE11:
 136              	.LBB14:
 137              		.loc 1 106 0
 138 0012 0023     		movs	r3, #0
 139              	.LVL13:
 140              	@ 106 "../../os/kernel/src/chmempools.c" 1
 141 0014 83F31188 		msr     BASEPRI, r3
 142              	@ 0 "" 2
 143              	.LVL14:
 144              		.thumb
 145              	.LBE14:
 146              		.loc 1 108 0
 147 0018 08BD     		pop	{r3, pc}
 148              	.LVL15:
 149              	.L10:
 150              	.LBB15:
 151              	.LBB13:
 152              		.loc 1 87 0
 153 001a 9368     		ldr	r3, [r2, #8]
 154              	.LVL16:
 155 001c 002B     		cmp	r3, #0
 156 001e F8D0     		beq	.L11
 157              		.loc 1 88 0
 158 0020 5068     		ldr	r0, [r2, #4]
 159              	.LVL17:
 160 0022 9847     		blx	r3
 161              	.LVL18:
 162 0024 F5E7     		b	.L11
 163              	.LBE13:
 164              	.LBE15:
 165              		.cfi_endproc
 166              	.LFE9:
 167              		.size	chPoolAlloc, .-chPoolAlloc
 168 0026 00BF     		.section	.text.chPoolFreeI,"ax",%progbits
 169              		.align	2
 170              		.global	chPoolFreeI
 171              		.thumb
ARM GAS  C:\DOCUME~1\ADMINI~1\LOCALS~1\Temp\cc4Uox7I.s 			page 4


 172              		.thumb_func
 173              		.type	chPoolFreeI, %function
 174              	chPoolFreeI:
 175              	.LFB10:
 176              		.loc 1 122 0
 177              		.cfi_startproc
 178              		@ args = 0, pretend = 0, frame = 0
 179              		@ frame_needed = 0, uses_anonymous_args = 0
 180              		@ link register save eliminated.
 181              	.LVL19:
 182              		.loc 1 129 0
 183 0000 0368     		ldr	r3, [r0, #0]
 184              	.LVL20:
 185 0002 0B60     		str	r3, [r1, #0]
 186              		.loc 1 130 0
 187 0004 0160     		str	r1, [r0, #0]
 188 0006 7047     		bx	lr
 189              		.cfi_endproc
 190              	.LFE10:
 191              		.size	chPoolFreeI, .-chPoolFreeI
 192              		.section	.text.chPoolFree,"ax",%progbits
 193              		.align	2
 194              		.global	chPoolFree
 195              		.thumb
 196              		.thumb_func
 197              		.type	chPoolFree, %function
 198              	chPoolFree:
 199              	.LFB11:
 200              		.loc 1 145 0
 201              		.cfi_startproc
 202              		@ args = 0, pretend = 0, frame = 0
 203              		@ frame_needed = 0, uses_anonymous_args = 0
 204              		@ link register save eliminated.
 205              	.LVL21:
 206              	.LBB16:
 207              		.loc 1 147 0
 208 0000 2023     		movs	r3, #32
 209              	.LVL22:
 210              	@ 147 "../../os/kernel/src/chmempools.c" 1
 211 0002 83F31188 		msr     BASEPRI, r3
 212              	@ 0 "" 2
 213              	.LVL23:
 214              		.thumb
 215              	.LBE16:
 216              	.LBB17:
 217              	.LBB18:
 218              		.loc 1 129 0
 219 0006 0268     		ldr	r2, [r0, #0]
 220              	.LBE18:
 221              	.LBE17:
 222              	.LBB20:
 223              		.loc 1 149 0
 224 0008 0023     		movs	r3, #0
 225              	.LVL24:
 226              	.LBE20:
 227              	.LBB21:
 228              	.LBB19:
ARM GAS  C:\DOCUME~1\ADMINI~1\LOCALS~1\Temp\cc4Uox7I.s 			page 5


 229              		.loc 1 129 0
 230 000a 0A60     		str	r2, [r1, #0]
 231              		.loc 1 130 0
 232 000c 0160     		str	r1, [r0, #0]
 233              	.LBE19:
 234              	.LBE21:
 235              	.LBB22:
 236              		.loc 1 149 0
 237              	@ 149 "../../os/kernel/src/chmempools.c" 1
 238 000e 83F31188 		msr     BASEPRI, r3
 239              	@ 0 "" 2
 240              	.LVL25:
 241              		.thumb
 242 0012 7047     		bx	lr
 243              	.LBE22:
 244              		.cfi_endproc
 245              	.LFE11:
 246              		.size	chPoolFree, .-chPoolFree
 247              		.text
 248              	.Letext0:
 249              		.file 2 "c:\\program files\\yagarto\\bin\\../lib/gcc/arm-none-eabi/4.7.1/include/stddef.h"
 250              		.file 3 "c:/program files/yagarto/lib/gcc/../../arm-none-eabi/sys-include/stdint.h"
 251              		.file 4 "../../os/kernel/include/chmemcore.h"
 252              		.file 5 "../../os/kernel/include/chmempools.h"