ARM GAS  C:\DOCUME~1\ADMINI~1\LOCALS~1\Temp\ccDTPuTH.s 			page 1


   1              		.syntax unified
   2              		.cpu cortex-m3
   3              		.fpu softvfp
   4              		.eabi_attribute 20, 1
   5              		.eabi_attribute 21, 1
   6              		.eabi_attribute 23, 3
   7              		.eabi_attribute 24, 1
   8              		.eabi_attribute 25, 1
   9              		.eabi_attribute 26, 1
  10              		.eabi_attribute 30, 2
  11              		.eabi_attribute 34, 1
  12              		.eabi_attribute 18, 4
  13              		.thumb
  14              		.file	"main.c"
  15              		.text
  16              	.Ltext0:
  17              		.cfi_sections	.debug_frame
  18              		.section	.text.Thread1,"ax",%progbits
  19              		.align	2
  20              		.thumb
  21              		.thumb_func
  22              		.type	Thread1, %function
  23              	Thread1:
  24              	.LFB65:
  25              		.file 1 "main.c"
  26              		.loc 1 167 0
  27              		.cfi_startproc
  28              		@ args = 0, pretend = 0, frame = 0
  29              		@ frame_needed = 0, uses_anonymous_args = 0
  30              	.LVL0:
  31              		.loc 1 171 0
  32 0000 064B     		ldr	r3, .L4
  33 0002 074A     		ldr	r2, .L4+4
  34 0004 DB69     		ldr	r3, [r3, #28]
  35              		.loc 1 167 0
  36 0006 10B5     		push	{r4, lr}
  37              	.LCFI0:
  38              		.cfi_def_cfa_offset 8
  39              		.cfi_offset 4, -8
  40              		.cfi_offset 14, -4
  41 0008 064C     		ldr	r4, .L4+8
  42              		.loc 1 171 0
  43 000a 9A61     		str	r2, [r3, #24]
  44              	.LVL1:
  45              	.L2:
  46              		.loc 1 173 0 discriminator 1
  47 000c 4FF47A70 		mov	r0, #1000
  48 0010 FFF7FEFF 		bl	chThdSleep
  49              	.LVL2:
  50              		.loc 1 174 0 discriminator 1
  51 0014 2368     		ldr	r3, [r4, #0]
  52 0016 0133     		adds	r3, r3, #1
  53 0018 2360     		str	r3, [r4, #0]
  54 001a F7E7     		b	.L2
  55              	.L5:
  56              		.align	2
  57              	.L4:
ARM GAS  C:\DOCUME~1\ADMINI~1\LOCALS~1\Temp\ccDTPuTH.s 			page 2


  58 001c 00000000 		.word	rlist
  59 0020 00000000 		.word	.LC0
  60 0024 00000000 		.word	.LANCHOR0
  61              		.cfi_endproc
  62              	.LFE65:
  63              		.size	Thread1, .-Thread1
  64              		.section	.text.pwmpcb,"ax",%progbits
  65              		.align	2
  66              		.thumb
  67              		.thumb_func
  68              		.type	pwmpcb, %function
  69              	pwmpcb:
  70              	.LFB62:
  71              		.loc 1 107 0
  72              		.cfi_startproc
  73              		@ args = 0, pretend = 0, frame = 0
  74              		@ frame_needed = 0, uses_anonymous_args = 0
  75              	.LVL3:
  76 0000 08B5     		push	{r3, lr}
  77              	.LCFI1:
  78              		.cfi_def_cfa_offset 8
  79              		.cfi_offset 3, -8
  80              		.cfi_offset 14, -4
  81              	.LBB5:
  82              		.loc 1 114 0
  83 0002 2023     		movs	r3, #32
  84              	.LVL4:
  85              	@ 114 "main.c" 1
  86 0004 83F31188 		msr     BASEPRI, r3
  87              	@ 0 "" 2
  88              	.LVL5:
  89              		.thumb
  90              	.LBE5:
  91              		.loc 1 115 0
  92 0008 40F20000 		movw	r0, #:lower16:ADCD1
  93              	.LVL6:
  94 000c 40F20001 		movw	r1, #:lower16:.LANCHOR1
  95 0010 40F20002 		movw	r2, #:lower16:.LANCHOR2
  96 0014 0423     		movs	r3, #4
  97              	.LVL7:
  98 0016 C0F20000 		movt	r0, #:upper16:ADCD1
  99 001a C0F20001 		movt	r1, #:upper16:.LANCHOR1
 100 001e C0F20002 		movt	r2, #:upper16:.LANCHOR2
 101 0022 FFF7FEFF 		bl	adcStartConversionI
 102              	.LVL8:
 103              	.LBB6:
 104              		.loc 1 116 0
 105 0026 0023     		movs	r3, #0
 106              	.LVL9:
 107              	@ 116 "main.c" 1
 108 0028 83F31188 		msr     BASEPRI, r3
 109              	@ 0 "" 2
 110              	.LVL10:
 111              		.thumb
 112 002c 08BD     		pop	{r3, pc}
 113              	.LBE6:
 114              		.cfi_endproc
ARM GAS  C:\DOCUME~1\ADMINI~1\LOCALS~1\Temp\ccDTPuTH.s 			page 3


 115              	.LFE62:
 116              		.size	pwmpcb, .-pwmpcb
 117 002e 00BF     		.section	.text.spicb,"ax",%progbits
 118              		.align	2
 119              		.thumb
 120              		.thumb_func
 121              		.type	spicb, %function
 122              	spicb:
 123              	.LFB64:
 124              		.loc 1 154 0
 125              		.cfi_startproc
 126              		@ args = 0, pretend = 0, frame = 0
 127              		@ frame_needed = 0, uses_anonymous_args = 0
 128              	.LVL11:
 129 0000 08B5     		push	{r3, lr}
 130              	.LCFI2:
 131              		.cfi_def_cfa_offset 8
 132              		.cfi_offset 3, -8
 133              		.cfi_offset 14, -4
 134              	.LBB7:
 135              		.loc 1 157 0
 136 0002 2023     		movs	r3, #32
 137              	.LVL12:
 138              	@ 157 "main.c" 1
 139 0004 83F31188 		msr     BASEPRI, r3
 140              	@ 0 "" 2
 141              	.LVL13:
 142              		.thumb
 143              	.LBE7:
 144              		.loc 1 158 0
 145 0008 FFF7FEFF 		bl	spi_lld_unselect
 146              	.LVL14:
 147              	.LBB8:
 148              		.loc 1 159 0
 149 000c 0023     		movs	r3, #0
 150              	.LVL15:
 151              	@ 159 "main.c" 1
 152 000e 83F31188 		msr     BASEPRI, r3
 153              	@ 0 "" 2
 154              	.LVL16:
 155              		.thumb
 156 0012 08BD     		pop	{r3, pc}
 157              	.LBE8:
 158              		.cfi_endproc
 159              	.LFE64:
 160              		.size	spicb, .-spicb
 161              		.section	.text.adccb,"ax",%progbits
 162              		.align	2
 163              		.thumb
 164              		.thumb_func
 165              		.type	adccb, %function
 166              	adccb:
 167              	.LFB63:
 168              		.loc 1 124 0
 169              		.cfi_startproc
 170              		@ args = 0, pretend = 0, frame = 0
 171              		@ frame_needed = 0, uses_anonymous_args = 0
ARM GAS  C:\DOCUME~1\ADMINI~1\LOCALS~1\Temp\ccDTPuTH.s 			page 4


 172              	.LVL17:
 173 0000 F8B5     		push	{r3, r4, r5, r6, r7, lr}
 174              	.LCFI3:
 175              		.cfi_def_cfa_offset 24
 176              		.cfi_offset 3, -24
 177              		.cfi_offset 4, -20
 178              		.cfi_offset 5, -16
 179              		.cfi_offset 6, -12
 180              		.cfi_offset 7, -8
 181              		.cfi_offset 14, -4
 182              		.loc 1 129 0
 183 0002 0378     		ldrb	r3, [r0, #0]	@ zero_extendqisi2
 184 0004 042B     		cmp	r3, #4
 185 0006 00D0     		beq	.L10
 186 0008 F8BD     		pop	{r3, r4, r5, r6, r7, pc}
 187              	.L10:
 188              	.LBB14:
 189              	.LBB15:
 190              	.LBB16:
 191              		.loc 1 133 0
 192 000a 1B4C     		ldr	r4, .L11
 193              	.LBB17:
 194              		.loc 1 136 0
 195 000c 2023     		movs	r3, #32
 196              	.LVL18:
 197              	.LBE17:
 198              		.loc 1 133 0
 199 000e 2088     		ldrh	r0, [r4, #0]
 200              	.LVL19:
 201              		.loc 1 134 0
 202 0010 E188     		ldrh	r1, [r4, #6]
 203              	.LVL20:
 204              		.loc 1 133 0
 205 0012 A288     		ldrh	r2, [r4, #4]
 206              	.LVL21:
 207              		.loc 1 134 0
 208 0014 6788     		ldrh	r7, [r4, #2]
 209              		.loc 1 133 0
 210 0016 2689     		ldrh	r6, [r4, #8]
 211              		.loc 1 134 0
 212 0018 6589     		ldrh	r5, [r4, #10]
 213              		.loc 1 133 0
 214 001a 8218     		adds	r2, r0, r2
 215              		.loc 1 134 0
 216 001c 7F18     		adds	r7, r7, r1
 217              		.loc 1 133 0
 218 001e A089     		ldrh	r0, [r4, #12]
 219              		.loc 1 134 0
 220 0020 E189     		ldrh	r1, [r4, #14]
 221              		.loc 1 133 0
 222 0022 9219     		adds	r2, r2, r6
 223              		.loc 1 134 0
 224 0024 7F19     		adds	r7, r7, r5
 225              		.loc 1 133 0
 226 0026 1218     		adds	r2, r2, r0
 227              		.loc 1 134 0
 228 0028 7F18     		adds	r7, r7, r1
ARM GAS  C:\DOCUME~1\ADMINI~1\LOCALS~1\Temp\ccDTPuTH.s 			page 5


 229              		.loc 1 133 0
 230 002a 9210     		asrs	r2, r2, #2
 231              	.LVL22:
 232              		.loc 1 134 0
 233 002c BF10     		asrs	r7, r7, #2
 234              	.LVL23:
 235              	.LBB18:
 236              		.loc 1 136 0
 237              	@ 136 "main.c" 1
 238 002e 83F31188 		msr     BASEPRI, r3
 239              	@ 0 "" 2
 240              	.LVL24:
 241              		.thumb
 242              	.LBE18:
 243              		.loc 1 140 0
 244 0032 124D     		ldr	r5, .L11+4
 245 0034 0021     		movs	r1, #0
 246 0036 2B89     		ldrh	r3, [r5, #8]
 247              	.LVL25:
 248 0038 2846     		mov	r0, r5
 249 003a 03FB02F2 		mul	r2, r3, r2
 250              	.LVL26:
 251 003e C2F30F32 		ubfx	r2, r2, #12, #16
 252 0042 FFF7FEFF 		bl	pwm_lld_enable_channel
 253              	.LVL27:
 254              		.loc 1 141 0
 255 0046 2B89     		ldrh	r3, [r5, #8]
 256              		.loc 1 144 0
 257 0048 0D4E     		ldr	r6, .L11+8
 258              		.loc 1 141 0
 259 004a 03FB07F2 		mul	r2, r3, r7
 260 004e 0121     		movs	r1, #1
 261 0050 2846     		mov	r0, r5
 262 0052 C2F30F32 		ubfx	r2, r2, #12, #16
 263 0056 FFF7FEFF 		bl	pwm_lld_enable_channel
 264              	.LVL28:
 265              		.loc 1 144 0
 266 005a 3046     		mov	r0, r6
 267 005c FFF7FEFF 		bl	spi_lld_select
 268              	.LVL29:
 269              		.loc 1 145 0
 270 0060 0323     		movs	r3, #3
 271 0062 3046     		mov	r0, r6
 272 0064 0821     		movs	r1, #8
 273 0066 2246     		mov	r2, r4
 274 0068 3370     		strb	r3, [r6, #0]
 275 006a FFF7FEFF 		bl	spi_lld_send
 276              	.LVL30:
 277              	.LBB19:
 278              		.loc 1 147 0
 279 006e 0023     		movs	r3, #0
 280              	.LVL31:
 281              	@ 147 "main.c" 1
 282 0070 83F31188 		msr     BASEPRI, r3
 283              	@ 0 "" 2
 284              	.LVL32:
 285              		.thumb
ARM GAS  C:\DOCUME~1\ADMINI~1\LOCALS~1\Temp\ccDTPuTH.s 			page 6


 286 0074 F8BD     		pop	{r3, r4, r5, r6, r7, pc}
 287              	.L12:
 288 0076 00BF     		.align	2
 289              	.L11:
 290 0078 00000000 		.word	.LANCHOR2
 291 007c 00000000 		.word	PWMD4
 292 0080 00000000 		.word	SPID2
 293              	.LBE19:
 294              	.LBE16:
 295              	.LBE15:
 296              	.LBE14:
 297              		.cfi_endproc
 298              	.LFE63:
 299              		.size	adccb, .-adccb
 300              		.section	.text.startup.main,"ax",%progbits
 301              		.align	2
 302              		.global	main
 303              		.thumb
 304              		.thumb_func
 305              		.type	main, %function
 306              	main:
 307              	.LFB66:
 308              		.loc 1 181 0
 309              		.cfi_startproc
 310              		@ args = 0, pretend = 0, frame = 0
 311              		@ frame_needed = 0, uses_anonymous_args = 0
 312 0000 10B5     		push	{r4, lr}
 313              	.LCFI4:
 314              		.cfi_def_cfa_offset 8
 315              		.cfi_offset 4, -8
 316              		.cfi_offset 14, -4
 317              		.loc 1 198 0
 318 0002 0024     		movs	r4, #0
 319              		.loc 1 181 0
 320 0004 82B0     		sub	sp, sp, #8
 321              	.LCFI5:
 322              		.cfi_def_cfa_offset 16
 323              		.loc 1 190 0
 324 0006 FFF7FEFF 		bl	halInit
 325              	.LVL33:
 326              		.loc 1 198 0
 327 000a C4F20204 		movt	r4, 16386
 328              		.loc 1 191 0
 329 000e FFF7FEFF 		bl	chSysInit
 330              	.LVL34:
 331              		.loc 1 197 0
 332 0012 0021     		movs	r1, #0
 333 0014 3948     		ldr	r0, .L24
 334 0016 FFF7FEFF 		bl	sdStart
 335              	.LVL35:
 336              		.loc 1 198 0
 337 001a 4FF40071 		mov	r1, #512
 338 001e 40F28232 		movw	r2, #898
 339 0022 2046     		mov	r0, r4
 340 0024 FFF7FEFF 		bl	_pal_lld_setgroupmode
 341              	.LVL36:
 342              		.loc 1 199 0
ARM GAS  C:\DOCUME~1\ADMINI~1\LOCALS~1\Temp\ccDTPuTH.s 			page 7


 343 0028 40F28232 		movw	r2, #898
 344 002c 2046     		mov	r0, r4
 345 002e 4FF48061 		mov	r1, #1024
 346 0032 FFF7FEFF 		bl	_pal_lld_setgroupmode
 347              	.LVL37:
 348              		.loc 1 206 0
 349 0036 2369     		ldr	r3, [r4, #16]
 350 0038 DA07     		lsls	r2, r3, #31
 351 003a 5AD4     		bmi	.L23
 352              	.L14:
 353              		.loc 1 216 0
 354 003c 3048     		ldr	r0, .L24+4
 355 003e 3149     		ldr	r1, .L24+8
 356              		.loc 1 217 0
 357 0040 4FF48064 		mov	r4, #1024
 358 0044 C4F20204 		movt	r4, 16386
 359              		.loc 1 216 0
 360 0048 FFF7FEFF 		bl	spiStart
 361              	.LVL38:
 362              		.loc 1 217 0
 363 004c 4FF48053 		mov	r3, #4096
 364              		.loc 1 218 0
 365 0050 1946     		mov	r1, r3
 366              		.loc 1 217 0
 367 0052 2383     		strh	r3, [r4, #24]	@ movhi
 368              		.loc 1 218 0
 369 0054 2046     		mov	r0, r4
 370 0056 1922     		movs	r2, #25
 371 0058 FFF7FEFF 		bl	_pal_lld_setgroupmode
 372              	.LVL39:
 373              		.loc 1 220 0
 374 005c 2046     		mov	r0, r4
 375 005e 4FF40051 		mov	r1, #8192
 376 0062 40F29A22 		movw	r2, #666
 377 0066 FFF7FEFF 		bl	_pal_lld_setgroupmode
 378              	.LVL40:
 379              		.loc 1 222 0
 380 006a 2046     		mov	r0, r4
 381 006c 4FF48041 		mov	r1, #16384
 382 0070 40F28222 		movw	r2, #642
 383 0074 FFF7FEFF 		bl	_pal_lld_setgroupmode
 384              	.LVL41:
 385              		.loc 1 223 0
 386 0078 40F29A22 		movw	r2, #666
 387 007c 2046     		mov	r0, r4
 388 007e 4FF40041 		mov	r1, #32768
 389 0082 FFF7FEFF 		bl	_pal_lld_setgroupmode
 390              	.LVL42:
 391              		.loc 1 230 0
 392 0086 2048     		ldr	r0, .L24+12
 393 0088 0021     		movs	r1, #0
 394 008a FFF7FEFF 		bl	adcStart
 395              	.LVL43:
 396              		.loc 1 231 0
 397 008e FFF7FEFF 		bl	adcSTM32EnableTSVREFE
 398              	.LVL44:
 399              		.loc 1 232 0
ARM GAS  C:\DOCUME~1\ADMINI~1\LOCALS~1\Temp\ccDTPuTH.s 			page 8


 400 0092 4FF40060 		mov	r0, #2048
 401 0096 0322     		movs	r2, #3
 402 0098 C4F20200 		movt	r0, 16386
 403 009c 0121     		movs	r1, #1
 404 009e FFF7FEFF 		bl	_pal_lld_setgroupmode
 405              	.LVL45:
 406              		.loc 1 237 0
 407 00a2 1A49     		ldr	r1, .L24+16
 408 00a4 1A48     		ldr	r0, .L24+20
 409 00a6 FFF7FEFF 		bl	pwmStart
 410              	.LVL46:
 411              		.loc 1 238 0
 412 00aa 2046     		mov	r0, r4
 413 00ac 4021     		movs	r1, #64
 414 00ae 4FF48172 		mov	r2, #258
 415 00b2 FFF7FEFF 		bl	_pal_lld_setgroupmode
 416              	.LVL47:
 417              		.loc 1 239 0
 418 00b6 2046     		mov	r0, r4
 419 00b8 8021     		movs	r1, #128
 420 00ba 4FF48172 		mov	r2, #258
 421 00be FFF7FEFF 		bl	_pal_lld_setgroupmode
 422              	.LVL48:
 423              		.loc 1 244 0
 424 00c2 0023     		movs	r3, #0
 425 00c4 0093     		str	r3, [sp, #0]
 426 00c6 1348     		ldr	r0, .L24+24
 427 00c8 4FF49871 		mov	r1, #304
 428 00cc 4022     		movs	r2, #64
 429 00ce 124B     		ldr	r3, .L24+28
 430              		.loc 1 253 0
 431 00d0 0024     		movs	r4, #0
 432              		.loc 1 244 0
 433 00d2 FFF7FEFF 		bl	chThdCreateStatic
 434              	.LVL49:
 435              		.loc 1 253 0
 436 00d6 C4F20204 		movt	r4, 16386
 437 00da 03E0     		b	.L16
 438              	.L15:
 439              		.loc 1 255 0
 440 00dc 4FF4FA70 		mov	r0, #500
 441 00e0 FFF7FEFF 		bl	chThdSleep
 442              	.LVL50:
 443              	.L16:
 444              		.loc 1 253 0
 445 00e4 2369     		ldr	r3, [r4, #16]
 446 00e6 DB07     		lsls	r3, r3, #31
 447 00e8 F8D5     		bpl	.L15
 448              		.loc 1 254 0
 449 00ea 0448     		ldr	r0, .L24
 450 00ec FFF7FEFF 		bl	TestThread
 451              	.LVL51:
 452 00f0 F4E7     		b	.L15
 453              	.L23:
 454              		.loc 1 207 0
 455 00f2 0248     		ldr	r0, .L24
 456 00f4 FFF7FEFF 		bl	TestThread
ARM GAS  C:\DOCUME~1\ADMINI~1\LOCALS~1\Temp\ccDTPuTH.s 			page 9


 457              	.LVL52:
 458 00f8 A0E7     		b	.L14
 459              	.L25:
 460 00fa 00BF     		.align	2
 461              	.L24:
 462 00fc 00000000 		.word	SD1
 463 0100 00000000 		.word	SPID2
 464 0104 00000000 		.word	.LANCHOR3
 465 0108 00000000 		.word	ADCD1
 466 010c 00000000 		.word	.LANCHOR4
 467 0110 00000000 		.word	PWMD4
 468 0114 00000000 		.word	.LANCHOR5
 469 0118 00000000 		.word	Thread1
 470              		.cfi_endproc
 471              	.LFE66:
 472              		.size	main, .-main
 473              		.section	.bss.waThread1,"aw",%nobits
 474              		.align	3
 475              		.set	.LANCHOR5,. + 0
 476              		.type	waThread1, %object
 477              		.size	waThread1, 304
 478              	waThread1:
 479 0000 00000000 		.space	304
 479      00000000 
 479      00000000 
 479      00000000 
 479      00000000 
 480              		.section	.bss.seconds_counter.6044,"aw",%nobits
 481              		.align	2
 482              		.set	.LANCHOR0,. + 0
 483              		.type	seconds_counter.6044, %object
 484              		.size	seconds_counter.6044, 4
 485              	seconds_counter.6044:
 486 0000 00000000 		.space	4
 487              		.section	.data.pwmcfg,"aw",%progbits
 488              		.align	2
 489              		.set	.LANCHOR4,. + 0
 490              		.type	pwmcfg, %object
 491              		.size	pwmcfg, 48
 492              	pwmcfg:
 493 0000 10270000 		.word	10000
 494 0004 1027     		.short	10000
 495 0006 0000     		.space	2
 496 0008 00000000 		.word	pwmpcb
 497 000c 01000000 		.word	1
 498 0010 00000000 		.word	0
 499 0014 01000000 		.word	1
 500 0018 00000000 		.word	0
 501 001c 00000000 		.word	0
 502 0020 00000000 		.word	0
 503 0024 00000000 		.word	0
 504 0028 00000000 		.word	0
 505 002c 0000     		.short	0
 506 002e 0000     		.space	2
 507              		.section	.rodata.str1.4,"aMS",%progbits,1
 508              		.align	2
 509              	.LC0:
ARM GAS  C:\DOCUME~1\ADMINI~1\LOCALS~1\Temp\ccDTPuTH.s 			page 10


 510 0000 636F756E 		.ascii	"counter\000"
 510      74657200 
 511              		.section	.rodata.spicfg,"a",%progbits
 512              		.align	2
 513              		.set	.LANCHOR3,. + 0
 514              		.type	spicfg, %object
 515              		.size	spicfg, 12
 516              	spicfg:
 517 0000 00000000 		.word	spicb
 518 0004 00040240 		.word	1073873920
 519 0008 0C00     		.short	12
 520 000a 0008     		.short	2048
 521              		.section	.rodata.adcgrpcfg,"a",%progbits
 522              		.align	2
 523              		.set	.LANCHOR1,. + 0
 524              		.type	adcgrpcfg, %object
 525              		.size	adcgrpcfg, 56
 526              	adcgrpcfg:
 527 0000 00000000 		.word	0
 528 0004 0200     		.short	2
 529 0006 0000     		.space	2
 530 0008 00000000 		.word	adccb
 531 000c 00000000 		.word	0
 532 0010 00000000 		.word	0
 533 0014 00000040 		.word	1073741824
 534 0018 00000000 		.word	0
 535 001c 04001800 		.word	1572868
 536 0020 00000000 		.word	0
 537 0024 00001000 		.word	1048576
 538 0028 00000000 		.word	0
 539 002c 00000000 		.word	0
 540 0030 00000000 		.word	0
 541 0034 50010000 		.word	336
 542              		.section	.bss.samples,"aw",%nobits
 543              		.align	2
 544              		.set	.LANCHOR2,. + 0
 545              		.type	samples, %object
 546              		.size	samples, 16
 547              	samples:
 548 0000 00000000 		.space	16
 548      00000000 
 548      00000000 
 548      00000000 
 549              		.text
 550              	.Letext0:
 551              		.file 2 "c:\\program files\\yagarto\\bin\\../lib/gcc/arm-none-eabi/4.7.1/include/stddef.h"
 552              		.file 3 "c:/program files/yagarto/lib/gcc/../../arm-none-eabi/sys-include/stdint.h"
 553              		.file 4 "../../os/ports/GCC/ARMCMx/chtypes.h"
 554              		.file 5 "../../os/kernel/include/chlists.h"
 555              		.file 6 "../../os/kernel/include/chthreads.h"
 556              		.file 7 "../../os/ports/GCC/ARMCMx/chcore_v7m.h"
 557              		.file 8 "../../os/kernel/include/chschd.h"
 558              		.file 9 "../../os/kernel/include/chmtx.h"
 559              		.file 10 "../../os/kernel/include/chevents.h"
 560              		.file 11 "../../os/kernel/include/chqueues.h"
 561              		.file 12 "../../os/kernel/include/chioch.h"
 562              		.file 13 "../../os/hal/platforms/STM32L1xx/stm32l1xx.h"
ARM GAS  C:\DOCUME~1\ADMINI~1\LOCALS~1\Temp\ccDTPuTH.s 			page 11


 563              		.file 14 "../../os/hal/platforms/STM32/stm32.h"
 564              		.file 15 "../../os/hal/platforms/STM32L1xx/stm32_dma.h"
 565              		.file 16 "../../os/hal/platforms/STM32/GPIOv2/pal_lld.h"
 566              		.file 17 "../../os/hal/include/adc.h"
 567              		.file 18 "../../os/hal/platforms/STM32L1xx/adc_lld.h"
 568              		.file 19 "../../os/hal/include/pwm.h"
 569              		.file 20 "../../os/hal/platforms/STM32/pwm_lld.h"
 570              		.file 21 "../../os/hal/include/serial.h"
 571              		.file 22 "../../os/hal/platforms/STM32/serial_lld.h"
 572              		.file 23 "../../os/hal/include/spi.h"
 573              		.file 24 "../../os/hal/platforms/STM32/spi_lld.h"
 574              		.file 25 "../../os/ports/common/ARMCMx/CMSIS/include/core_cm3.h"
 575              		.file 26 "../../os/hal/include/hal.h"
 576              		.file 27 "../../os/kernel/include/chsys.h"
 577              		.file 28 "../../test/test.h"