ARM GAS  C:\DOCUME~1\ADMINI~1\LOCALS~1\Temp\ccmu8HAO.s 			page 1


   1              		.syntax unified
   2              		.cpu cortex-m3
   3              		.fpu softvfp
   4              		.eabi_attribute 20, 1
   5              		.eabi_attribute 21, 1
   6              		.eabi_attribute 23, 3
   7              		.eabi_attribute 24, 1
   8              		.eabi_attribute 25, 1
   9              		.eabi_attribute 26, 1
  10              		.eabi_attribute 30, 2
  11              		.eabi_attribute 34, 1
  12              		.eabi_attribute 18, 4
  13              		.thumb
  14              		.file	"serial_lld.c"
  15              		.text
  16              	.Ltext0:
  17              		.cfi_sections	.debug_frame
  18              		.section	.text.notify1,"ax",%progbits
  19              		.align	2
  20              		.thumb
  21              		.thumb_func
  22              		.type	notify1, %function
  23              	notify1:
  24              	.LFB66:
  25              		.file 1 "../../os/hal/platforms/STM32/serial_lld.c"
  26              		.loc 1 217 0
  27              		.cfi_startproc
  28              		@ args = 0, pretend = 0, frame = 0
  29              		@ frame_needed = 0, uses_anonymous_args = 0
  30              		@ link register save eliminated.
  31              	.LVL0:
  32              		.loc 1 220 0
  33 0000 4FF46053 		mov	r3, #14336
  34 0004 C4F20103 		movt	r3, 16385
  35 0008 9A89     		ldrh	r2, [r3, #12]
  36 000a 92B2     		uxth	r2, r2
  37 000c 42F08002 		orr	r2, r2, #128
  38 0010 9A81     		strh	r2, [r3, #12]	@ movhi
  39 0012 7047     		bx	lr
  40              		.cfi_endproc
  41              	.LFE66:
  42              		.size	notify1, .-notify1
  43              		.section	.text.VectorD4,"ax",%progbits
  44              		.align	2
  45              		.global	VectorD4
  46              		.thumb
  47              		.thumb_func
  48              		.type	VectorD4, %function
  49              	VectorD4:
  50              	.LFB67:
  51              		.loc 1 274 0
  52              		.cfi_startproc
  53              		@ args = 0, pretend = 0, frame = 0
  54              		@ frame_needed = 0, uses_anonymous_args = 0
  55              	.LVL1:
  56 0000 2DE9F041 		push	{r4, r5, r6, r7, r8, lr}
  57              	.LCFI0:
ARM GAS  C:\DOCUME~1\ADMINI~1\LOCALS~1\Temp\ccmu8HAO.s 			page 2


  58              		.cfi_def_cfa_offset 24
  59              		.cfi_offset 4, -24
  60              		.cfi_offset 5, -20
  61              		.cfi_offset 6, -16
  62              		.cfi_offset 7, -12
  63              		.cfi_offset 8, -8
  64              		.cfi_offset 14, -4
  65              	.LBB30:
  66              	.LBB31:
  67              		.loc 1 171 0
  68 0004 534E     		ldr	r6, .L48
  69 0006 356F     		ldr	r5, [r6, #112]
  70              	.LVL2:
  71              		.loc 1 172 0
  72 0008 AF89     		ldrh	r7, [r5, #12]
  73              		.loc 1 173 0
  74 000a 2C88     		ldrh	r4, [r5, #0]
  75              		.loc 1 174 0
  76 000c A988     		ldrh	r1, [r5, #4]
  77              		.loc 1 173 0
  78 000e A4B2     		uxth	r4, r4
  79              		.loc 1 177 0
  80 0010 2207     		lsls	r2, r4, #28
  81              		.loc 1 172 0
  82 0012 BFB2     		uxth	r7, r7
  83              	.LVL3:
  84              		.loc 1 174 0
  85 0014 1FFA81F8 		uxth	r8, r1
  86              	.LVL4:
  87              		.loc 1 177 0
  88 0018 53D1     		bne	.L43
  89              	.LVL5:
  90              	.L3:
  91              		.loc 1 180 0
  92 001a 04F48073 		and	r3, r4, #256
  93              	.LVL6:
  94 001e 9BB2     		uxth	r3, r3
  95 0020 002B     		cmp	r3, #0
  96 0022 39D1     		bne	.L44
  97              	.L8:
  98              		.loc 1 187 0
  99 0024 04F02003 		and	r3, r4, #32
 100 0028 9BB2     		uxth	r3, r3
 101 002a 002B     		cmp	r3, #0
 102 002c 28D1     		bne	.L45
 103              	.LVL7:
 104              	.L9:
 105              		.loc 1 193 0
 106 002e 07F08003 		and	r3, r7, #128
 107              	.LVL8:
 108 0032 9BB2     		uxth	r3, r3
 109 0034 23B1     		cbz	r3, .L10
 110 0036 04F08003 		and	r3, r4, #128
 111 003a 9BB2     		uxth	r3, r3
 112 003c 002B     		cmp	r3, #0
 113 003e 65D1     		bne	.L46
 114              	.LVL9:
ARM GAS  C:\DOCUME~1\ADMINI~1\LOCALS~1\Temp\ccmu8HAO.s 			page 3


 115              	.L10:
 116              		.loc 1 206 0
 117 0040 04F04004 		and	r4, r4, #64
 118              	.LVL10:
 119 0044 A4B2     		uxth	r4, r4
 120 0046 BCB1     		cbz	r4, .L13
 121              	.LBB32:
 122              		.loc 1 207 0
 123 0048 2023     		movs	r3, #32
 124              	.LVL11:
 125              	@ 207 "../../os/hal/platforms/STM32/serial_lld.c" 1
 126 004a 83F31188 		msr     BASEPRI, r3
 127              	@ 0 "" 2
 128              	.LVL12:
 129              		.thumb
 130              	.LBE32:
 131              		.loc 1 208 0
 132 004e B368     		ldr	r3, [r6, #8]
 133              	.LVL13:
 134 0050 4148     		ldr	r0, .L48+4
 135 0052 43F01003 		orr	r3, r3, #16
 136 0056 0021     		movs	r1, #0
 137 0058 B360     		str	r3, [r6, #8]
 138 005a FFF7FEFF 		bl	chEvtBroadcastFlagsI
 139              	.LVL14:
 140              	.LBB33:
 141              		.loc 1 209 0
 142 005e 0023     		movs	r3, #0
 143              	.LVL15:
 144              	@ 209 "../../os/hal/platforms/STM32/serial_lld.c" 1
 145 0060 83F31188 		msr     BASEPRI, r3
 146              	@ 0 "" 2
 147              	.LVL16:
 148              		.thumb
 149              	.LBE33:
 150              		.loc 1 210 0
 151 0064 4FF6BF73 		movw	r3, #65471
 152              	.LVL17:
 153 0068 3B40     		ands	r3, r3, r7
 154 006a AB81     		strh	r3, [r5, #12]	@ movhi
 155              		.loc 1 211 0
 156 006c 2B88     		ldrh	r3, [r5, #0]
 157 006e 23F04003 		bic	r3, r3, #64
 158 0072 1B04     		lsls	r3, r3, #16
 159 0074 1B0C     		lsrs	r3, r3, #16
 160 0076 2B80     		strh	r3, [r5, #0]	@ movhi
 161              	.LVL18:
 162              	.L13:
 163              	.LBE31:
 164              	.LBE30:
 165              		.loc 1 281 0
 166 0078 BDE8F041 		pop	{r4, r5, r6, r7, r8, lr}
 167              		.loc 1 280 0
 168 007c FFF7FEBF 		b	_port_irq_epilogue
 169              	.LVL19:
 170              	.L45:
 171              	.LBB46:
ARM GAS  C:\DOCUME~1\ADMINI~1\LOCALS~1\Temp\ccmu8HAO.s 			page 4


 172              	.LBB45:
 173              	.LBB34:
 174              		.loc 1 188 0
 175 0080 2023     		movs	r3, #32
 176              	.LVL20:
 177              	@ 188 "../../os/hal/platforms/STM32/serial_lld.c" 1
 178 0082 83F31188 		msr     BASEPRI, r3
 179              	@ 0 "" 2
 180              	.LVL21:
 181              		.thumb
 182              	.LBE34:
 183              		.loc 1 189 0
 184 0086 3348     		ldr	r0, .L48
 185 0088 5FFA88F1 		uxtb	r1, r8
 186 008c FFF7FEFF 		bl	sdIncomingDataI
 187              	.LVL22:
 188              	.LBB35:
 189              		.loc 1 190 0
 190 0090 0023     		movs	r3, #0
 191              	@ 190 "../../os/hal/platforms/STM32/serial_lld.c" 1
 192 0092 83F31188 		msr     BASEPRI, r3
 193              	@ 0 "" 2
 194              	.LVL23:
 195              		.thumb
 196 0096 CAE7     		b	.L9
 197              	.LVL24:
 198              	.L44:
 199              	.LBE35:
 200              	.LBB36:
 201              		.loc 1 181 0
 202 0098 2023     		movs	r3, #32
 203              	.LVL25:
 204              	@ 181 "../../os/hal/platforms/STM32/serial_lld.c" 1
 205 009a 83F31188 		msr     BASEPRI, r3
 206              	@ 0 "" 2
 207              	.LVL26:
 208              		.thumb
 209              	.LBE36:
 210              		.loc 1 182 0
 211 009e B368     		ldr	r3, [r6, #8]
 212              	.LVL27:
 213 00a0 2D48     		ldr	r0, .L48+4
 214 00a2 43F40073 		orr	r3, r3, #512
 215 00a6 0021     		movs	r1, #0
 216 00a8 B360     		str	r3, [r6, #8]
 217 00aa FFF7FEFF 		bl	chEvtBroadcastFlagsI
 218              	.LVL28:
 219              	.LBB37:
 220              		.loc 1 183 0
 221 00ae 0023     		movs	r3, #0
 222              	.LVL29:
 223              	@ 183 "../../os/hal/platforms/STM32/serial_lld.c" 1
 224 00b0 83F31188 		msr     BASEPRI, r3
 225              	@ 0 "" 2
 226              	.LVL30:
 227              		.thumb
 228              	.LBE37:
ARM GAS  C:\DOCUME~1\ADMINI~1\LOCALS~1\Temp\ccmu8HAO.s 			page 5


 229              		.loc 1 184 0
 230 00b4 2B88     		ldrh	r3, [r5, #0]
 231              	.LVL31:
 232 00b6 23F48073 		bic	r3, r3, #256
 233 00ba 1B04     		lsls	r3, r3, #16
 234 00bc 1B0C     		lsrs	r3, r3, #16
 235 00be 2B80     		strh	r3, [r5, #0]	@ movhi
 236 00c0 B0E7     		b	.L8
 237              	.LVL32:
 238              	.L43:
 239              	.LBB38:
 240              	.LBB39:
 241              		.loc 1 152 0
 242 00c2 04F00802 		and	r2, r4, #8
 243 00c6 92B2     		uxth	r2, r2
 244              		.loc 1 153 0
 245 00c8 002A     		cmp	r2, #0
 246 00ca 14BF     		ite	ne
 247 00cc 8022     		movne	r2, #128
 248 00ce 0022     		moveq	r2, #0
 249              	.LVL33:
 250              		.loc 1 154 0
 251 00d0 E307     		lsls	r3, r4, #31
 252              		.loc 1 156 0
 253 00d2 04F00203 		and	r3, r4, #2
 254 00d6 9BB2     		uxth	r3, r3
 255              		.loc 1 155 0
 256 00d8 48BF     		it	mi
 257 00da 42F02002 		orrmi	r2, r2, #32
 258              	.LVL34:
 259              		.loc 1 156 0
 260 00de 0BB1     		cbz	r3, .L6
 261              		.loc 1 157 0
 262 00e0 42F04002 		orr	r2, r2, #64
 263              	.LVL35:
 264              	.L6:
 265              		.loc 1 158 0
 266 00e4 04F00403 		and	r3, r4, #4
 267 00e8 9BB2     		uxth	r3, r3
 268 00ea 0BB1     		cbz	r3, .L7
 269              		.loc 1 159 0
 270 00ec 42F48072 		orr	r2, r2, #256
 271              	.LVL36:
 272              	.L7:
 273              	.LBB40:
 274              		.loc 1 160 0
 275 00f0 2023     		movs	r3, #32
 276              	.LVL37:
 277              	@ 160 "../../os/hal/platforms/STM32/serial_lld.c" 1
 278 00f2 83F31188 		msr     BASEPRI, r3
 279              	@ 0 "" 2
 280              	.LVL38:
 281              		.thumb
 282              	.LBE40:
 283              		.loc 1 161 0
 284 00f6 B368     		ldr	r3, [r6, #8]
 285              	.LVL39:
ARM GAS  C:\DOCUME~1\ADMINI~1\LOCALS~1\Temp\ccmu8HAO.s 			page 6


 286 00f8 1748     		ldr	r0, .L48+4
 287 00fa 1A43     		orrs	r2, r2, r3
 288              	.LVL40:
 289 00fc 0021     		movs	r1, #0
 290              	.LVL41:
 291 00fe B260     		str	r2, [r6, #8]
 292 0100 FFF7FEFF 		bl	chEvtBroadcastFlagsI
 293              	.LVL42:
 294              	.LBB41:
 295              		.loc 1 162 0
 296 0104 0023     		movs	r3, #0
 297              	@ 162 "../../os/hal/platforms/STM32/serial_lld.c" 1
 298 0106 83F31188 		msr     BASEPRI, r3
 299              	@ 0 "" 2
 300              	.LVL43:
 301              		.thumb
 302 010a 86E7     		b	.L3
 303              	.LVL44:
 304              	.L46:
 305              	.LBE41:
 306              	.LBE39:
 307              	.LBE38:
 308              	.LBB42:
 309              	.LBB43:
 310              		.loc 1 195 0
 311 010c 2023     		movs	r3, #32
 312              	.LVL45:
 313              	@ 195 "../../os/hal/platforms/STM32/serial_lld.c" 1
 314 010e 83F31188 		msr     BASEPRI, r3
 315              	@ 0 "" 2
 316              	.LVL46:
 317              		.thumb
 318              	.LBE43:
 319              		.loc 1 196 0
 320 0112 DFF84080 		ldr	r8, .L48
 321              	.LVL47:
 322 0116 08F13000 		add	r0, r8, #48
 323 011a FFF7FEFF 		bl	chOQGetI
 324              	.LVL48:
 325              		.loc 1 197 0
 326 011e 0028     		cmp	r0, #0
 327              		.loc 1 202 0
 328 0120 A4BF     		itt	ge
 329 0122 80B2     		uxthge	r0, r0
 330              	.LVL49:
 331 0124 A880     		strhge	r0, [r5, #4]	@ movhi
 332              		.loc 1 197 0
 333 0126 03DB     		blt	.L47
 334              	.L12:
 335              	.LBB44:
 336              		.loc 1 203 0
 337 0128 0023     		movs	r3, #0
 338              	@ 203 "../../os/hal/platforms/STM32/serial_lld.c" 1
 339 012a 83F31188 		msr     BASEPRI, r3
 340              	@ 0 "" 2
 341              	.LVL50:
 342              		.thumb
ARM GAS  C:\DOCUME~1\ADMINI~1\LOCALS~1\Temp\ccmu8HAO.s 			page 7


 343 012e 87E7     		b	.L10
 344              	.LVL51:
 345              	.L47:
 346              	.LBE44:
 347              		.loc 1 198 0
 348 0130 D8F80830 		ldr	r3, [r8, #8]
 349 0134 08F10400 		add	r0, r8, #4
 350 0138 43F00803 		orr	r3, r3, #8
 351 013c 0021     		movs	r1, #0
 352 013e C8F80830 		str	r3, [r8, #8]
 353 0142 FFF7FEFF 		bl	chEvtBroadcastFlagsI
 354              	.LVL52:
 355              		.loc 1 199 0
 356 0146 27F0C003 		bic	r3, r7, #192
 357 014a 43F04003 		orr	r3, r3, #64
 358 014e AB81     		strh	r3, [r5, #12]	@ movhi
 359 0150 EAE7     		b	.L12
 360              	.L49:
 361 0152 00BF     		.align	2
 362              	.L48:
 363 0154 00000000 		.word	.LANCHOR0
 364 0158 04000000 		.word	.LANCHOR0+4
 365              	.LBE42:
 366              	.LBE45:
 367              	.LBE46:
 368              		.cfi_endproc
 369              	.LFE67:
 370              		.size	VectorD4, .-VectorD4
 371              		.section	.text.sd_lld_init,"ax",%progbits
 372              		.align	2
 373              		.global	sd_lld_init
 374              		.thumb
 375              		.thumb_func
 376              		.type	sd_lld_init, %function
 377              	sd_lld_init:
 378              	.LFB68:
 379              		.loc 1 373 0
 380              		.cfi_startproc
 381              		@ args = 0, pretend = 0, frame = 0
 382              		@ frame_needed = 0, uses_anonymous_args = 0
 383 0000 10B5     		push	{r4, lr}
 384              	.LCFI1:
 385              		.cfi_def_cfa_offset 8
 386              		.cfi_offset 4, -8
 387              		.cfi_offset 14, -4
 388              		.loc 1 376 0
 389 0002 40F20004 		movw	r4, #:lower16:.LANCHOR0
 390 0006 C0F20004 		movt	r4, #:upper16:.LANCHOR0
 391 000a 40F20002 		movw	r2, #:lower16:notify1
 392 000e 2046     		mov	r0, r4
 393 0010 0021     		movs	r1, #0
 394 0012 C0F20002 		movt	r2, #:upper16:notify1
 395 0016 FFF7FEFF 		bl	sdObjectInit
 396              	.LVL53:
 397              		.loc 1 377 0
 398 001a 4FF46053 		mov	r3, #14336
 399 001e C4F20103 		movt	r3, 16385
ARM GAS  C:\DOCUME~1\ADMINI~1\LOCALS~1\Temp\ccmu8HAO.s 			page 8


 400 0022 2367     		str	r3, [r4, #112]
 401 0024 10BD     		pop	{r4, pc}
 402              		.cfi_endproc
 403              	.LFE68:
 404              		.size	sd_lld_init, .-sd_lld_init
 405 0026 00BF     		.section	.text.sd_lld_start,"ax",%progbits
 406              		.align	2
 407              		.global	sd_lld_start
 408              		.thumb
 409              		.thumb_func
 410              		.type	sd_lld_start, %function
 411              	sd_lld_start:
 412              	.LFB69:
 413              		.loc 1 416 0
 414              		.cfi_startproc
 415              		@ args = 0, pretend = 0, frame = 0
 416              		@ frame_needed = 0, uses_anonymous_args = 0
 417              	.LVL54:
 418 0000 38B5     		push	{r3, r4, r5, lr}
 419              	.LCFI2:
 420              		.cfi_def_cfa_offset 16
 421              		.cfi_offset 3, -16
 422              		.cfi_offset 4, -12
 423              		.cfi_offset 5, -8
 424              		.cfi_offset 14, -4
 425              		.loc 1 421 0
 426 0002 037B     		ldrb	r3, [r0, #12]	@ zero_extendqisi2
 427              		.loc 1 419 0
 428 0004 1B4C     		ldr	r4, .L58
 429              		.loc 1 416 0
 430 0006 0546     		mov	r5, r0
 431              		.loc 1 419 0
 432 0008 0029     		cmp	r1, #0
 433 000a 18BF     		it	ne
 434 000c 0C46     		movne	r4, r1
 435              	.LVL55:
 436              		.loc 1 421 0
 437 000e 012B     		cmp	r3, #1
 438 0010 1FD0     		beq	.L57
 439              	.LVL56:
 440              	.L53:
 441              	.LBB49:
 442              	.LBB50:
 443              		.loc 1 110 0
 444 0012 2168     		ldr	r1, [r4, #0]
 445 0014 4FF49042 		mov	r2, #18432
 446 0018 C0F2E812 		movt	r2, 488
 447              		.loc 1 100 0
 448 001c 2B6F     		ldr	r3, [r5, #112]
 449              	.LVL57:
 450              		.loc 1 110 0
 451 001e B2FBF1F2 		udiv	r2, r2, r1
 452 0022 92B2     		uxth	r2, r2
 453 0024 1A81     		strh	r2, [r3, #8]	@ movhi
 454              		.loc 1 117 0
 455 0026 A288     		ldrh	r2, [r4, #4]
 456              		.loc 1 120 0
ARM GAS  C:\DOCUME~1\ADMINI~1\LOCALS~1\Temp\ccmu8HAO.s 			page 9


 457 0028 E088     		ldrh	r0, [r4, #6]
 458              		.loc 1 121 0
 459 002a 2189     		ldrh	r1, [r4, #8]
 460              		.loc 1 117 0
 461 002c 42F40452 		orr	r2, r2, #8448
 462 0030 42F02C02 		orr	r2, r2, #44
 463 0034 92B2     		uxth	r2, r2
 464              		.loc 1 120 0
 465 0036 40F04000 		orr	r0, r0, #64
 466              		.loc 1 121 0
 467 003a 41F00101 		orr	r1, r1, #1
 468              		.loc 1 117 0
 469 003e 9A81     		strh	r2, [r3, #12]	@ movhi
 470              		.loc 1 120 0
 471 0040 80B2     		uxth	r0, r0
 472              		.loc 1 122 0
 473 0042 0022     		movs	r2, #0
 474              		.loc 1 121 0
 475 0044 89B2     		uxth	r1, r1
 476              		.loc 1 120 0
 477 0046 1882     		strh	r0, [r3, #16]	@ movhi
 478              		.loc 1 121 0
 479 0048 9982     		strh	r1, [r3, #20]	@ movhi
 480              		.loc 1 122 0
 481 004a 1A80     		strh	r2, [r3, #0]	@ movhi
 482              		.loc 1 123 0
 483 004c 1A88     		ldrh	r2, [r3, #0]
 484              		.loc 1 124 0
 485 004e 9B88     		ldrh	r3, [r3, #4]
 486              	.LVL58:
 487 0050 38BD     		pop	{r3, r4, r5, pc}
 488              	.LVL59:
 489              	.L57:
 490              	.LBE50:
 491              	.LBE49:
 492              		.loc 1 423 0
 493 0052 094B     		ldr	r3, .L58+4
 494 0054 9842     		cmp	r0, r3
 495 0056 DCD1     		bne	.L53
 496              		.loc 1 424 0
 497 0058 4FF46053 		mov	r3, #14336
 498 005c C4F20203 		movt	r3, 16386
 499 0060 1A6A     		ldr	r2, [r3, #32]
 500              		.loc 1 425 0
 501 0062 2520     		movs	r0, #37
 502              	.LVL60:
 503              		.loc 1 424 0
 504 0064 42F48042 		orr	r2, r2, #16384
 505 0068 1A62     		str	r2, [r3, #32]
 506              		.loc 1 425 0
 507 006a C021     		movs	r1, #192
 508 006c FFF7FEFF 		bl	nvicEnableVector
 509              	.LVL61:
 510 0070 CFE7     		b	.L53
 511              	.L59:
 512 0072 00BF     		.align	2
 513              	.L58:
ARM GAS  C:\DOCUME~1\ADMINI~1\LOCALS~1\Temp\ccmu8HAO.s 			page 10


 514 0074 00000000 		.word	.LANCHOR1
 515 0078 00000000 		.word	.LANCHOR0
 516              		.cfi_endproc
 517              	.LFE69:
 518              		.size	sd_lld_start, .-sd_lld_start
 519              		.section	.text.sd_lld_stop,"ax",%progbits
 520              		.align	2
 521              		.global	sd_lld_stop
 522              		.thumb
 523              		.thumb_func
 524              		.type	sd_lld_stop, %function
 525              	sd_lld_stop:
 526              	.LFB70:
 527              		.loc 1 477 0
 528              		.cfi_startproc
 529              		@ args = 0, pretend = 0, frame = 0
 530              		@ frame_needed = 0, uses_anonymous_args = 0
 531              		@ link register save eliminated.
 532              	.LVL62:
 533              		.loc 1 479 0
 534 0000 037B     		ldrb	r3, [r0, #12]	@ zero_extendqisi2
 535 0002 022B     		cmp	r3, #2
 536 0004 00D0     		beq	.L64
 537              	.L60:
 538 0006 7047     		bx	lr
 539              	.L64:
 540              		.loc 1 480 0
 541 0008 036F     		ldr	r3, [r0, #112]
 542              	.LVL63:
 543              	.LBB51:
 544              	.LBB52:
 545              		.loc 1 135 0
 546 000a 0022     		movs	r2, #0
 547 000c 9A81     		strh	r2, [r3, #12]	@ movhi
 548              		.loc 1 136 0
 549 000e 1A82     		strh	r2, [r3, #16]	@ movhi
 550              		.loc 1 137 0
 551 0010 9A82     		strh	r2, [r3, #20]	@ movhi
 552              	.LBE52:
 553              	.LBE51:
 554              		.loc 1 482 0
 555 0012 074B     		ldr	r3, .L65
 556              	.LVL64:
 557 0014 9842     		cmp	r0, r3
 558 0016 F6D1     		bne	.L60
 559              		.loc 1 483 0
 560 0018 4FF46053 		mov	r3, #14336
 561 001c C4F20203 		movt	r3, 16386
 562 0020 1A6A     		ldr	r2, [r3, #32]
 563              		.loc 1 484 0
 564 0022 2520     		movs	r0, #37
 565              	.LVL65:
 566              		.loc 1 483 0
 567 0024 22F48042 		bic	r2, r2, #16384
 568 0028 1A62     		str	r2, [r3, #32]
 569              		.loc 1 524 0
 570              		.loc 1 484 0
ARM GAS  C:\DOCUME~1\ADMINI~1\LOCALS~1\Temp\ccmu8HAO.s 			page 11


 571 002a FFF7FEBF 		b	nvicDisableVector
 572              	.LVL66:
 573              	.L66:
 574 002e 00BF     		.align	2
 575              	.L65:
 576 0030 00000000 		.word	.LANCHOR0
 577              		.cfi_endproc
 578              	.LFE70:
 579              		.size	sd_lld_stop, .-sd_lld_stop
 580              		.global	SD1
 581              		.section	.rodata.default_config,"a",%progbits
 582              		.align	2
 583              		.set	.LANCHOR1,. + 0
 584              		.type	default_config, %object
 585              		.size	default_config, 12
 586              	default_config:
 587 0000 00960000 		.word	38400
 588 0004 0000     		.short	0
 589 0006 0040     		.short	16384
 590 0008 0000     		.short	0
 591 000a 0000     		.space	2
 592              		.section	.bss.SD1,"aw",%nobits
 593              		.align	2
 594              		.set	.LANCHOR0,. + 0
 595              		.type	SD1, %object
 596              		.size	SD1, 116
 597              	SD1:
 598 0000 00000000 		.space	116
 598      00000000 
 598      00000000 
 598      00000000 
 598      00000000 
 599              		.text
 600              	.Letext0:
 601              		.file 2 "c:\\program files\\yagarto\\bin\\../lib/gcc/arm-none-eabi/4.7.1/include/stddef.h"
 602              		.file 3 "c:/program files/yagarto/lib/gcc/../../arm-none-eabi/sys-include/stdint.h"
 603              		.file 4 "../../os/ports/GCC/ARMCMx/chtypes.h"
 604              		.file 5 "../../os/kernel/include/chlists.h"
 605              		.file 6 "../../os/kernel/include/chthreads.h"
 606              		.file 7 "../../os/ports/GCC/ARMCMx/chcore_v7m.h"
 607              		.file 8 "../../os/kernel/include/chmtx.h"
 608              		.file 9 "../../os/kernel/include/chevents.h"
 609              		.file 10 "../../os/kernel/include/chqueues.h"
 610              		.file 11 "../../os/kernel/include/chioch.h"
 611              		.file 12 "../../os/hal/platforms/STM32L1xx/stm32l1xx.h"
 612              		.file 13 "../../os/hal/include/serial.h"
 613              		.file 14 "../../os/hal/platforms/STM32/serial_lld.h"
 614              		.file 15 "../../os/ports/common/ARMCMx/nvic.h"
 615              		.file 16 "../../os/ports/common/ARMCMx/CMSIS/include/core_cm3.h"