ARM GAS  C:\DOCUME~1\ADMINI~1\LOCALS~1\Temp\ccmu8HAO.s 			page 1


   1              		.syntax unified
   2              		.cpu cortex-m3
   3              		.fpu softvfp
   4              		.eabi_attribute 20, 1
   5              		.eabi_attribute 21, 1
   6              		.eabi_attribute 23, 3
   7              		.eabi_attribute 24, 1
   8              		.eabi_attribute 25, 1
   9              		.eabi_attribute 26, 1
  10              		.eabi_attribute 30, 2
  11              		.eabi_attribute 34, 1
  12              		.eabi_attribute 18, 4
  13              		.thumb
  14              		.file	"serial_lld.c"
  15              		.text
  16              	.Ltext0:
  17              		.cfi_sections	.debug_frame
  18              		.section	.text.notify1,"ax",%progbits
  19              		.align	2
  20              		.thumb
  21              		.thumb_func
  22              		.type	notify1, %function
  23              	notify1:
  24              	.LFB66:
  25              		.file 1 "../../os/hal/platforms/STM32/serial_lld.c"
  26              		.loc 1 217 0
  27              		.cfi_startproc
  28              		@ args = 0, pretend = 0, frame = 0
  29              		@ frame_needed = 0, uses_anonymous_args = 0
  30              		@ link register save eliminated.
  31              	.LVL0:
  32              		.loc 1 220 0
  33 0000 4FF46053 		mov	r3, #14336
  34 0004 C4F20103 		movt	r3, 16385
  35 0008 9A89     		ldrh	r2, [r3, #12]
  36 000a 92B2     		uxth	r2, r2
  37 000c 42F08002 		orr	r2, r2, #128
  38 0010 9A81     		strh	r2, [r3, #12]	@ movhi
  39 0012 7047     		bx	lr
  40              		.cfi_endproc
  41              	.LFE66:
  42              		.size	notify1, .-notify1
  43              		.section	.text.VectorD4,"ax",%progbits
  44              		.align	2
  45              		.global	VectorD4
  46              		.thumb
  47              		.thumb_func
  48              		.type	VectorD4, %function
  49              	VectorD4:
  50              	.LFB67:
  51              		.loc 1 274 0
  52              		.cfi_startproc
  53              		@ args = 0, pretend = 0, frame = 0
  54              		@ frame_needed = 0, uses_anonymous_args = 0
  55              	.LVL1:
  56 0000 2DE9F041 		push	{r4, r5, r6, r7, r8, lr}
  57              	.LCFI0:
ARM GAS  C:\DOCUME~1\ADMINI~1\LOCALS~1\Temp\ccmu8HAO.s 			page 2


  58              		.cfi_def_cfa_offset 24
  59              		.cfi_offset 4, -24
  60              		.cfi_offset 5, -20
  61              		.cfi_offset 6, -16
  62              		.cfi_offset 7, -12
  63              		.cfi_offset 8, -8
  64              		.cfi_offset 14, -4
  65              	.LBB30:
  66              	.LBB31:
  67              		.loc 1 171 0
  68 0004 534E     		ldr	r6, .L48
  69 0006 356F     		ldr	r5, [r6, #112]
  70              	.LVL2:
  71              		.loc 1 172 0
  72 0008 AF89     		ldrh	r7, [r5, #12]
  73              		.loc 1 173 0
  74 000a 2C88     		ldrh	r4, [r5, #0]
  75              		.loc 1 174 0
  76 000c A988     		ldrh	r1, [r5, #4]
  77              		.loc 1 173 0
  78 000e A4B2     		uxth	r4, r4
  79              		.loc 1 177 0
  80 0010 2207     		lsls	r2, r4, #28
  81              		.loc 1 172 0
  82 0012 BFB2     		uxth	r7, r7
  83              	.LVL3:
  84              		.loc 1 174 0
  85 0014 1FFA81F8 		uxth	r8, r1
  86              	.LVL4:
  87              		.loc 1 177 0
  88 0018 53D1     		bne	.L43
  89              	.LVL5:
  90              	.L3:
  91              		.loc 1 180 0
  92 001a 04F48073 		and	r3, r4, #256
  93              	.LVL6:
  94 001e 9BB2     		uxth	r3, r3
  95 0020 002B     		cmp	r3, #0
  96 0022 39D1     		bne	.L44
  97              	.L8:
  98              		.loc 1 187 0
  99 0024 04F02003 		and	r3, r4, #32
 100 0028 9BB2     		uxth	r3, r3
 101 002a 002B     		cmp	r3, #0
 102 002c 28D1     		bne	.L45
 103              	.LVL7:
 104              	.L9:
 105              		.loc 1 193 0
 106 002e 07F08003 		and	r3, r7, #128
 107              	.LVL8:
 108 0032 9BB2     		uxth	r3, r3
 109 0034 23B1     		cbz	r3, .L10
 110 0036 04F08003 		and	r3, r4, #128
 111 003a 9BB2     		uxth	r3, r3
 112 003c 002B     		cmp	r3, #0
 113 003e 65D1     		bne	.L46
 114              	.LVL9:
ARM GAS  C:\DOCUME~1\ADMINI~1\LOCALS~1\Temp\ccmu8HAO.s 			page 3


 115              	.L10:
 116              		.loc 1 206 0
 117 0040 04F04004 		and	r4, r4, #64
 118              	.LVL10:
 119 0044 A4B2     		uxth	r4, r4
 120 0046 BCB1     		cbz	r4, .L13
 121              	.LBB32:
 122              		.loc 1 207 0
 123 0048 2023     		movs	r3, #32
 124              	.LVL11:
 125              	@ 207 "../../os/hal/platforms/STM32/serial_lld.c" 1
 126 004a 83F31188 		msr     BASEPRI, r3
 127              	@ 0 "" 2
 128              	.LVL12:
 129              		.thumb
 130              	.LBE32:
 131              		.loc 1 208 0
 132 004e B368     		ldr	r3, [r6, #8]
 133              	.LVL13:
 134 0050 4148     		ldr	r0, .L48+4
 135 0052 43F01003 		orr	r3, r3, #16
 136 0056 0021     		movs	r1, #0
 137 0058 B360     		str	r3, [r6, #8]
 138 005a FFF7FEFF 		bl	chEvtBroadcastFlagsI
 139              	.LVL14:
 140              	.LBB33:
 141              		.loc 1 209 0
 142 005e 0023     		movs	r3, #0
 143              	.LVL15:
 144              	@ 209 "../../os/hal/platforms/STM32/serial_lld.c" 1
 145 0060 83F31188 		msr     BASEPRI, r3
 146              	@ 0 "" 2
 147              	.LVL16:
 148              		.thumb
 149              	.LBE33:
 150              		.loc 1 210 0
 151 0064 4FF6BF73 		movw	r3, #65471
 152              	.LVL17:
 153 0068 3B40     		ands	r3, r3, r7
 154 006a AB81     		strh	r3, [r5, #12]	@ movhi
 155              		.loc 1 211 0
 156 006c 2B88     		ldrh	r3, [r5, #0]
 157 006e 23F04003 		bic	r3, r3, #64
 158 0072 1B04     		lsls	r3, r3, #16
 159 0074 1B0C     		lsrs	r3, r3, #16
 160 0076 2B80     		strh	r3, [r5, #0]	@ movhi
 161              	.LVL18:
 162              	.L13:
 163              	.LBE31:
 164              	.LBE30:
 165              		.loc 1 281 0
 166 0078 BDE8F041 		pop	{r4, r5, r6, r7, r8, lr}
 167              		.loc 1 280 0
 168 007c FFF7FEBF 		b	_port_irq_epilogue
 169              	.LVL19:
 170              	.L45:
 171              	.LBB46:
ARM GAS  C:\DOCUME~1\ADMINI~1\LOCALS~1\Temp\ccmu8HAO.s 			page 4


 172              	.LBB45:
 173              	.LBB34:
 174              		.loc 1 188 0
 175 0080 2023     		movs	r3, #32
 176              	.LVL20:
 177              	@ 188 "../../os/hal/platforms/STM32/serial_lld.c" 1
 178 0082 83F31188 		msr     BASEPRI, r3
 179              	@ 0 "" 2
 180              	.LVL21:
 181              		.thumb
 182              	.LBE34:
 183              		.loc 1 189 0
 184 0086 3348     		ldr	r0, .L48
 185 0088 5FFA88F1 		uxtb	r1, r8
 186 008c FFF7FEFF 		bl	sdIncomingDataI
 187              	.LVL22:
 188              	.LBB35:
 189              		.loc 1 190 0
 190 0090 0023     		movs	r3, #0
 191              	@ 190 "../../os/hal/platforms/STM32/serial_lld.c" 1
 192 0092 83F31188 		msr     BASEPRI, r3
 193              	@ 0 "" 2
 194              	.LVL23:
 195              		.thumb
 196 0096 CAE7     		b	.L9
 197              	.LVL24:
 198              	.L44:
 199              	.LBE35:
 200              	.LBB36:
 201              		.loc 1 181 0
 202 0098 2023     		movs	r3, #32
 203              	.LVL25:
 204              	@ 181 "../../os/hal/platforms/STM32/serial_lld.c" 1
 205 009a 83F31188 		msr     BASEPRI, r3
 206              	@ 0 "" 2
 207              	.LVL26:
 208              		.thumb
 209              	.LBE36:
 210              		.loc 1 182 0
 211 009e B368     		ldr	r3, [r6, #8]
 212              	.LVL27:
 213 00a0 2D48     		ldr	r0, .L48+4
 214 00a2 43F40073 		orr	r3, r3, #512
 215 00a6 0021     		movs	r1, #0
 216 00a8 B360     		str	r3, [r6, #8]
 217 00aa FFF7FEFF 		bl	chEvtBroadcastFlagsI
 218              	.LVL28:
 219              	.LBB37:
 220              		.loc 1 183 0
 221 00ae 0023     		movs	r3, #0
 222              	.LVL29:
 223              	@ 183 "../../os/hal/platforms/STM32/serial_lld.c" 1
 224 00b0 83F31188 		msr     BASEPRI, r3
 225              	@ 0 "" 2
 226              	.LVL30:
 227              		.thumb
 228              	.LBE37:
ARM GAS  C:\DOCUME~1\ADMINI~1\LOCALS~1\Temp\ccmu8HAO.s 			page 5


 229              		.loc 1 184 0
 230 00b4 2B88     		ldrh	r3, [r5, #0]
 231              	.LVL31:
 232 00b6 23F48073 		bic	r3, r3, #256
 233 00ba 1B04     		lsls	r3, r3, #16
 234 00bc 1B0C     		lsrs	r3, r3, #16
 235 00be 2B80     		strh	r3, [r5, #0]	@ movhi
 236 00c0 B0E7     		b	.L8
 237              	.LVL32:
 238              	.L43:
 239              	.LBB38:
 240              	.LBB39:
 241              		.loc 1 152 0
 242 00c2 04F00802 		and	r2, r4, #8
 243 00c6 92B2     		uxth	r2, r2
 244              		.loc 1 153 0
 245 00c8 002A     		cmp	r2, #0
 246 00ca 14BF     		ite	ne
 247 00cc 8022     		movne	r2, #128
 248 00ce 0022     		moveq	r2, #0
 249              	.LVL33:
 250              		.loc 1 154 0
 251 00d0 E307     		lsls	r3, r4, #31
 252              		.loc 1 156 0
 253 00d2 04F00203 		and	r3, r4, #2
 254 00d6 9BB2     		uxth	r3, r3
 255              		.loc 1 155 0
 256 00d8 48BF     		it	mi
 257 00da 42F02002 		orrmi	r2, r2, #32
 258              	.LVL34:
 259              		.loc 1 156 0
 260 00de 0BB1     		cbz	r3, .L6
 261              		.loc 1 157 0
 262 00e0 42F04002 		orr	r2, r2, #64
 263              	.LVL35:
 264              	.L6:
 265              		.loc 1 158 0
 266 00e4 04F00403 		and	r3, r4, #4
 267 00e8 9BB2     		uxth	r3, r3
 268 00ea 0BB1     		cbz	r3, .L7
 269              		.loc 1 159 0
 270 00ec 42F48072 		orr	r2, r2, #256
 271              	.LVL36:
 272              	.L7:
 273              	.LBB40:
 274              		.loc 1 160 0
 275 00f0 2023     		movs	r3, #32
 276              	.LVL37:
 277              	@ 160 "../../os/hal/platforms/STM32/serial_lld.c" 1
 278 00f2 83F31188 		msr     BASEPRI, r3
 279              	@ 0 "" 2
 280              	.LVL38:
 281              		.thumb
 282              	.LBE40:
 283              		.loc 1 161 0
 284 00f6 B368     		ldr	r3, [r6, #8]
 285              	.LVL39:
ARM GAS  C:\DOCUME~1\ADMINI~1\LOCALS~1\Temp\ccmu8HAO.s 			page 6


 286 00f8 1748     		ldr	r0, .L48+4
 287 00fa 1A43     		orrs	r2, r2, r3
 288              	.LVL40:
 289 00fc 0021     		movs	r1, #0
 290              	.LVL41:
 291 00fe B260     		str	r2, [r6, #8]
 292 0100 FFF7FEFF 		bl	chEvtBroadcastFlagsI
 293              	.LVL42:
 294              	.LBB41:
 295              		.loc 1 162 0
 296 0104 0023     		movs	r3, #0
 297              	@ 162 "../../os/hal/platforms/STM32/serial_lld.c" 1
 298 0106 83F31188 		msr     BASEPRI, r3
 299              	@ 0 "" 2
 300              	.LVL43:
 301              		.thumb
 302 010a 86E7     		b	.L3
 303              	.LVL44:
 304              	.L46:
 305              	.LBE41:
 306              	.LBE39:
 307              	.LBE38:
 308              	.LBB42:
 309              	.LBB43:
 310              		.loc 1 195 0
 311 010c 2023     		movs	r3, #32
 312              	.LVL45:
 313              	@ 195 "../../os/hal/platforms/STM32/serial_lld.c" 1
 314 010e 83F31188 		msr     BASEPRI, r3
 315              	@ 0 "" 2
 316              	.LVL46:
 317              		.thumb
 318              	.LBE43:
 319              		.loc 1 196 0
 320 0112 DFF84080 		ldr	r8, .L48
 321              	.LVL47:
 322 0116 08F13000 		add	r0, r8, #48
 323 011a FFF7FEFF 		bl	chOQGetI
 324              	.LVL48:
 325              		.loc 1 197 0
 326 011e 0028     		cmp	r0, #0
 327              		.loc 1 202 0
 328 0120 A4BF     		itt	ge
 329 0122 80B2     		uxthge	r0, r0
 330              	.LVL49:
 331 0124 A880     		strhge	r0, [r5, #4]	@ movhi
 332              		.loc 1 197 0
 333 0126 03DB     		blt	.L47
 334              	.L12:
 335              	.LBB44:
 336              		.loc 1 203 0
 337 0128 0023     		movs	r3, #0
 338              	@ 203 "../../os/hal/platforms/STM32/serial_lld.c" 1
 339 012a 83F31188 		msr     BASEPRI, r3
 340              	@ 0 "" 2
 341              	.LVL50:
 342              		.thumb
ARM GAS  C:\DOCUME~1\ADMINI~1\LOCALS~1\Temp\ccmu8HAO.s 			page 7


 343 012e 87E7     		b	.L10
 344              	.LVL51:
 345              	.L47:
 346              	.LBE44:
 347              		.loc 1 198 0
 348 0130 D8F80830 		ldr	r3, [r8, #8]
 349 0134 08F10400 		add	r0, r8, #4
 350 0138 43F00803 		orr	r3, r3, #8
 351 013c 0021     		movs	r1, #0
 352 013e C8F80830 		str	r3, [r8, #8]
 353 0142 FFF7FEFF 		bl	chEvtBroadcastFlagsI
 354              	.LVL52:
 355              		.loc 1 199 0
 356 0146 27F0C003 		bic	r3, r7, #192
 357 014a 43F04003 		orr	r3, r3, #64
 358 014e AB81     		strh	r3, [r5, #12]	@ movhi
 359 0150 EAE7     		b	.L12
 360              	.L49:
 361 0152 00BF     		.align	2
 362              	.L48:
 363 0154 00000000 		.word	.LANCHOR0
 364 0158 04000000 		.word	.LANCHOR0+4
 365              	.LBE42:
 366              	.LBE45:
 367              	.LBE46:
 368              		.cfi_endproc
 369              	.LFE67:
 370              		.size	VectorD4, .-VectorD4
 371              		.section	.text.sd_lld_init,"ax",%progbits
 372              		.align	2
 373              		.global	sd_lld_init
 374              		.thumb
 375              		.thumb_func
 376              		.type	sd_lld_init, %function
 377              	sd_lld_init:
 378              	.LFB68:
 379              		.loc 1 373 0
 380              		.cfi_startproc
 381              		@ args = 0, pretend = 0, frame = 0
 382              		@ frame_needed = 0, uses_anonymous_args = 0
 383 0000 10B5     		push	{r4, lr}
 384              	.LCFI1:
 385              		.cfi_def_cfa_offset 8
 386              		.cfi_offset 4, -8
 387              		.cfi_offset 14, -4
 388              		.loc 1 376 0
 389 0002 40F20004 		movw	r4, #:lower16:.LANCHOR0
 390 0006 C0F20004 		movt	r4, #:upper16:.LANCHOR0
 391 000a 40F20002 		movw	r2, #:lower16:notify1
 392 000e 2046     		mov	r0, r4
 393 0010 0021     		movs	r1, #0
 394 0012 C0F20002 		movt	r2, #:upper16:notify1
 395 0016 FFF7FEFF 		bl	sdObjectInit
 396              	.LVL53:
 397              		.loc 1 377 0
 398 001a 4FF46053 		mov	r3, #14336
 399 001e C4F20103 		movt	r3, 16385
ARM GAS  C:\DOCUME~1\ADMINI~1\LOCALS~1\Temp\ccmu8HAO.s 			page 8


 400 0022 2367     		str	r3, [r4, #112]
 401 0024 10BD     		pop	{r4, pc}
 402              		.cfi_endproc
 403              	.LFE68:
 404              		.size	sd_lld_init, .-sd_lld_init
 405 0026 00BF     		.section	.text.sd_lld_start,"ax",%progbits
 406              		.align	2
 407              		.global	sd_lld_start
 408              		.thumb
 409              		.thumb_func
 410              		.type	sd_lld_start, %function
 411              	sd_lld_start:
 412              	.LFB69:
 413              		.loc 1 416 0
 414              		.cfi_startproc
 415              		@ args = 0, pretend = 0, frame = 0
 416              		@ frame_needed = 0, uses_anonymous_args = 0
 417              	.LVL54:
 418 0000 38B5     		push	{r3, r4, r5, lr}
 419              	.LCFI2:
 420              		.cfi_def_cfa_offset 16
 421              		.cfi_offset 3, -16
 422              		.cfi_offset 4, -12
 423              		.cfi_offset 5, -8
 424              		.cfi_offset 14, -4
 425              		.loc 1 421 0
 426 0002 037B     		ldrb	r3, [r0, #12]	@ zero_extendqisi2
 427              		.loc 1 419 0
 428 0004 1B4C     		ldr	r4, .L58
 429              		.loc 1 416 0
 430 0006 0546     		mov	r5, r0
 431              		.loc 1 419 0
 432 0008 0029     		cmp	r1, #0
 433 000a 18BF     		it	ne
 434 000c 0C46     		movne	r4, r1
 435              	.LVL55:
 436              		.loc 1 421 0
 437 000e 012B     		cmp	r3, #1
 438 0010 1FD0     		beq	.L57
 439              	.LVL56:
 440              	.L53:
 441              	.LBB49:
 442              	.LBB50:
 443              		.loc 1 110 0
 444 0012 2168     		ldr	r1, [r4, #0]
 445 0014 4FF49042 		mov	r2, #18432
 446 0018 C0F2E812 		movt	r2, 488
 447              		.loc 1 100 0
 448 001c 2B6F     		ldr	r3, [r5, #112]
 449              	.LVL57:
 450              		.loc 1 110 0
 451 001e B2FBF1F2 		udiv	r2, r2, r1
 452 0022 92B2     		uxth	r2, r2
 453 0024 1A81     		strh	r2, [r3, #8]	@ movhi
 454              		.loc 1 117 0
 455 0026 A288     		ldrh	r2, [r4, #4]
 456              		.loc 1 120 0
ARM GAS  C:\DOCUME~1\ADMINI~1\LOCALS~1\Temp\ccmu8HAO.s 			page 9


 457 0028 E088     		ldrh	r0, [r4, #6]
 458              		.loc 1 121 0
 459 002a 2189     		ldrh	r1, [r4, #8]
 460              		.loc 1 117 0
 461 002c 42F40452 		orr	r2, r2, #8448
 462 0030 42F02C02 		orr	r2, r2, #44
 463 0034 92B2     		uxth	r2, r2
 464              		.loc 1 120 0
 465 0036 40F04000 		orr	r0, r0, #64
 466              		.loc 1 121 0
 467 003a 41F00101 		orr	r1, r1, #1
 468              		.loc 1 117 0
 469 003e 9A81     		strh	r2, [r3, #12]	@ movhi
 470              		.loc 1 120 0
 471 0040 80B2     		uxth	r0, r0
 472              		.loc 1 122 0
 473 0042 0022     		movs	r2, #0
 474              		.loc 1 121 0
 475 0044 89B2     		uxth	r1, r1
 476              		.loc 1 120 0
 477 0046 1882     		strh	r0, [r3, #16]	@ movhi
 478              		.loc 1 121 0
 479 0048 9982     		strh	r1, [r3, #20]	@ movhi
 480              		.loc 1 122 0
 481 004a 1A80     		strh	r2, [r3, #0]	@ movhi
 482              		.loc 1 123 0
 483 004c 1A88     		ldrh	r2, [r3, #0]
 484              		.loc 1 124 0
 485 004e 9B88     		ldrh	r3, [r3, #4]
 486              	.LVL58:
 487 0050 38BD     		pop	{r3, r4, r5, pc}
 488              	.LVL59:
 489              	.L57:
 490              	.LBE50:
 491              	.LBE49:
 492              		.loc 1 423 0
 493 0052 094B     		ldr	r3, .L58+4
 494 0054 9842     		cmp	r0, r3
 495 0056 DCD1     		bne	.L53
 496              		.loc 1 424 0
 497 0058 4FF46053 		mov	r3, #14336
 498 005c C4F20203 		movt	r3, 16386
 499 0060 1A6A     		ldr	r2, [r3, #32]
 500              		.loc 1 425 0
 501 0062 2520     		movs	r0, #37
 502              	.LVL60:
 503              		.loc 1 424 0
 504 0064 42F48042 		orr	r2, r2, #16384
 505 0068 1A62     		str	r2, [r3, #32]
 506              		.loc 1 425 0
 507 006a C021     		movs	r1, #192
 508 006c FFF7FEFF 		bl	nvicEnableVector
 509              	.LVL61:
 510 0070 CFE7     		b	.L53
 511              	.L59:
 512 0072 00BF     		.align	2
 513              	.L58:
ARM GAS  C:\DOCUME~1\ADMINI~1\LOCALS~1\Temp\ccmu8HAO.s 			page 10


 514 0074 00000000 		.word	.LANCHOR1
 515 0078 00000000 		.word	.LANCHOR0
 516              		.cfi_endproc
 517              	.LFE69:
 518              		.size	sd_lld_start, .-sd_lld_start
 519              		.section	.text.sd_lld_stop,"ax",%progbits
 520              		.align	2
 521              		.global	sd_lld_stop
 522              		.thumb
 523              		.thumb_func
 524              		.type	sd_lld_stop, %function
 525              	sd_lld_stop:
 526              	.LFB70:
 527              		.loc 1 477 0
 528              		.cfi_startproc
 529              		@ args = 0, pretend = 0, frame = 0
 530              		@ frame_needed = 0, uses_anonymous_args = 0
 531              		@ link register save eliminated.
 532              	.LVL62:
 533              		.loc 1 479 0
 534 0000 037B     		ldrb	r3, [r0, #12]	@ zero_extendqisi2
 535 0002 022B     		cmp	r3, #2
 536 0004 00D0     		beq	.L64
 537              	.L60:
 538 0006 7047     		bx	lr
 539              	.L64:
 540              		.loc 1 480 0
 541 0008 036F     		ldr	r3, [r0, #112]
 542              	.LVL63:
 543              	.LBB51:
 544              	.LBB52:
 545              		.loc 1 135 0
 546 000a 0022     		movs	r2, #0
 547 000c 9A81     		strh	r2, [r3, #12]	@ movhi
 548              		.loc 1 136 0
 549 000e 1A82     		strh	r2, [r3, #16]	@ movhi
 550              		.loc 1 137 0
 551 0010 9A82     		strh	r2, [r3, #20]	@ movhi
 552              	.LBE52:
 553              	.LBE51:
 554              		.loc 1 482 0
 555 0012 074B     		ldr	r3, .L65
 556              	.LVL64:
 557 0014 9842     		cmp	r0, r3
 558 0016 F6D1     		bne	.L60
 559              		.loc 1 483 0
 560 0018 4FF46053 		mov	r3, #14336
 561 001c C4F20203 		movt	r3, 16386
 562 0020 1A6A     		ldr	r2, [r3, #32]
 563              		.loc 1 484 0
 564 0022 2520     		movs	r0, #37
 565              	.LVL65:
 566              		.loc 1 483 0
 567 0024 22F48042 		bic	r2, r2, #16384
 568 0028 1A62     		str	r2, [r3, #32]
 569              		.loc 1 524 0
 570              		.loc 1 484 0
ARM GAS  C:\DOCUME~1\ADMINI~1\LOCALS~1\Temp\ccmu8HAO.s 			page 11


 571 002a FFF7FEBF 		b	nvicDisableVector
 572              	.LVL66:
 573              	.L66:
 574 002e 00BF     		.align	2
 575              	.L65:
 576 0030 00000000 		.word	.LANCHOR0
 577              		.cfi_endproc
 578              	.LFE70:
 579              		.size	sd_lld_stop, .-sd_lld_stop
 580              		.global	SD1
 581              		.section	.rodata.default_config,"a",%progbits
 582              		.align	2
 583              		.set	.LANCHOR1,. + 0
 584              		.type	default_config, %object
 585              		.size	default_config, 12
 586              	default_config:
 587 0000 00960000 		.word	38400
 588 0004 0000     		.short	0
 589 0006 0040     		.short	16384
 590 0008 0000     		.short	0
 591 000a 0000     		.space	2
 592              		.section	.bss.SD1,"aw",%nobits
 593              		.align	2
 594              		.set	.LANCHOR0,. + 0
 595              		.type	SD1, %object
 596              		.size	SD1, 116
 597              	SD1:
 598 0000 00000000 		.space	116
 598      00000000 
 598      00000000 
 598      00000000 
 598      00000000 
 599              		.text
 600              	.Letext0:
 601              		.file 2 "c:\\program files\\yagarto\\bin\\../lib/gcc/arm-none-eabi/4.7.1/include/stddef.h"
 602              		.file 3 "c:/program files/yagarto/lib/gcc/../../arm-none-eabi/sys-include/stdint.h"
 603              		.file 4 "../../os/ports/GCC/ARMCMx/chtypes.h"
 604              		.file 5 "../../os/kernel/include/chlists.h"
 605              		.file 6 "../../os/kernel/include/chthreads.h"
 606              		.file 7 "../../os/ports/GCC/ARMCMx/chcore_v7m.h"
 607              		.file 8 "../../os/kernel/include/chmtx.h"
 608              		.file 9 "../../os/kernel/include/chevents.h"
 609              		.file 10 "../../os/kernel/include/chqueues.h"
 610              		.file 11 "../../os/kernel/include/chioch.h"
 611              		.file 12 "../../os/hal/platforms/STM32L1xx/stm32l1xx.h"
 612              		.file 13 "../../os/hal/include/serial.h"
 613              		.file 14 "../../os/hal/platforms/STM32/serial_lld.h"
 614              		.file 15 "../../os/ports/common/ARMCMx/nvic.h"
 615              		.file 16 "../../os/ports/common/ARMCMx/CMSIS/include/core_cm3.h"
 616              		.section	.debug_info,"",%progbits
 617              	.Ldebug_info0:
 618 0000 AC100000 		.4byte	0x10ac
 619 0004 0200     		.2byte	0x2
 620 0006 00000000 		.4byte	.Ldebug_abbrev0
 621 000a 04       		.byte	0x4
 622 000b 01       		.uleb128 0x1
 623 000c 5A020000 		.4byte	.LASF187
ARM GAS  C:\DOCUME~1\ADMINI~1\LOCALS~1\Temp\ccmu8HAO.s 			page 12


 624 0010 01       		.byte	0x1
 625 0011 33010000 		.4byte	.LASF188
 626 0015 64010000 		.4byte	.LASF189
 627 0019 30000000 		.4byte	.Ldebug_ranges0+0x30
 628 001d 00000000 		.4byte	0
 629 0021 00000000 		.4byte	0
 630 0025 00000000 		.4byte	.Ldebug_line0
 631 0029 02       		.uleb128 0x2
 632 002a 04       		.byte	0x4
 633 002b 05       		.byte	0x5
 634 002c 696E7400 		.ascii	"int\000"
 635 0030 03       		.uleb128 0x3
 636 0031 05030000 		.4byte	.LASF2
 637 0035 02       		.byte	0x2
 638 0036 D5       		.byte	0xd5
 639 0037 3B000000 		.4byte	0x3b
 640 003b 04       		.uleb128 0x4
 641 003c 04       		.byte	0x4
 642 003d 07       		.byte	0x7
 643 003e E9000000 		.4byte	.LASF0
 644 0042 04       		.uleb128 0x4
 645 0043 01       		.byte	0x1
 646 0044 06       		.byte	0x6
 647 0045 E8070000 		.4byte	.LASF1
 648 0049 03       		.uleb128 0x3
 649 004a 3B040000 		.4byte	.LASF3
 650 004e 03       		.byte	0x3
 651 004f 2A       		.byte	0x2a
 652 0050 54000000 		.4byte	0x54
 653 0054 04       		.uleb128 0x4
 654 0055 01       		.byte	0x1
 655 0056 08       		.byte	0x8
 656 0057 75070000 		.4byte	.LASF4
 657 005b 04       		.uleb128 0x4
 658 005c 02       		.byte	0x2
 659 005d 05       		.byte	0x5
 660 005e 23060000 		.4byte	.LASF5
 661 0062 03       		.uleb128 0x3
 662 0063 7D050000 		.4byte	.LASF6
 663 0067 03       		.byte	0x3
 664 0068 36       		.byte	0x36
 665 0069 6D000000 		.4byte	0x6d
 666 006d 04       		.uleb128 0x4
 667 006e 02       		.byte	0x2
 668 006f 07       		.byte	0x7
 669 0070 09080000 		.4byte	.LASF7
 670 0074 03       		.uleb128 0x3
 671 0075 39070000 		.4byte	.LASF8
 672 0079 03       		.byte	0x3
 673 007a 4F       		.byte	0x4f
 674 007b 7F000000 		.4byte	0x7f
 675 007f 04       		.uleb128 0x4
 676 0080 04       		.byte	0x4
 677 0081 05       		.byte	0x5
 678 0082 51060000 		.4byte	.LASF9
 679 0086 03       		.uleb128 0x3
 680 0087 2B020000 		.4byte	.LASF10
ARM GAS  C:\DOCUME~1\ADMINI~1\LOCALS~1\Temp\ccmu8HAO.s 			page 13


 681 008b 03       		.byte	0x3
 682 008c 50       		.byte	0x50
 683 008d 91000000 		.4byte	0x91
 684 0091 04       		.uleb128 0x4
 685 0092 04       		.byte	0x4
 686 0093 07       		.byte	0x7
 687 0094 1D070000 		.4byte	.LASF11
 688 0098 04       		.uleb128 0x4
 689 0099 08       		.byte	0x8
 690 009a 05       		.byte	0x5
 691 009b 6F040000 		.4byte	.LASF12
 692 009f 04       		.uleb128 0x4
 693 00a0 08       		.byte	0x8
 694 00a1 07       		.byte	0x7
 695 00a2 B3020000 		.4byte	.LASF13
 696 00a6 03       		.uleb128 0x3
 697 00a7 00000000 		.4byte	.LASF14
 698 00ab 03       		.byte	0x3
 699 00ac A6       		.byte	0xa6
 700 00ad 3B000000 		.4byte	0x3b
 701 00b1 03       		.uleb128 0x3
 702 00b2 1F030000 		.4byte	.LASF15
 703 00b6 04       		.byte	0x4
 704 00b7 2E       		.byte	0x2e
 705 00b8 74000000 		.4byte	0x74
 706 00bc 03       		.uleb128 0x3
 707 00bd 4E050000 		.4byte	.LASF16
 708 00c1 04       		.byte	0x4
 709 00c2 2F       		.byte	0x2f
 710 00c3 49000000 		.4byte	0x49
 711 00c7 03       		.uleb128 0x3
 712 00c8 06040000 		.4byte	.LASF17
 713 00cc 04       		.byte	0x4
 714 00cd 30       		.byte	0x30
 715 00ce 49000000 		.4byte	0x49
 716 00d2 03       		.uleb128 0x3
 717 00d3 07070000 		.4byte	.LASF18
 718 00d7 04       		.byte	0x4
 719 00d8 31       		.byte	0x31
 720 00d9 49000000 		.4byte	0x49
 721 00dd 03       		.uleb128 0x3
 722 00de 76020000 		.4byte	.LASF19
 723 00e2 04       		.byte	0x4
 724 00e3 32       		.byte	0x32
 725 00e4 86000000 		.4byte	0x86
 726 00e8 03       		.uleb128 0x3
 727 00e9 A0040000 		.4byte	.LASF20
 728 00ed 04       		.byte	0x4
 729 00ee 33       		.byte	0x33
 730 00ef 74000000 		.4byte	0x74
 731 00f3 03       		.uleb128 0x3
 732 00f4 46020000 		.4byte	.LASF21
 733 00f8 04       		.byte	0x4
 734 00f9 35       		.byte	0x35
 735 00fa 86000000 		.4byte	0x86
 736 00fe 03       		.uleb128 0x3
 737 00ff AF000000 		.4byte	.LASF22
ARM GAS  C:\DOCUME~1\ADMINI~1\LOCALS~1\Temp\ccmu8HAO.s 			page 14


 738 0103 04       		.byte	0x4
 739 0104 36       		.byte	0x36
 740 0105 86000000 		.4byte	0x86
 741 0109 03       		.uleb128 0x3
 742 010a FF030000 		.4byte	.LASF23
 743 010e 05       		.byte	0x5
 744 010f 2A       		.byte	0x2a
 745 0110 14010000 		.4byte	0x114
 746 0114 05       		.uleb128 0x5
 747 0115 FF030000 		.4byte	.LASF23
 748 0119 48       		.byte	0x48
 749 011a 06       		.byte	0x6
 750 011b 5E       		.byte	0x5e
 751 011c 2B020000 		.4byte	0x22b
 752 0120 06       		.uleb128 0x6
 753 0121 95060000 		.4byte	.LASF24
 754 0125 06       		.byte	0x6
 755 0126 5F       		.byte	0x5f
 756 0127 50020000 		.4byte	0x250
 757 012b 02       		.byte	0x2
 758 012c 23       		.byte	0x23
 759 012d 00       		.uleb128 0
 760 012e 06       		.uleb128 0x6
 761 012f F7060000 		.4byte	.LASF25
 762 0133 06       		.byte	0x6
 763 0134 61       		.byte	0x61
 764 0135 50020000 		.4byte	0x250
 765 0139 02       		.byte	0x2
 766 013a 23       		.byte	0x23
 767 013b 04       		.uleb128 0x4
 768 013c 06       		.uleb128 0x6
 769 013d 54000000 		.4byte	.LASF26
 770 0141 06       		.byte	0x6
 771 0142 63       		.byte	0x63
 772 0143 DD000000 		.4byte	0xdd
 773 0147 02       		.byte	0x2
 774 0148 23       		.byte	0x23
 775 0149 08       		.uleb128 0x8
 776 014a 06       		.uleb128 0x6
 777 014b 9C060000 		.4byte	.LASF27
 778 014f 06       		.byte	0x6
 779 0150 64       		.byte	0x64
 780 0151 1D030000 		.4byte	0x31d
 781 0155 02       		.byte	0x2
 782 0156 23       		.byte	0x23
 783 0157 0C       		.uleb128 0xc
 784 0158 06       		.uleb128 0x6
 785 0159 DD020000 		.4byte	.LASF28
 786 015d 06       		.byte	0x6
 787 015e 66       		.byte	0x66
 788 015f 50020000 		.4byte	0x250
 789 0163 02       		.byte	0x2
 790 0164 23       		.byte	0x23
 791 0165 10       		.uleb128 0x10
 792 0166 06       		.uleb128 0x6
 793 0167 2B040000 		.4byte	.LASF29
 794 016b 06       		.byte	0x6
ARM GAS  C:\DOCUME~1\ADMINI~1\LOCALS~1\Temp\ccmu8HAO.s 			page 15


 795 016c 67       		.byte	0x67
 796 016d 50020000 		.4byte	0x250
 797 0171 02       		.byte	0x2
 798 0172 23       		.byte	0x23
 799 0173 14       		.uleb128 0x14
 800 0174 06       		.uleb128 0x6
 801 0175 7C030000 		.4byte	.LASF30
 802 0179 06       		.byte	0x6
 803 017a 6E       		.byte	0x6e
 804 017b 3C040000 		.4byte	0x43c
 805 017f 02       		.byte	0x2
 806 0180 23       		.byte	0x23
 807 0181 18       		.uleb128 0x18
 808 0182 06       		.uleb128 0x6
 809 0183 33040000 		.4byte	.LASF31
 810 0187 06       		.byte	0x6
 811 0188 79       		.byte	0x79
 812 0189 C7000000 		.4byte	0xc7
 813 018d 02       		.byte	0x2
 814 018e 23       		.byte	0x23
 815 018f 1C       		.uleb128 0x1c
 816 0190 06       		.uleb128 0x6
 817 0191 BA040000 		.4byte	.LASF32
 818 0195 06       		.byte	0x6
 819 0196 7D       		.byte	0x7d
 820 0197 BC000000 		.4byte	0xbc
 821 019b 02       		.byte	0x2
 822 019c 23       		.byte	0x23
 823 019d 1D       		.uleb128 0x1d
 824 019e 06       		.uleb128 0x6
 825 019f 83070000 		.4byte	.LASF33
 826 01a3 06       		.byte	0x6
 827 01a4 82       		.byte	0x82
 828 01a5 D2000000 		.4byte	0xd2
 829 01a9 02       		.byte	0x2
 830 01aa 23       		.byte	0x23
 831 01ab 1E       		.uleb128 0x1e
 832 01ac 06       		.uleb128 0x6
 833 01ad 44000000 		.4byte	.LASF34
 834 01b1 06       		.byte	0x6
 835 01b2 89       		.byte	0x89
 836 01b3 4C030000 		.4byte	0x34c
 837 01b7 02       		.byte	0x2
 838 01b8 23       		.byte	0x23
 839 01b9 20       		.uleb128 0x20
 840 01ba 07       		.uleb128 0x7
 841 01bb 705F7500 		.ascii	"p_u\000"
 842 01bf 06       		.byte	0x6
 843 01c0 AE       		.byte	0xae
 844 01c1 07040000 		.4byte	0x407
 845 01c5 02       		.byte	0x2
 846 01c6 23       		.byte	0x23
 847 01c7 24       		.uleb128 0x24
 848 01c8 06       		.uleb128 0x6
 849 01c9 25000000 		.4byte	.LASF35
 850 01cd 06       		.byte	0x6
 851 01ce B3       		.byte	0xb3
ARM GAS  C:\DOCUME~1\ADMINI~1\LOCALS~1\Temp\ccmu8HAO.s 			page 16


 852 01cf 78020000 		.4byte	0x278
 853 01d3 02       		.byte	0x2
 854 01d4 23       		.byte	0x23
 855 01d5 28       		.uleb128 0x28
 856 01d6 06       		.uleb128 0x6
 857 01d7 DE000000 		.4byte	.LASF36
 858 01db 06       		.byte	0x6
 859 01dc B9       		.byte	0xb9
 860 01dd 56020000 		.4byte	0x256
 861 01e1 02       		.byte	0x2
 862 01e2 23       		.byte	0x23
 863 01e3 2C       		.uleb128 0x2c
 864 01e4 06       		.uleb128 0x6
 865 01e5 48050000 		.4byte	.LASF37
 866 01e9 06       		.byte	0x6
 867 01ea BD       		.byte	0xbd
 868 01eb E8000000 		.4byte	0xe8
 869 01ef 02       		.byte	0x2
 870 01f0 23       		.byte	0x23
 871 01f1 34       		.uleb128 0x34
 872 01f2 06       		.uleb128 0x6
 873 01f3 3E060000 		.4byte	.LASF38
 874 01f7 06       		.byte	0x6
 875 01f8 C3       		.byte	0xc3
 876 01f9 F3000000 		.4byte	0xf3
 877 01fd 02       		.byte	0x2
 878 01fe 23       		.byte	0x23
 879 01ff 38       		.uleb128 0x38
 880 0200 06       		.uleb128 0x6
 881 0201 4B040000 		.4byte	.LASF39
 882 0205 06       		.byte	0x6
 883 0206 CA       		.byte	0xca
 884 0207 4E040000 		.4byte	0x44e
 885 020b 02       		.byte	0x2
 886 020c 23       		.byte	0x23
 887 020d 3C       		.uleb128 0x3c
 888 020e 06       		.uleb128 0x6
 889 020f DC050000 		.4byte	.LASF40
 890 0213 06       		.byte	0x6
 891 0214 CE       		.byte	0xce
 892 0215 DD000000 		.4byte	0xdd
 893 0219 02       		.byte	0x2
 894 021a 23       		.byte	0x23
 895 021b 40       		.uleb128 0x40
 896 021c 06       		.uleb128 0x6
 897 021d 43040000 		.4byte	.LASF41
 898 0221 06       		.byte	0x6
 899 0222 D4       		.byte	0xd4
 900 0223 8E020000 		.4byte	0x28e
 901 0227 02       		.byte	0x2
 902 0228 23       		.byte	0x23
 903 0229 44       		.uleb128 0x44
 904 022a 00       		.byte	0
 905 022b 08       		.uleb128 0x8
 906 022c 08       		.byte	0x8
 907 022d 05       		.byte	0x5
 908 022e 61       		.byte	0x61
ARM GAS  C:\DOCUME~1\ADMINI~1\LOCALS~1\Temp\ccmu8HAO.s 			page 17


 909 022f 50020000 		.4byte	0x250
 910 0233 06       		.uleb128 0x6
 911 0234 95060000 		.4byte	.LASF24
 912 0238 05       		.byte	0x5
 913 0239 62       		.byte	0x62
 914 023a 50020000 		.4byte	0x250
 915 023e 02       		.byte	0x2
 916 023f 23       		.byte	0x23
 917 0240 00       		.uleb128 0
 918 0241 06       		.uleb128 0x6
 919 0242 F7060000 		.4byte	.LASF25
 920 0246 05       		.byte	0x5
 921 0247 64       		.byte	0x64
 922 0248 50020000 		.4byte	0x250
 923 024c 02       		.byte	0x2
 924 024d 23       		.byte	0x23
 925 024e 04       		.uleb128 0x4
 926 024f 00       		.byte	0
 927 0250 09       		.uleb128 0x9
 928 0251 04       		.byte	0x4
 929 0252 09010000 		.4byte	0x109
 930 0256 03       		.uleb128 0x3
 931 0257 B5030000 		.4byte	.LASF42
 932 025b 05       		.byte	0x5
 933 025c 66       		.byte	0x66
 934 025d 2B020000 		.4byte	0x22b
 935 0261 08       		.uleb128 0x8
 936 0262 04       		.byte	0x4
 937 0263 05       		.byte	0x5
 938 0264 6B       		.byte	0x6b
 939 0265 78020000 		.4byte	0x278
 940 0269 06       		.uleb128 0x6
 941 026a 95060000 		.4byte	.LASF24
 942 026e 05       		.byte	0x5
 943 026f 6D       		.byte	0x6d
 944 0270 50020000 		.4byte	0x250
 945 0274 02       		.byte	0x2
 946 0275 23       		.byte	0x23
 947 0276 00       		.uleb128 0
 948 0277 00       		.byte	0
 949 0278 03       		.uleb128 0x3
 950 0279 19000000 		.4byte	.LASF43
 951 027d 05       		.byte	0x5
 952 027e 70       		.byte	0x70
 953 027f 61020000 		.4byte	0x261
 954 0283 03       		.uleb128 0x3
 955 0284 4B000000 		.4byte	.LASF44
 956 0288 07       		.byte	0x7
 957 0289 D7       		.byte	0xd7
 958 028a 8E020000 		.4byte	0x28e
 959 028e 0A       		.uleb128 0xa
 960 028f 04       		.byte	0x4
 961 0290 05       		.uleb128 0x5
 962 0291 98050000 		.4byte	.LASF45
 963 0295 24       		.byte	0x24
 964 0296 07       		.byte	0x7
 965 0297 FE       		.byte	0xfe
ARM GAS  C:\DOCUME~1\ADMINI~1\LOCALS~1\Temp\ccmu8HAO.s 			page 18


 966 0298 1D030000 		.4byte	0x31d
 967 029c 0B       		.uleb128 0xb
 968 029d 723400   		.ascii	"r4\000"
 969 02a0 07       		.byte	0x7
 970 02a1 1101     		.2byte	0x111
 971 02a3 83020000 		.4byte	0x283
 972 02a7 02       		.byte	0x2
 973 02a8 23       		.byte	0x23
 974 02a9 00       		.uleb128 0
 975 02aa 0B       		.uleb128 0xb
 976 02ab 723500   		.ascii	"r5\000"
 977 02ae 07       		.byte	0x7
 978 02af 1201     		.2byte	0x112
 979 02b1 83020000 		.4byte	0x283
 980 02b5 02       		.byte	0x2
 981 02b6 23       		.byte	0x23
 982 02b7 04       		.uleb128 0x4
 983 02b8 0B       		.uleb128 0xb
 984 02b9 723600   		.ascii	"r6\000"
 985 02bc 07       		.byte	0x7
 986 02bd 1301     		.2byte	0x113
 987 02bf 83020000 		.4byte	0x283
 988 02c3 02       		.byte	0x2
 989 02c4 23       		.byte	0x23
 990 02c5 08       		.uleb128 0x8
 991 02c6 0B       		.uleb128 0xb
 992 02c7 723700   		.ascii	"r7\000"
 993 02ca 07       		.byte	0x7
 994 02cb 1401     		.2byte	0x114
 995 02cd 83020000 		.4byte	0x283
 996 02d1 02       		.byte	0x2
 997 02d2 23       		.byte	0x23
 998 02d3 0C       		.uleb128 0xc
 999 02d4 0B       		.uleb128 0xb
 1000 02d5 723800   		.ascii	"r8\000"
 1001 02d8 07       		.byte	0x7
 1002 02d9 1501     		.2byte	0x115
 1003 02db 83020000 		.4byte	0x283
 1004 02df 02       		.byte	0x2
 1005 02e0 23       		.byte	0x23
 1006 02e1 10       		.uleb128 0x10
 1007 02e2 0B       		.uleb128 0xb
 1008 02e3 723900   		.ascii	"r9\000"
 1009 02e6 07       		.byte	0x7
 1010 02e7 1601     		.2byte	0x116
 1011 02e9 83020000 		.4byte	0x283
 1012 02ed 02       		.byte	0x2
 1013 02ee 23       		.byte	0x23
 1014 02ef 14       		.uleb128 0x14
 1015 02f0 0B       		.uleb128 0xb
 1016 02f1 72313000 		.ascii	"r10\000"
 1017 02f5 07       		.byte	0x7
 1018 02f6 1701     		.2byte	0x117
 1019 02f8 83020000 		.4byte	0x283
 1020 02fc 02       		.byte	0x2
 1021 02fd 23       		.byte	0x23
 1022 02fe 18       		.uleb128 0x18
ARM GAS  C:\DOCUME~1\ADMINI~1\LOCALS~1\Temp\ccmu8HAO.s 			page 19


 1023 02ff 0B       		.uleb128 0xb
 1024 0300 72313100 		.ascii	"r11\000"
 1025 0304 07       		.byte	0x7
 1026 0305 1801     		.2byte	0x118
 1027 0307 83020000 		.4byte	0x283
 1028 030b 02       		.byte	0x2
 1029 030c 23       		.byte	0x23
 1030 030d 1C       		.uleb128 0x1c
 1031 030e 0B       		.uleb128 0xb
 1032 030f 6C7200   		.ascii	"lr\000"
 1033 0312 07       		.byte	0x7
 1034 0313 1901     		.2byte	0x119
 1035 0315 83020000 		.4byte	0x283
 1036 0319 02       		.byte	0x2
 1037 031a 23       		.byte	0x23
 1038 031b 20       		.uleb128 0x20
 1039 031c 00       		.byte	0
 1040 031d 0C       		.uleb128 0xc
 1041 031e B2040000 		.4byte	.LASF46
 1042 0322 04       		.byte	0x4
 1043 0323 07       		.byte	0x7
 1044 0324 2301     		.2byte	0x123
 1045 0326 3A030000 		.4byte	0x33a
 1046 032a 0B       		.uleb128 0xb
 1047 032b 72313300 		.ascii	"r13\000"
 1048 032f 07       		.byte	0x7
 1049 0330 2401     		.2byte	0x124
 1050 0332 3A030000 		.4byte	0x33a
 1051 0336 02       		.byte	0x2
 1052 0337 23       		.byte	0x23
 1053 0338 00       		.uleb128 0
 1054 0339 00       		.byte	0
 1055 033a 09       		.uleb128 0x9
 1056 033b 04       		.byte	0x4
 1057 033c 90020000 		.4byte	0x290
 1058 0340 0D       		.uleb128 0xd
 1059 0341 86000000 		.4byte	0x86
 1060 0345 04       		.uleb128 0x4
 1061 0346 04       		.byte	0x4
 1062 0347 07       		.byte	0x7
 1063 0348 FE060000 		.4byte	.LASF47
 1064 034c 0D       		.uleb128 0xd
 1065 034d FE000000 		.4byte	0xfe
 1066 0351 05       		.uleb128 0x5
 1067 0352 56030000 		.4byte	.LASF48
 1068 0356 10       		.byte	0x10
 1069 0357 08       		.byte	0x8
 1070 0358 2C       		.byte	0x2c
 1071 0359 88030000 		.4byte	0x388
 1072 035d 06       		.uleb128 0x6
 1073 035e 49060000 		.4byte	.LASF49
 1074 0362 08       		.byte	0x8
 1075 0363 2D       		.byte	0x2d
 1076 0364 56020000 		.4byte	0x256
 1077 0368 02       		.byte	0x2
 1078 0369 23       		.byte	0x23
 1079 036a 00       		.uleb128 0
ARM GAS  C:\DOCUME~1\ADMINI~1\LOCALS~1\Temp\ccmu8HAO.s 			page 20


 1080 036b 06       		.uleb128 0x6
 1081 036c B9000000 		.4byte	.LASF50
 1082 0370 08       		.byte	0x8
 1083 0371 2F       		.byte	0x2f
 1084 0372 50020000 		.4byte	0x250
 1085 0376 02       		.byte	0x2
 1086 0377 23       		.byte	0x23
 1087 0378 08       		.uleb128 0x8
 1088 0379 06       		.uleb128 0x6
 1089 037a E1070000 		.4byte	.LASF51
 1090 037e 08       		.byte	0x8
 1091 037f 31       		.byte	0x31
 1092 0380 88030000 		.4byte	0x388
 1093 0384 02       		.byte	0x2
 1094 0385 23       		.byte	0x23
 1095 0386 0C       		.uleb128 0xc
 1096 0387 00       		.byte	0
 1097 0388 09       		.uleb128 0x9
 1098 0389 04       		.byte	0x4
 1099 038a 51030000 		.4byte	0x351
 1100 038e 03       		.uleb128 0x3
 1101 038f 56030000 		.4byte	.LASF48
 1102 0393 08       		.byte	0x8
 1103 0394 33       		.byte	0x33
 1104 0395 51030000 		.4byte	0x351
 1105 0399 03       		.uleb128 0x3
 1106 039a 0F070000 		.4byte	.LASF52
 1107 039e 09       		.byte	0x9
 1108 039f 29       		.byte	0x29
 1109 03a0 A4030000 		.4byte	0x3a4
 1110 03a4 05       		.uleb128 0x5
 1111 03a5 0F070000 		.4byte	.LASF52
 1112 03a9 0C       		.byte	0xc
 1113 03aa 09       		.byte	0x9
 1114 03ab 2E       		.byte	0x2e
 1115 03ac DB030000 		.4byte	0x3db
 1116 03b0 06       		.uleb128 0x6
 1117 03b1 40050000 		.4byte	.LASF53
 1118 03b5 09       		.byte	0x9
 1119 03b6 2F       		.byte	0x2f
 1120 03b7 DB030000 		.4byte	0x3db
 1121 03bb 02       		.byte	0x2
 1122 03bc 23       		.byte	0x23
 1123 03bd 00       		.uleb128 0
 1124 03be 06       		.uleb128 0x6
 1125 03bf C4060000 		.4byte	.LASF54
 1126 03c3 09       		.byte	0x9
 1127 03c4 32       		.byte	0x32
 1128 03c5 50020000 		.4byte	0x250
 1129 03c9 02       		.byte	0x2
 1130 03ca 23       		.byte	0x23
 1131 03cb 04       		.uleb128 0x4
 1132 03cc 06       		.uleb128 0x6
 1133 03cd 20010000 		.4byte	.LASF55
 1134 03d1 09       		.byte	0x9
 1135 03d2 34       		.byte	0x34
 1136 03d3 F3000000 		.4byte	0xf3
ARM GAS  C:\DOCUME~1\ADMINI~1\LOCALS~1\Temp\ccmu8HAO.s 			page 21


 1137 03d7 02       		.byte	0x2
 1138 03d8 23       		.byte	0x23
 1139 03d9 08       		.uleb128 0x8
 1140 03da 00       		.byte	0
 1141 03db 09       		.uleb128 0x9
 1142 03dc 04       		.byte	0x4
 1143 03dd 99030000 		.4byte	0x399
 1144 03e1 05       		.uleb128 0x5
 1145 03e2 F9020000 		.4byte	.LASF56
 1146 03e6 04       		.byte	0x4
 1147 03e7 09       		.byte	0x9
 1148 03e8 3C       		.byte	0x3c
 1149 03e9 FC030000 		.4byte	0x3fc
 1150 03ed 06       		.uleb128 0x6
 1151 03ee A9070000 		.4byte	.LASF57
 1152 03f2 09       		.byte	0x9
 1153 03f3 3D       		.byte	0x3d
 1154 03f4 DB030000 		.4byte	0x3db
 1155 03f8 02       		.byte	0x2
 1156 03f9 23       		.byte	0x23
 1157 03fa 00       		.uleb128 0
 1158 03fb 00       		.byte	0
 1159 03fc 03       		.uleb128 0x3
 1160 03fd F9020000 		.4byte	.LASF56
 1161 0401 09       		.byte	0x9
 1162 0402 40       		.byte	0x40
 1163 0403 E1030000 		.4byte	0x3e1
 1164 0407 0E       		.uleb128 0xe
 1165 0408 04       		.byte	0x4
 1166 0409 06       		.byte	0x6
 1167 040a 90       		.byte	0x90
 1168 040b 3C040000 		.4byte	0x43c
 1169 040f 0F       		.uleb128 0xf
 1170 0410 0C030000 		.4byte	.LASF58
 1171 0414 06       		.byte	0x6
 1172 0415 97       		.byte	0x97
 1173 0416 E8000000 		.4byte	0xe8
 1174 041a 0F       		.uleb128 0xf
 1175 041b 66080000 		.4byte	.LASF59
 1176 041f 06       		.byte	0x6
 1177 0420 9E       		.byte	0x9e
 1178 0421 E8000000 		.4byte	0xe8
 1179 0425 0F       		.uleb128 0xf
 1180 0426 5D010000 		.4byte	.LASF60
 1181 042a 06       		.byte	0x6
 1182 042b A5       		.byte	0xa5
 1183 042c 8E020000 		.4byte	0x28e
 1184 0430 0F       		.uleb128 0xf
 1185 0431 BB010000 		.4byte	.LASF61
 1186 0435 06       		.byte	0x6
 1187 0436 AC       		.byte	0xac
 1188 0437 F3000000 		.4byte	0xf3
 1189 043b 00       		.byte	0
 1190 043c 09       		.uleb128 0x9
 1191 043d 04       		.byte	0x4
 1192 043e 42040000 		.4byte	0x442
 1193 0442 10       		.uleb128 0x10
ARM GAS  C:\DOCUME~1\ADMINI~1\LOCALS~1\Temp\ccmu8HAO.s 			page 22


 1194 0443 47040000 		.4byte	0x447
 1195 0447 04       		.uleb128 0x4
 1196 0448 01       		.byte	0x1
 1197 0449 08       		.byte	0x8
 1198 044a C2030000 		.4byte	.LASF62
 1199 044e 09       		.uleb128 0x9
 1200 044f 04       		.byte	0x4
 1201 0450 8E030000 		.4byte	0x38e
 1202 0454 03       		.uleb128 0x3
 1203 0455 63050000 		.4byte	.LASF63
 1204 0459 0A       		.byte	0xa
 1205 045a 37       		.byte	0x37
 1206 045b 5F040000 		.4byte	0x45f
 1207 045f 05       		.uleb128 0x5
 1208 0460 63050000 		.4byte	.LASF63
 1209 0464 20       		.byte	0x20
 1210 0465 0A       		.byte	0xa
 1211 0466 45       		.byte	0x45
 1212 0467 CE040000 		.4byte	0x4ce
 1213 046b 06       		.uleb128 0x6
 1214 046c E5020000 		.4byte	.LASF64
 1215 0470 0A       		.byte	0xa
 1216 0471 46       		.byte	0x46
 1217 0472 56020000 		.4byte	0x256
 1218 0476 02       		.byte	0x2
 1219 0477 23       		.byte	0x23
 1220 0478 00       		.uleb128 0
 1221 0479 06       		.uleb128 0x6
 1222 047a E7060000 		.4byte	.LASF65
 1223 047e 0A       		.byte	0xa
 1224 047f 47       		.byte	0x47
 1225 0480 30000000 		.4byte	0x30
 1226 0484 02       		.byte	0x2
 1227 0485 23       		.byte	0x23
 1228 0486 08       		.uleb128 0x8
 1229 0487 06       		.uleb128 0x6
 1230 0488 8D040000 		.4byte	.LASF66
 1231 048c 0A       		.byte	0xa
 1232 048d 48       		.byte	0x48
 1233 048e F1040000 		.4byte	0x4f1
 1234 0492 02       		.byte	0x2
 1235 0493 23       		.byte	0x23
 1236 0494 0C       		.uleb128 0xc
 1237 0495 06       		.uleb128 0x6
 1238 0496 F1060000 		.4byte	.LASF67
 1239 049a 0A       		.byte	0xa
 1240 049b 49       		.byte	0x49
 1241 049c F1040000 		.4byte	0x4f1
 1242 04a0 02       		.byte	0x2
 1243 04a1 23       		.byte	0x23
 1244 04a2 10       		.uleb128 0x10
 1245 04a3 06       		.uleb128 0x6
 1246 04a4 DA030000 		.4byte	.LASF68
 1247 04a8 0A       		.byte	0xa
 1248 04a9 4B       		.byte	0x4b
 1249 04aa F1040000 		.4byte	0x4f1
 1250 04ae 02       		.byte	0x2
ARM GAS  C:\DOCUME~1\ADMINI~1\LOCALS~1\Temp\ccmu8HAO.s 			page 23


 1251 04af 23       		.byte	0x23
 1252 04b0 14       		.uleb128 0x14
 1253 04b1 06       		.uleb128 0x6
 1254 04b2 03010000 		.4byte	.LASF69
 1255 04b6 0A       		.byte	0xa
 1256 04b7 4C       		.byte	0x4c
 1257 04b8 F1040000 		.4byte	0x4f1
 1258 04bc 02       		.byte	0x2
 1259 04bd 23       		.byte	0x23
 1260 04be 18       		.uleb128 0x18
 1261 04bf 06       		.uleb128 0x6
 1262 04c0 68030000 		.4byte	.LASF70
 1263 04c4 0A       		.byte	0xa
 1264 04c5 4D       		.byte	0x4d
 1265 04c6 CE040000 		.4byte	0x4ce
 1266 04ca 02       		.byte	0x2
 1267 04cb 23       		.byte	0x23
 1268 04cc 1C       		.uleb128 0x1c
 1269 04cd 00       		.byte	0
 1270 04ce 03       		.uleb128 0x3
 1271 04cf 16010000 		.4byte	.LASF71
 1272 04d3 0A       		.byte	0xa
 1273 04d4 3A       		.byte	0x3a
 1274 04d5 D9040000 		.4byte	0x4d9
 1275 04d9 09       		.uleb128 0x9
 1276 04da 04       		.byte	0x4
 1277 04db DF040000 		.4byte	0x4df
 1278 04df 11       		.uleb128 0x11
 1279 04e0 01       		.byte	0x1
 1280 04e1 EB040000 		.4byte	0x4eb
 1281 04e5 12       		.uleb128 0x12
 1282 04e6 EB040000 		.4byte	0x4eb
 1283 04ea 00       		.byte	0
 1284 04eb 09       		.uleb128 0x9
 1285 04ec 04       		.byte	0x4
 1286 04ed 54040000 		.4byte	0x454
 1287 04f1 09       		.uleb128 0x9
 1288 04f2 04       		.byte	0x4
 1289 04f3 49000000 		.4byte	0x49
 1290 04f7 03       		.uleb128 0x3
 1291 04f8 AA030000 		.4byte	.LASF72
 1292 04fc 0A       		.byte	0xa
 1293 04fd 76       		.byte	0x76
 1294 04fe 54040000 		.4byte	0x454
 1295 0502 03       		.uleb128 0x3
 1296 0503 5C030000 		.4byte	.LASF73
 1297 0507 0A       		.byte	0xa
 1298 0508 E6       		.byte	0xe6
 1299 0509 54040000 		.4byte	0x454
 1300 050d 13       		.uleb128 0x13
 1301 050e 01       		.byte	0x1
 1302 050f 30000000 		.4byte	0x30
 1303 0513 27050000 		.4byte	0x527
 1304 0517 12       		.uleb128 0x12
 1305 0518 8E020000 		.4byte	0x28e
 1306 051c 12       		.uleb128 0x12
 1307 051d 27050000 		.4byte	0x527
ARM GAS  C:\DOCUME~1\ADMINI~1\LOCALS~1\Temp\ccmu8HAO.s 			page 24


 1308 0521 12       		.uleb128 0x12
 1309 0522 30000000 		.4byte	0x30
 1310 0526 00       		.byte	0
 1311 0527 09       		.uleb128 0x9
 1312 0528 04       		.byte	0x4
 1313 0529 2D050000 		.4byte	0x52d
 1314 052d 10       		.uleb128 0x10
 1315 052e 49000000 		.4byte	0x49
 1316 0532 09       		.uleb128 0x9
 1317 0533 04       		.byte	0x4
 1318 0534 0D050000 		.4byte	0x50d
 1319 0538 13       		.uleb128 0x13
 1320 0539 01       		.byte	0x1
 1321 053a 30000000 		.4byte	0x30
 1322 053e 52050000 		.4byte	0x552
 1323 0542 12       		.uleb128 0x12
 1324 0543 8E020000 		.4byte	0x28e
 1325 0547 12       		.uleb128 0x12
 1326 0548 F1040000 		.4byte	0x4f1
 1327 054c 12       		.uleb128 0x12
 1328 054d 30000000 		.4byte	0x30
 1329 0551 00       		.byte	0
 1330 0552 09       		.uleb128 0x9
 1331 0553 04       		.byte	0x4
 1332 0554 38050000 		.4byte	0x538
 1333 0558 13       		.uleb128 0x13
 1334 0559 01       		.byte	0x1
 1335 055a B1000000 		.4byte	0xb1
 1336 055e 68050000 		.4byte	0x568
 1337 0562 12       		.uleb128 0x12
 1338 0563 8E020000 		.4byte	0x28e
 1339 0567 00       		.byte	0
 1340 0568 09       		.uleb128 0x9
 1341 0569 04       		.byte	0x4
 1342 056a 58050000 		.4byte	0x558
 1343 056e 13       		.uleb128 0x13
 1344 056f 01       		.byte	0x1
 1345 0570 E8000000 		.4byte	0xe8
 1346 0574 88050000 		.4byte	0x588
 1347 0578 12       		.uleb128 0x12
 1348 0579 8E020000 		.4byte	0x28e
 1349 057d 12       		.uleb128 0x12
 1350 057e 49000000 		.4byte	0x49
 1351 0582 12       		.uleb128 0x12
 1352 0583 FE000000 		.4byte	0xfe
 1353 0587 00       		.byte	0
 1354 0588 09       		.uleb128 0x9
 1355 0589 04       		.byte	0x4
 1356 058a 6E050000 		.4byte	0x56e
 1357 058e 13       		.uleb128 0x13
 1358 058f 01       		.byte	0x1
 1359 0590 E8000000 		.4byte	0xe8
 1360 0594 A3050000 		.4byte	0x5a3
 1361 0598 12       		.uleb128 0x12
 1362 0599 8E020000 		.4byte	0x28e
 1363 059d 12       		.uleb128 0x12
 1364 059e FE000000 		.4byte	0xfe
ARM GAS  C:\DOCUME~1\ADMINI~1\LOCALS~1\Temp\ccmu8HAO.s 			page 25


 1365 05a2 00       		.byte	0
 1366 05a3 09       		.uleb128 0x9
 1367 05a4 04       		.byte	0x4
 1368 05a5 8E050000 		.4byte	0x58e
 1369 05a9 13       		.uleb128 0x13
 1370 05aa 01       		.byte	0x1
 1371 05ab 30000000 		.4byte	0x30
 1372 05af C8050000 		.4byte	0x5c8
 1373 05b3 12       		.uleb128 0x12
 1374 05b4 8E020000 		.4byte	0x28e
 1375 05b8 12       		.uleb128 0x12
 1376 05b9 27050000 		.4byte	0x527
 1377 05bd 12       		.uleb128 0x12
 1378 05be 30000000 		.4byte	0x30
 1379 05c2 12       		.uleb128 0x12
 1380 05c3 FE000000 		.4byte	0xfe
 1381 05c7 00       		.byte	0
 1382 05c8 09       		.uleb128 0x9
 1383 05c9 04       		.byte	0x4
 1384 05ca A9050000 		.4byte	0x5a9
 1385 05ce 13       		.uleb128 0x13
 1386 05cf 01       		.byte	0x1
 1387 05d0 30000000 		.4byte	0x30
 1388 05d4 ED050000 		.4byte	0x5ed
 1389 05d8 12       		.uleb128 0x12
 1390 05d9 8E020000 		.4byte	0x28e
 1391 05dd 12       		.uleb128 0x12
 1392 05de F1040000 		.4byte	0x4f1
 1393 05e2 12       		.uleb128 0x12
 1394 05e3 30000000 		.4byte	0x30
 1395 05e7 12       		.uleb128 0x12
 1396 05e8 FE000000 		.4byte	0xfe
 1397 05ec 00       		.byte	0
 1398 05ed 09       		.uleb128 0x9
 1399 05ee 04       		.byte	0x4
 1400 05ef CE050000 		.4byte	0x5ce
 1401 05f3 14       		.uleb128 0x14
 1402 05f4 EF020000 		.4byte	.LASF74
 1403 05f8 0B       		.byte	0xb
 1404 05f9 0B01     		.2byte	0x10b
 1405 05fb A6000000 		.4byte	0xa6
 1406 05ff 13       		.uleb128 0x13
 1407 0600 01       		.byte	0x1
 1408 0601 F3050000 		.4byte	0x5f3
 1409 0605 0F060000 		.4byte	0x60f
 1410 0609 12       		.uleb128 0x12
 1411 060a 8E020000 		.4byte	0x28e
 1412 060e 00       		.byte	0
 1413 060f 09       		.uleb128 0x9
 1414 0610 04       		.byte	0x4
 1415 0611 FF050000 		.4byte	0x5ff
 1416 0615 15       		.uleb128 0x15
 1417 0616 86050000 		.4byte	.LASF190
 1418 061a 01       		.byte	0x1
 1419 061b 0C       		.byte	0xc
 1420 061c 81       		.byte	0x81
 1421 061d 60070000 		.4byte	0x760
ARM GAS  C:\DOCUME~1\ADMINI~1\LOCALS~1\Temp\ccmu8HAO.s 			page 26


 1422 0621 16       		.uleb128 0x16
 1423 0622 81060000 		.4byte	.LASF75
 1424 0626 72       		.sleb128 -14
 1425 0627 16       		.uleb128 0x16
 1426 0628 05020000 		.4byte	.LASF76
 1427 062c 74       		.sleb128 -12
 1428 062d 16       		.uleb128 0x16
 1429 062e C2040000 		.4byte	.LASF77
 1430 0632 75       		.sleb128 -11
 1431 0633 16       		.uleb128 0x16
 1432 0634 65070000 		.4byte	.LASF78
 1433 0638 76       		.sleb128 -10
 1434 0639 16       		.uleb128 0x16
 1435 063a 8A070000 		.4byte	.LASF79
 1436 063e 7B       		.sleb128 -5
 1437 063f 16       		.uleb128 0x16
 1438 0640 53070000 		.4byte	.LASF80
 1439 0644 7C       		.sleb128 -4
 1440 0645 16       		.uleb128 0x16
 1441 0646 E4010000 		.4byte	.LASF81
 1442 064a 7E       		.sleb128 -2
 1443 064b 16       		.uleb128 0x16
 1444 064c F6000000 		.4byte	.LASF82
 1445 0650 7F       		.sleb128 -1
 1446 0651 16       		.uleb128 0x16
 1447 0652 7D040000 		.4byte	.LASF83
 1448 0656 00       		.sleb128 0
 1449 0657 16       		.uleb128 0x16
 1450 0658 F3040000 		.4byte	.LASF84
 1451 065c 01       		.sleb128 1
 1452 065d 16       		.uleb128 0x16
 1453 065e 34020000 		.4byte	.LASF85
 1454 0662 02       		.sleb128 2
 1455 0663 16       		.uleb128 0x16
 1456 0664 3A030000 		.4byte	.LASF86
 1457 0668 03       		.sleb128 3
 1458 0669 16       		.uleb128 0x16
 1459 066a 0B010000 		.4byte	.LASF87
 1460 066e 04       		.sleb128 4
 1461 066f 16       		.uleb128 0x16
 1462 0670 F7010000 		.4byte	.LASF88
 1463 0674 05       		.sleb128 5
 1464 0675 16       		.uleb128 0x16
 1465 0676 28010000 		.4byte	.LASF89
 1466 067a 06       		.sleb128 6
 1467 067b 16       		.uleb128 0x16
 1468 067c A7060000 		.4byte	.LASF90
 1469 0680 07       		.sleb128 7
 1470 0681 16       		.uleb128 0x16
 1471 0682 71030000 		.4byte	.LASF91
 1472 0686 08       		.sleb128 8
 1473 0687 16       		.uleb128 0x16
 1474 0688 1C080000 		.4byte	.LASF92
 1475 068c 09       		.sleb128 9
 1476 068d 16       		.uleb128 0x16
 1477 068e D9040000 		.4byte	.LASF93
 1478 0692 0A       		.sleb128 10
ARM GAS  C:\DOCUME~1\ADMINI~1\LOCALS~1\Temp\ccmu8HAO.s 			page 27


 1479 0693 16       		.uleb128 0x16
 1480 0694 EC030000 		.4byte	.LASF94
 1481 0698 0B       		.sleb128 11
 1482 0699 16       		.uleb128 0x16
 1483 069a CB000000 		.4byte	.LASF95
 1484 069e 0C       		.sleb128 12
 1485 069f 16       		.uleb128 0x16
 1486 06a0 2D050000 		.4byte	.LASF96
 1487 06a4 0D       		.sleb128 13
 1488 06a5 16       		.uleb128 0x16
 1489 06a6 A0020000 		.4byte	.LASF97
 1490 06aa 0E       		.sleb128 14
 1491 06ab 16       		.uleb128 0x16
 1492 06ac C5070000 		.4byte	.LASF98
 1493 06b0 0F       		.sleb128 15
 1494 06b1 16       		.uleb128 0x16
 1495 06b2 C7030000 		.4byte	.LASF99
 1496 06b6 10       		.sleb128 16
 1497 06b7 16       		.uleb128 0x16
 1498 06b8 82000000 		.4byte	.LASF100
 1499 06bc 11       		.sleb128 17
 1500 06bd 16       		.uleb128 0x16
 1501 06be 83030000 		.4byte	.LASF101
 1502 06c2 12       		.sleb128 18
 1503 06c3 16       		.uleb128 0x16
 1504 06c4 47070000 		.4byte	.LASF102
 1505 06c8 13       		.sleb128 19
 1506 06c9 16       		.uleb128 0x16
 1507 06ca 3D080000 		.4byte	.LASF103
 1508 06ce 14       		.sleb128 20
 1509 06cf 16       		.uleb128 0x16
 1510 06d0 D8070000 		.4byte	.LASF104
 1511 06d4 15       		.sleb128 21
 1512 06d5 16       		.uleb128 0x16
 1513 06d6 CA020000 		.4byte	.LASF105
 1514 06da 16       		.sleb128 22
 1515 06db 16       		.uleb128 0x16
 1516 06dc 70050000 		.4byte	.LASF106
 1517 06e0 17       		.sleb128 23
 1518 06e1 16       		.uleb128 0x16
 1519 06e2 E4040000 		.4byte	.LASF107
 1520 06e6 18       		.sleb128 24
 1521 06e7 16       		.uleb128 0x16
 1522 06e8 78000000 		.4byte	.LASF108
 1523 06ec 19       		.sleb128 25
 1524 06ed 16       		.uleb128 0x16
 1525 06ee 55040000 		.4byte	.LASF109
 1526 06f2 1A       		.sleb128 26
 1527 06f3 16       		.uleb128 0x16
 1528 06f4 0E000000 		.4byte	.LASF110
 1529 06f8 1B       		.sleb128 27
 1530 06f9 16       		.uleb128 0x16
 1531 06fa 2F070000 		.4byte	.LASF111
 1532 06fe 1C       		.sleb128 28
 1533 06ff 16       		.uleb128 0x16
 1534 0700 E2030000 		.4byte	.LASF112
 1535 0704 1D       		.sleb128 29
ARM GAS  C:\DOCUME~1\ADMINI~1\LOCALS~1\Temp\ccmu8HAO.s 			page 28


 1536 0705 16       		.uleb128 0x16
 1537 0706 C1000000 		.4byte	.LASF113
 1538 070a 1E       		.sleb128 30
 1539 070b 16       		.uleb128 0x16
 1540 070c 56050000 		.4byte	.LASF114
 1541 0710 1F       		.sleb128 31
 1542 0711 16       		.uleb128 0x16
 1543 0712 DA060000 		.4byte	.LASF115
 1544 0716 20       		.sleb128 32
 1545 0717 16       		.uleb128 0x16
 1546 0718 96030000 		.4byte	.LASF116
 1547 071c 21       		.sleb128 33
 1548 071d 16       		.uleb128 0x16
 1549 071e 9C000000 		.4byte	.LASF117
 1550 0722 22       		.sleb128 34
 1551 0723 16       		.uleb128 0x16
 1552 0724 8C020000 		.4byte	.LASF118
 1553 0728 23       		.sleb128 35
 1554 0729 16       		.uleb128 0x16
 1555 072a B1070000 		.4byte	.LASF119
 1556 072e 24       		.sleb128 36
 1557 072f 16       		.uleb128 0x16
 1558 0730 5A060000 		.4byte	.LASF120
 1559 0734 25       		.sleb128 37
 1560 0735 16       		.uleb128 0x16
 1561 0736 13030000 		.4byte	.LASF121
 1562 073a 26       		.sleb128 38
 1563 073b 16       		.uleb128 0x16
 1564 073c 31080000 		.4byte	.LASF122
 1565 0740 27       		.sleb128 39
 1566 0741 16       		.uleb128 0x16
 1567 0742 9F010000 		.4byte	.LASF123
 1568 0746 28       		.sleb128 40
 1569 0747 16       		.uleb128 0x16
 1570 0748 C6050000 		.4byte	.LASF124
 1571 074c 29       		.sleb128 41
 1572 074d 16       		.uleb128 0x16
 1573 074e 2D060000 		.4byte	.LASF125
 1574 0752 2A       		.sleb128 42
 1575 0753 16       		.uleb128 0x16
 1576 0754 96020000 		.4byte	.LASF126
 1577 0758 2B       		.sleb128 43
 1578 0759 16       		.uleb128 0x16
 1579 075a BB070000 		.4byte	.LASF127
 1580 075e 2C       		.sleb128 44
 1581 075f 00       		.byte	0
 1582 0760 0D       		.uleb128 0xd
 1583 0761 62000000 		.4byte	0x62
 1584 0765 17       		.uleb128 0x17
 1585 0766 38       		.byte	0x38
 1586 0767 0C       		.byte	0xc
 1587 0768 0102     		.2byte	0x201
 1588 076a 40080000 		.4byte	0x840
 1589 076e 0B       		.uleb128 0xb
 1590 076f 435200   		.ascii	"CR\000"
 1591 0772 0C       		.byte	0xc
 1592 0773 0302     		.2byte	0x203
ARM GAS  C:\DOCUME~1\ADMINI~1\LOCALS~1\Temp\ccmu8HAO.s 			page 29


 1593 0775 40030000 		.4byte	0x340
 1594 0779 02       		.byte	0x2
 1595 077a 23       		.byte	0x23
 1596 077b 00       		.uleb128 0
 1597 077c 18       		.uleb128 0x18
 1598 077d ED040000 		.4byte	.LASF128
 1599 0781 0C       		.byte	0xc
 1600 0782 0402     		.2byte	0x204
 1601 0784 40030000 		.4byte	0x340
 1602 0788 02       		.byte	0x2
 1603 0789 23       		.byte	0x23
 1604 078a 04       		.uleb128 0x4
 1605 078b 18       		.uleb128 0x18
 1606 078c A2060000 		.4byte	.LASF129
 1607 0790 0C       		.byte	0xc
 1608 0791 0502     		.2byte	0x205
 1609 0793 40030000 		.4byte	0x340
 1610 0797 02       		.byte	0x2
 1611 0798 23       		.byte	0x23
 1612 0799 08       		.uleb128 0x8
 1613 079a 0B       		.uleb128 0xb
 1614 079b 43495200 		.ascii	"CIR\000"
 1615 079f 0C       		.byte	0xc
 1616 07a0 0602     		.2byte	0x206
 1617 07a2 40030000 		.4byte	0x340
 1618 07a6 02       		.byte	0x2
 1619 07a7 23       		.byte	0x23
 1620 07a8 0C       		.uleb128 0xc
 1621 07a9 18       		.uleb128 0x18
 1622 07aa 52020000 		.4byte	.LASF130
 1623 07ae 0C       		.byte	0xc
 1624 07af 0702     		.2byte	0x207
 1625 07b1 40030000 		.4byte	0x340
 1626 07b5 02       		.byte	0x2
 1627 07b6 23       		.byte	0x23
 1628 07b7 10       		.uleb128 0x10
 1629 07b8 18       		.uleb128 0x18
 1630 07b9 6F000000 		.4byte	.LASF131
 1631 07bd 0C       		.byte	0xc
 1632 07be 0802     		.2byte	0x208
 1633 07c0 40030000 		.4byte	0x340
 1634 07c4 02       		.byte	0x2
 1635 07c5 23       		.byte	0x23
 1636 07c6 14       		.uleb128 0x14
 1637 07c7 18       		.uleb128 0x18
 1638 07c8 8D030000 		.4byte	.LASF132
 1639 07cc 0C       		.byte	0xc
 1640 07cd 0902     		.2byte	0x209
 1641 07cf 40030000 		.4byte	0x340
 1642 07d3 02       		.byte	0x2
 1643 07d4 23       		.byte	0x23
 1644 07d5 18       		.uleb128 0x18
 1645 07d6 18       		.uleb128 0x18
 1646 07d7 24040000 		.4byte	.LASF133
 1647 07db 0C       		.byte	0xc
 1648 07dc 0A02     		.2byte	0x20a
 1649 07de 40030000 		.4byte	0x340
ARM GAS  C:\DOCUME~1\ADMINI~1\LOCALS~1\Temp\ccmu8HAO.s 			page 30


 1650 07e2 02       		.byte	0x2
 1651 07e3 23       		.byte	0x23
 1652 07e4 1C       		.uleb128 0x1c
 1653 07e5 18       		.uleb128 0x18
 1654 07e6 0F050000 		.4byte	.LASF134
 1655 07ea 0C       		.byte	0xc
 1656 07eb 0B02     		.2byte	0x20b
 1657 07ed 40030000 		.4byte	0x340
 1658 07f1 02       		.byte	0x2
 1659 07f2 23       		.byte	0x23
 1660 07f3 20       		.uleb128 0x20
 1661 07f4 18       		.uleb128 0x18
 1662 07f5 3C000000 		.4byte	.LASF135
 1663 07f9 0C       		.byte	0xc
 1664 07fa 0C02     		.2byte	0x20c
 1665 07fc 40030000 		.4byte	0x340
 1666 0800 02       		.byte	0x2
 1667 0801 23       		.byte	0x23
 1668 0802 24       		.uleb128 0x24
 1669 0803 18       		.uleb128 0x18
 1670 0804 60040000 		.4byte	.LASF136
 1671 0808 0C       		.byte	0xc
 1672 0809 0D02     		.2byte	0x20d
 1673 080b 40030000 		.4byte	0x340
 1674 080f 02       		.byte	0x2
 1675 0810 23       		.byte	0x23
 1676 0811 28       		.uleb128 0x28
 1677 0812 18       		.uleb128 0x18
 1678 0813 65000000 		.4byte	.LASF137
 1679 0817 0C       		.byte	0xc
 1680 0818 0E02     		.2byte	0x20e
 1681 081a 40030000 		.4byte	0x340
 1682 081e 02       		.byte	0x2
 1683 081f 23       		.byte	0x23
 1684 0820 2C       		.uleb128 0x2c
 1685 0821 18       		.uleb128 0x18
 1686 0822 96040000 		.4byte	.LASF138
 1687 0826 0C       		.byte	0xc
 1688 0827 0F02     		.2byte	0x20f
 1689 0829 40030000 		.4byte	0x340
 1690 082d 02       		.byte	0x2
 1691 082e 23       		.byte	0x23
 1692 082f 30       		.uleb128 0x30
 1693 0830 0B       		.uleb128 0xb
 1694 0831 43535200 		.ascii	"CSR\000"
 1695 0835 0C       		.byte	0xc
 1696 0836 1002     		.2byte	0x210
 1697 0838 40030000 		.4byte	0x340
 1698 083c 02       		.byte	0x2
 1699 083d 23       		.byte	0x23
 1700 083e 34       		.uleb128 0x34
 1701 083f 00       		.byte	0
 1702 0840 14       		.uleb128 0x14
 1703 0841 26030000 		.4byte	.LASF139
 1704 0845 0C       		.byte	0xc
 1705 0846 1102     		.2byte	0x211
 1706 0848 65070000 		.4byte	0x765
ARM GAS  C:\DOCUME~1\ADMINI~1\LOCALS~1\Temp\ccmu8HAO.s 			page 31


 1707 084c 17       		.uleb128 0x17
 1708 084d 1C       		.byte	0x1c
 1709 084e 0C       		.byte	0xc
 1710 084f 9B02     		.2byte	0x29b
 1711 0851 26090000 		.4byte	0x926
 1712 0855 0B       		.uleb128 0xb
 1713 0856 535200   		.ascii	"SR\000"
 1714 0859 0C       		.byte	0xc
 1715 085a 9D02     		.2byte	0x29d
 1716 085c 60070000 		.4byte	0x760
 1717 0860 02       		.byte	0x2
 1718 0861 23       		.byte	0x23
 1719 0862 00       		.uleb128 0
 1720 0863 18       		.uleb128 0x18
 1721 0864 27080000 		.4byte	.LASF140
 1722 0868 0C       		.byte	0xc
 1723 0869 9E02     		.2byte	0x29e
 1724 086b 62000000 		.4byte	0x62
 1725 086f 02       		.byte	0x2
 1726 0870 23       		.byte	0x23
 1727 0871 02       		.uleb128 0x2
 1728 0872 0B       		.uleb128 0xb
 1729 0873 445200   		.ascii	"DR\000"
 1730 0876 0C       		.byte	0xc
 1731 0877 9F02     		.2byte	0x29f
 1732 0879 60070000 		.4byte	0x760
 1733 087d 02       		.byte	0x2
 1734 087e 23       		.byte	0x23
 1735 087f 04       		.uleb128 0x4
 1736 0880 18       		.uleb128 0x18
 1737 0881 E7050000 		.4byte	.LASF141
 1738 0885 0C       		.byte	0xc
 1739 0886 A002     		.2byte	0x2a0
 1740 0888 62000000 		.4byte	0x62
 1741 088c 02       		.byte	0x2
 1742 088d 23       		.byte	0x23
 1743 088e 06       		.uleb128 0x6
 1744 088f 0B       		.uleb128 0xb
 1745 0890 42525200 		.ascii	"BRR\000"
 1746 0894 0C       		.byte	0xc
 1747 0895 A102     		.2byte	0x2a1
 1748 0897 60070000 		.4byte	0x760
 1749 089b 02       		.byte	0x2
 1750 089c 23       		.byte	0x23
 1751 089d 08       		.uleb128 0x8
 1752 089e 18       		.uleb128 0x18
 1753 089f F1050000 		.4byte	.LASF142
 1754 08a3 0C       		.byte	0xc
 1755 08a4 A202     		.2byte	0x2a2
 1756 08a6 62000000 		.4byte	0x62
 1757 08aa 02       		.byte	0x2
 1758 08ab 23       		.byte	0x23
 1759 08ac 0A       		.uleb128 0xa
 1760 08ad 0B       		.uleb128 0xb
 1761 08ae 43523100 		.ascii	"CR1\000"
 1762 08b2 0C       		.byte	0xc
 1763 08b3 A302     		.2byte	0x2a3
ARM GAS  C:\DOCUME~1\ADMINI~1\LOCALS~1\Temp\ccmu8HAO.s 			page 32


 1764 08b5 60070000 		.4byte	0x760
 1765 08b9 02       		.byte	0x2
 1766 08ba 23       		.byte	0x23
 1767 08bb 0C       		.uleb128 0xc
 1768 08bc 18       		.uleb128 0x18
 1769 08bd FB050000 		.4byte	.LASF143
 1770 08c1 0C       		.byte	0xc
 1771 08c2 A402     		.2byte	0x2a4
 1772 08c4 62000000 		.4byte	0x62
 1773 08c8 02       		.byte	0x2
 1774 08c9 23       		.byte	0x23
 1775 08ca 0E       		.uleb128 0xe
 1776 08cb 0B       		.uleb128 0xb
 1777 08cc 43523200 		.ascii	"CR2\000"
 1778 08d0 0C       		.byte	0xc
 1779 08d1 A502     		.2byte	0x2a5
 1780 08d3 60070000 		.4byte	0x760
 1781 08d7 02       		.byte	0x2
 1782 08d8 23       		.byte	0x23
 1783 08d9 10       		.uleb128 0x10
 1784 08da 18       		.uleb128 0x18
 1785 08db 05060000 		.4byte	.LASF144
 1786 08df 0C       		.byte	0xc
 1787 08e0 A602     		.2byte	0x2a6
 1788 08e2 62000000 		.4byte	0x62
 1789 08e6 02       		.byte	0x2
 1790 08e7 23       		.byte	0x23
 1791 08e8 12       		.uleb128 0x12
 1792 08e9 0B       		.uleb128 0xb
 1793 08ea 43523300 		.ascii	"CR3\000"
 1794 08ee 0C       		.byte	0xc
 1795 08ef A702     		.2byte	0x2a7
 1796 08f1 60070000 		.4byte	0x760
 1797 08f5 02       		.byte	0x2
 1798 08f6 23       		.byte	0x23
 1799 08f7 14       		.uleb128 0x14
 1800 08f8 18       		.uleb128 0x18
 1801 08f9 0F060000 		.4byte	.LASF145
 1802 08fd 0C       		.byte	0xc
 1803 08fe A802     		.2byte	0x2a8
 1804 0900 62000000 		.4byte	0x62
 1805 0904 02       		.byte	0x2
 1806 0905 23       		.byte	0x23
 1807 0906 16       		.uleb128 0x16
 1808 0907 18       		.uleb128 0x18
 1809 0908 00020000 		.4byte	.LASF146
 1810 090c 0C       		.byte	0xc
 1811 090d A902     		.2byte	0x2a9
 1812 090f 60070000 		.4byte	0x760
 1813 0913 02       		.byte	0x2
 1814 0914 23       		.byte	0x23
 1815 0915 18       		.uleb128 0x18
 1816 0916 18       		.uleb128 0x18
 1817 0917 19060000 		.4byte	.LASF147
 1818 091b 0C       		.byte	0xc
 1819 091c AA02     		.2byte	0x2aa
 1820 091e 62000000 		.4byte	0x62
ARM GAS  C:\DOCUME~1\ADMINI~1\LOCALS~1\Temp\ccmu8HAO.s 			page 33


 1821 0922 02       		.byte	0x2
 1822 0923 23       		.byte	0x23
 1823 0924 1A       		.uleb128 0x1a
 1824 0925 00       		.byte	0
 1825 0926 14       		.uleb128 0x14
 1826 0927 48030000 		.4byte	.LASF148
 1827 092b 0C       		.byte	0xc
 1828 092c AB02     		.2byte	0x2ab
 1829 092e 4C080000 		.4byte	0x84c
 1830 0932 19       		.uleb128 0x19
 1831 0933 01       		.byte	0x1
 1832 0934 0D       		.byte	0xd
 1833 0935 64       		.byte	0x64
 1834 0936 4D090000 		.4byte	0x94d
 1835 093a 16       		.uleb128 0x16
 1836 093b D0060000 		.4byte	.LASF149
 1837 093f 00       		.sleb128 0
 1838 0940 16       		.uleb128 0x16
 1839 0941 32030000 		.4byte	.LASF150
 1840 0945 01       		.sleb128 1
 1841 0946 16       		.uleb128 0x16
 1842 0947 9F050000 		.4byte	.LASF151
 1843 094b 02       		.sleb128 2
 1844 094c 00       		.byte	0
 1845 094d 03       		.uleb128 0x3
 1846 094e 66020000 		.4byte	.LASF152
 1847 0952 0D       		.byte	0xd
 1848 0953 68       		.byte	0x68
 1849 0954 32090000 		.4byte	0x932
 1850 0958 03       		.uleb128 0x3
 1851 0959 2F000000 		.4byte	.LASF153
 1852 095d 0D       		.byte	0xd
 1853 095e 6D       		.byte	0x6d
 1854 095f 63090000 		.4byte	0x963
 1855 0963 05       		.uleb128 0x5
 1856 0964 2F000000 		.4byte	.LASF153
 1857 0968 74       		.byte	0x74
 1858 0969 0D       		.byte	0xd
 1859 096a 87       		.byte	0x87
 1860 096b EC090000 		.4byte	0x9ec
 1861 096f 07       		.uleb128 0x7
 1862 0970 766D7400 		.ascii	"vmt\000"
 1863 0974 0D       		.byte	0xd
 1864 0975 89       		.byte	0x89
 1865 0976 C30A0000 		.4byte	0xac3
 1866 097a 02       		.byte	0x2
 1867 097b 23       		.byte	0x23
 1868 097c 00       		.uleb128 0
 1869 097d 06       		.uleb128 0x6
 1870 097e 70020000 		.4byte	.LASF154
 1871 0982 0D       		.byte	0xd
 1872 0983 8A       		.byte	0x8a
 1873 0984 FC030000 		.4byte	0x3fc
 1874 0988 02       		.byte	0x2
 1875 0989 23       		.byte	0x23
 1876 098a 04       		.uleb128 0x4
 1877 098b 06       		.uleb128 0x6
ARM GAS  C:\DOCUME~1\ADMINI~1\LOCALS~1\Temp\ccmu8HAO.s 			page 34


 1878 098c A9000000 		.4byte	.LASF155
 1879 0990 0D       		.byte	0xd
 1880 0991 8A       		.byte	0x8a
 1881 0992 F3050000 		.4byte	0x5f3
 1882 0996 02       		.byte	0x2
 1883 0997 23       		.byte	0x23
 1884 0998 08       		.uleb128 0x8
 1885 0999 06       		.uleb128 0x6
 1886 099a 41070000 		.4byte	.LASF156
 1887 099e 0D       		.byte	0xd
 1888 099f 8A       		.byte	0x8a
 1889 09a0 4D090000 		.4byte	0x94d
 1890 09a4 02       		.byte	0x2
 1891 09a5 23       		.byte	0x23
 1892 09a6 0C       		.uleb128 0xc
 1893 09a7 06       		.uleb128 0x6
 1894 09a8 24020000 		.4byte	.LASF157
 1895 09ac 0D       		.byte	0xd
 1896 09ad 8A       		.byte	0x8a
 1897 09ae F7040000 		.4byte	0x4f7
 1898 09b2 02       		.byte	0x2
 1899 09b3 23       		.byte	0x23
 1900 09b4 10       		.uleb128 0x10
 1901 09b5 06       		.uleb128 0x6
 1902 09b6 95000000 		.4byte	.LASF158
 1903 09ba 0D       		.byte	0xd
 1904 09bb 8A       		.byte	0x8a
 1905 09bc 02050000 		.4byte	0x502
 1906 09c0 02       		.byte	0x2
 1907 09c1 23       		.byte	0x23
 1908 09c2 30       		.uleb128 0x30
 1909 09c3 07       		.uleb128 0x7
 1910 09c4 696200   		.ascii	"ib\000"
 1911 09c7 0D       		.byte	0xd
 1912 09c8 8A       		.byte	0x8a
 1913 09c9 CE0A0000 		.4byte	0xace
 1914 09cd 02       		.byte	0x2
 1915 09ce 23       		.byte	0x23
 1916 09cf 50       		.uleb128 0x50
 1917 09d0 07       		.uleb128 0x7
 1918 09d1 6F6200   		.ascii	"ob\000"
 1919 09d4 0D       		.byte	0xd
 1920 09d5 8A       		.byte	0x8a
 1921 09d6 CE0A0000 		.4byte	0xace
 1922 09da 02       		.byte	0x2
 1923 09db 23       		.byte	0x23
 1924 09dc 60       		.uleb128 0x60
 1925 09dd 06       		.uleb128 0x6
 1926 09de 69040000 		.4byte	.LASF159
 1927 09e2 0D       		.byte	0xd
 1928 09e3 8A       		.byte	0x8a
 1929 09e4 DE0A0000 		.4byte	0xade
 1930 09e8 02       		.byte	0x2
 1931 09e9 23       		.byte	0x23
 1932 09ea 70       		.uleb128 0x70
 1933 09eb 00       		.byte	0
 1934 09ec 08       		.uleb128 0x8
ARM GAS  C:\DOCUME~1\ADMINI~1\LOCALS~1\Temp\ccmu8HAO.s 			page 35


 1935 09ed 0C       		.byte	0xc
 1936 09ee 0E       		.byte	0xe
 1937 09ef C4       		.byte	0xc4
 1938 09f0 2D0A0000 		.4byte	0xa2d
 1939 09f4 06       		.uleb128 0x6
 1940 09f5 D4020000 		.4byte	.LASF160
 1941 09f9 0E       		.byte	0xe
 1942 09fa C8       		.byte	0xc8
 1943 09fb 86000000 		.4byte	0x86
 1944 09ff 02       		.byte	0x2
 1945 0a00 23       		.byte	0x23
 1946 0a01 00       		.uleb128 0
 1947 0a02 06       		.uleb128 0x6
 1948 0a03 A3030000 		.4byte	.LASF161
 1949 0a07 0E       		.byte	0xe
 1950 0a08 CC       		.byte	0xcc
 1951 0a09 62000000 		.4byte	0x62
 1952 0a0d 02       		.byte	0x2
 1953 0a0e 23       		.byte	0x23
 1954 0a0f 04       		.uleb128 0x4
 1955 0a10 06       		.uleb128 0x6
 1956 0a11 7E020000 		.4byte	.LASF162
 1957 0a15 0E       		.byte	0xe
 1958 0a16 D0       		.byte	0xd0
 1959 0a17 62000000 		.4byte	0x62
 1960 0a1b 02       		.byte	0x2
 1961 0a1c 23       		.byte	0x23
 1962 0a1d 06       		.uleb128 0x6
 1963 0a1e 06       		.uleb128 0x6
 1964 0a1f 85020000 		.4byte	.LASF163
 1965 0a23 0E       		.byte	0xe
 1966 0a24 D4       		.byte	0xd4
 1967 0a25 62000000 		.4byte	0x62
 1968 0a29 02       		.byte	0x2
 1969 0a2a 23       		.byte	0x23
 1970 0a2b 08       		.uleb128 0x8
 1971 0a2c 00       		.byte	0
 1972 0a2d 03       		.uleb128 0x3
 1973 0a2e B7060000 		.4byte	.LASF164
 1974 0a32 0E       		.byte	0xe
 1975 0a33 D5       		.byte	0xd5
 1976 0a34 EC090000 		.4byte	0x9ec
 1977 0a38 05       		.uleb128 0x5
 1978 0a39 A8050000 		.4byte	.LASF165
 1979 0a3d 24       		.byte	0x24
 1980 0a3e 0D       		.byte	0xd
 1981 0a3f 7C       		.byte	0x7c
 1982 0a40 C30A0000 		.4byte	0xac3
 1983 0a44 06       		.uleb128 0x6
 1984 0a45 87040000 		.4byte	.LASF166
 1985 0a49 0D       		.byte	0xd
 1986 0a4a 7D       		.byte	0x7d
 1987 0a4b 32050000 		.4byte	0x532
 1988 0a4f 02       		.byte	0x2
 1989 0a50 23       		.byte	0x23
 1990 0a51 00       		.uleb128 0
 1991 0a52 06       		.uleb128 0x6
ARM GAS  C:\DOCUME~1\ADMINI~1\LOCALS~1\Temp\ccmu8HAO.s 			page 36


 1992 0a53 B2060000 		.4byte	.LASF167
 1993 0a57 0D       		.byte	0xd
 1994 0a58 7D       		.byte	0x7d
 1995 0a59 52050000 		.4byte	0x552
 1996 0a5d 02       		.byte	0x2
 1997 0a5e 23       		.byte	0x23
 1998 0a5f 04       		.uleb128 0x4
 1999 0a60 06       		.uleb128 0x6
 2000 0a61 66060000 		.4byte	.LASF168
 2001 0a65 0D       		.byte	0xd
 2002 0a66 7D       		.byte	0x7d
 2003 0a67 68050000 		.4byte	0x568
 2004 0a6b 02       		.byte	0x2
 2005 0a6c 23       		.byte	0x23
 2006 0a6d 08       		.uleb128 0x8
 2007 0a6e 06       		.uleb128 0x6
 2008 0a6f B8050000 		.4byte	.LASF169
 2009 0a73 0D       		.byte	0xd
 2010 0a74 7D       		.byte	0x7d
 2011 0a75 68050000 		.4byte	0x568
 2012 0a79 02       		.byte	0x2
 2013 0a7a 23       		.byte	0x23
 2014 0a7b 0C       		.uleb128 0xc
 2015 0a7c 07       		.uleb128 0x7
 2016 0a7d 70757400 		.ascii	"put\000"
 2017 0a81 0D       		.byte	0xd
 2018 0a82 7D       		.byte	0x7d
 2019 0a83 88050000 		.4byte	0x588
 2020 0a87 02       		.byte	0x2
 2021 0a88 23       		.byte	0x23
 2022 0a89 10       		.uleb128 0x10
 2023 0a8a 07       		.uleb128 0x7
 2024 0a8b 67657400 		.ascii	"get\000"
 2025 0a8f 0D       		.byte	0xd
 2026 0a90 7D       		.byte	0x7d
 2027 0a91 A3050000 		.4byte	0x5a3
 2028 0a95 02       		.byte	0x2
 2029 0a96 23       		.byte	0x23
 2030 0a97 14       		.uleb128 0x14
 2031 0a98 06       		.uleb128 0x6
 2032 0a99 F0010000 		.4byte	.LASF170
 2033 0a9d 0D       		.byte	0xd
 2034 0a9e 7D       		.byte	0x7d
 2035 0a9f C8050000 		.4byte	0x5c8
 2036 0aa3 02       		.byte	0x2
 2037 0aa4 23       		.byte	0x23
 2038 0aa5 18       		.uleb128 0x18
 2039 0aa6 06       		.uleb128 0x6
 2040 0aa7 03080000 		.4byte	.LASF171
 2041 0aab 0D       		.byte	0xd
 2042 0aac 7D       		.byte	0x7d
 2043 0aad ED050000 		.4byte	0x5ed
 2044 0ab1 02       		.byte	0x2
 2045 0ab2 23       		.byte	0x23
 2046 0ab3 1C       		.uleb128 0x1c
 2047 0ab4 06       		.uleb128 0x6
 2048 0ab5 D0040000 		.4byte	.LASF172
ARM GAS  C:\DOCUME~1\ADMINI~1\LOCALS~1\Temp\ccmu8HAO.s 			page 37


 2049 0ab9 0D       		.byte	0xd
 2050 0aba 7D       		.byte	0x7d
 2051 0abb 0F060000 		.4byte	0x60f
 2052 0abf 02       		.byte	0x2
 2053 0ac0 23       		.byte	0x23
 2054 0ac1 20       		.uleb128 0x20
 2055 0ac2 00       		.byte	0
 2056 0ac3 09       		.uleb128 0x9
 2057 0ac4 04       		.byte	0x4
 2058 0ac5 C90A0000 		.4byte	0xac9
 2059 0ac9 10       		.uleb128 0x10
 2060 0aca 380A0000 		.4byte	0xa38
 2061 0ace 1A       		.uleb128 0x1a
 2062 0acf 49000000 		.4byte	0x49
 2063 0ad3 DE0A0000 		.4byte	0xade
 2064 0ad7 1B       		.uleb128 0x1b
 2065 0ad8 45030000 		.4byte	0x345
 2066 0adc 0F       		.byte	0xf
 2067 0add 00       		.byte	0
 2068 0ade 09       		.uleb128 0x9
 2069 0adf 04       		.byte	0x4
 2070 0ae0 26090000 		.4byte	0x926
 2071 0ae4 1C       		.uleb128 0x1c
 2072 0ae5 8B050000 		.4byte	.LASF173
 2073 0ae9 01       		.byte	0x1
 2074 0aea 85       		.byte	0x85
 2075 0aeb 01       		.byte	0x1
 2076 0aec 01       		.byte	0x1
 2077 0aed FB0A0000 		.4byte	0xafb
 2078 0af1 1D       		.uleb128 0x1d
 2079 0af2 7500     		.ascii	"u\000"
 2080 0af4 01       		.byte	0x1
 2081 0af5 85       		.byte	0x85
 2082 0af6 DE0A0000 		.4byte	0xade
 2083 0afa 00       		.byte	0
 2084 0afb 1C       		.uleb128 0x1c
 2085 0afc 5B000000 		.4byte	.LASF174
 2086 0b00 01       		.byte	0x1
 2087 0b01 95       		.byte	0x95
 2088 0b02 01       		.byte	0x1
 2089 0b03 01       		.byte	0x1
 2090 0b04 470B0000 		.4byte	0xb47
 2091 0b08 1D       		.uleb128 0x1d
 2092 0b09 73647000 		.ascii	"sdp\000"
 2093 0b0d 01       		.byte	0x1
 2094 0b0e 95       		.byte	0x95
 2095 0b0f 470B0000 		.4byte	0xb47
 2096 0b13 1D       		.uleb128 0x1d
 2097 0b14 737200   		.ascii	"sr\000"
 2098 0b17 01       		.byte	0x1
 2099 0b18 95       		.byte	0x95
 2100 0b19 62000000 		.4byte	0x62
 2101 0b1d 1E       		.uleb128 0x1e
 2102 0b1e 73747300 		.ascii	"sts\000"
 2103 0b22 01       		.byte	0x1
 2104 0b23 96       		.byte	0x96
 2105 0b24 F3050000 		.4byte	0x5f3
ARM GAS  C:\DOCUME~1\ADMINI~1\LOCALS~1\Temp\ccmu8HAO.s 			page 38


 2106 0b28 1F       		.uleb128 0x1f
 2107 0b29 390B0000 		.4byte	0xb39
 2108 0b2d 1E       		.uleb128 0x1e
 2109 0b2e 746D7000 		.ascii	"tmp\000"
 2110 0b32 01       		.byte	0x1
 2111 0b33 A0       		.byte	0xa0
 2112 0b34 86000000 		.4byte	0x86
 2113 0b38 00       		.byte	0
 2114 0b39 20       		.uleb128 0x20
 2115 0b3a 1E       		.uleb128 0x1e
 2116 0b3b 746D7000 		.ascii	"tmp\000"
 2117 0b3f 01       		.byte	0x1
 2118 0b40 A2       		.byte	0xa2
 2119 0b41 86000000 		.4byte	0x86
 2120 0b45 00       		.byte	0
 2121 0b46 00       		.byte	0
 2122 0b47 09       		.uleb128 0x9
 2123 0b48 04       		.byte	0x4
 2124 0b49 58090000 		.4byte	0x958
 2125 0b4d 1C       		.uleb128 0x1c
 2126 0b4e 6F080000 		.4byte	.LASF175
 2127 0b52 01       		.byte	0x1
 2128 0b53 AA       		.byte	0xaa
 2129 0b54 01       		.byte	0x1
 2130 0b55 01       		.byte	0x1
 2131 0b56 1D0C0000 		.4byte	0xc1d
 2132 0b5a 1D       		.uleb128 0x1d
 2133 0b5b 73647000 		.ascii	"sdp\000"
 2134 0b5f 01       		.byte	0x1
 2135 0b60 AA       		.byte	0xaa
 2136 0b61 470B0000 		.4byte	0xb47
 2137 0b65 1E       		.uleb128 0x1e
 2138 0b66 7500     		.ascii	"u\000"
 2139 0b68 01       		.byte	0x1
 2140 0b69 AB       		.byte	0xab
 2141 0b6a DE0A0000 		.4byte	0xade
 2142 0b6e 1E       		.uleb128 0x1e
 2143 0b6f 63723100 		.ascii	"cr1\000"
 2144 0b73 01       		.byte	0x1
 2145 0b74 AC       		.byte	0xac
 2146 0b75 62000000 		.4byte	0x62
 2147 0b79 1E       		.uleb128 0x1e
 2148 0b7a 737200   		.ascii	"sr\000"
 2149 0b7d 01       		.byte	0x1
 2150 0b7e AD       		.byte	0xad
 2151 0b7f 62000000 		.4byte	0x62
 2152 0b83 1E       		.uleb128 0x1e
 2153 0b84 647200   		.ascii	"dr\000"
 2154 0b87 01       		.byte	0x1
 2155 0b88 AE       		.byte	0xae
 2156 0b89 62000000 		.4byte	0x62
 2157 0b8d 1F       		.uleb128 0x1f
 2158 0b8e 9E0B0000 		.4byte	0xb9e
 2159 0b92 1E       		.uleb128 0x1e
 2160 0b93 746D7000 		.ascii	"tmp\000"
 2161 0b97 01       		.byte	0x1
 2162 0b98 B5       		.byte	0xb5
ARM GAS  C:\DOCUME~1\ADMINI~1\LOCALS~1\Temp\ccmu8HAO.s 			page 39


 2163 0b99 86000000 		.4byte	0x86
 2164 0b9d 00       		.byte	0
 2165 0b9e 1F       		.uleb128 0x1f
 2166 0b9f AF0B0000 		.4byte	0xbaf
 2167 0ba3 1E       		.uleb128 0x1e
 2168 0ba4 746D7000 		.ascii	"tmp\000"
 2169 0ba8 01       		.byte	0x1
 2170 0ba9 B7       		.byte	0xb7
 2171 0baa 86000000 		.4byte	0x86
 2172 0bae 00       		.byte	0
 2173 0baf 1F       		.uleb128 0x1f
 2174 0bb0 C00B0000 		.4byte	0xbc0
 2175 0bb4 1E       		.uleb128 0x1e
 2176 0bb5 746D7000 		.ascii	"tmp\000"
 2177 0bb9 01       		.byte	0x1
 2178 0bba BC       		.byte	0xbc
 2179 0bbb 86000000 		.4byte	0x86
 2180 0bbf 00       		.byte	0
 2181 0bc0 1F       		.uleb128 0x1f
 2182 0bc1 D10B0000 		.4byte	0xbd1
 2183 0bc5 1E       		.uleb128 0x1e
 2184 0bc6 746D7000 		.ascii	"tmp\000"
 2185 0bca 01       		.byte	0x1
 2186 0bcb BE       		.byte	0xbe
 2187 0bcc 86000000 		.4byte	0x86
 2188 0bd0 00       		.byte	0
 2189 0bd1 1F       		.uleb128 0x1f
 2190 0bd2 FE0B0000 		.4byte	0xbfe
 2191 0bd6 1E       		.uleb128 0x1e
 2192 0bd7 6200     		.ascii	"b\000"
 2193 0bd9 01       		.byte	0x1
 2194 0bda C2       		.byte	0xc2
 2195 0bdb E8000000 		.4byte	0xe8
 2196 0bdf 1F       		.uleb128 0x1f
 2197 0be0 F00B0000 		.4byte	0xbf0
 2198 0be4 1E       		.uleb128 0x1e
 2199 0be5 746D7000 		.ascii	"tmp\000"
 2200 0be9 01       		.byte	0x1
 2201 0bea C3       		.byte	0xc3
 2202 0beb 86000000 		.4byte	0x86
 2203 0bef 00       		.byte	0
 2204 0bf0 20       		.uleb128 0x20
 2205 0bf1 1E       		.uleb128 0x1e
 2206 0bf2 746D7000 		.ascii	"tmp\000"
 2207 0bf6 01       		.byte	0x1
 2208 0bf7 CB       		.byte	0xcb
 2209 0bf8 86000000 		.4byte	0x86
 2210 0bfc 00       		.byte	0
 2211 0bfd 00       		.byte	0
 2212 0bfe 1F       		.uleb128 0x1f
 2213 0bff 0F0C0000 		.4byte	0xc0f
 2214 0c03 1E       		.uleb128 0x1e
 2215 0c04 746D7000 		.ascii	"tmp\000"
 2216 0c08 01       		.byte	0x1
 2217 0c09 CF       		.byte	0xcf
 2218 0c0a 86000000 		.4byte	0x86
 2219 0c0e 00       		.byte	0
ARM GAS  C:\DOCUME~1\ADMINI~1\LOCALS~1\Temp\ccmu8HAO.s 			page 40


 2220 0c0f 20       		.uleb128 0x20
 2221 0c10 1E       		.uleb128 0x1e
 2222 0c11 746D7000 		.ascii	"tmp\000"
 2223 0c15 01       		.byte	0x1
 2224 0c16 D1       		.byte	0xd1
 2225 0c17 86000000 		.4byte	0x86
 2226 0c1b 00       		.byte	0
 2227 0c1c 00       		.byte	0
 2228 0c1d 21       		.uleb128 0x21
 2229 0c1e FC040000 		.4byte	.LASF191
 2230 0c22 01       		.byte	0x1
 2231 0c23 D9       		.byte	0xd9
 2232 0c24 01       		.byte	0x1
 2233 0c25 00000000 		.4byte	.LFB66
 2234 0c29 14000000 		.4byte	.LFE66
 2235 0c2d 02       		.byte	0x2
 2236 0c2e 7D       		.byte	0x7d
 2237 0c2f 00       		.sleb128 0
 2238 0c30 01       		.byte	0x1
 2239 0c31 420C0000 		.4byte	0xc42
 2240 0c35 22       		.uleb128 0x22
 2241 0c36 717000   		.ascii	"qp\000"
 2242 0c39 01       		.byte	0x1
 2243 0c3a D9       		.byte	0xd9
 2244 0c3b EB040000 		.4byte	0x4eb
 2245 0c3f 01       		.byte	0x1
 2246 0c40 50       		.byte	0x50
 2247 0c41 00       		.byte	0
 2248 0c42 23       		.uleb128 0x23
 2249 0c43 01       		.byte	0x1
 2250 0c44 17050000 		.4byte	.LASF176
 2251 0c48 01       		.byte	0x1
 2252 0c49 1201     		.2byte	0x112
 2253 0c4b 01       		.byte	0x1
 2254 0c4c 00000000 		.4byte	.LFB67
 2255 0c50 5C010000 		.4byte	.LFE67
 2256 0c54 00000000 		.4byte	.LLST0
 2257 0c58 01       		.byte	0x1
 2258 0c59 740E0000 		.4byte	0xe74
 2259 0c5d 24       		.uleb128 0x24
 2260 0c5e 4D0B0000 		.4byte	0xb4d
 2261 0c62 04000000 		.4byte	.LBB30
 2262 0c66 00000000 		.4byte	.Ldebug_ranges0+0
 2263 0c6a 01       		.byte	0x1
 2264 0c6b 1601     		.2byte	0x116
 2265 0c6d 690E0000 		.4byte	0xe69
 2266 0c71 25       		.uleb128 0x25
 2267 0c72 18000000 		.4byte	.Ldebug_ranges0+0x18
 2268 0c76 26       		.uleb128 0x26
 2269 0c77 650B0000 		.4byte	0xb65
 2270 0c7b 01       		.byte	0x1
 2271 0c7c 55       		.byte	0x55
 2272 0c7d 26       		.uleb128 0x26
 2273 0c7e 6E0B0000 		.4byte	0xb6e
 2274 0c82 01       		.byte	0x1
 2275 0c83 57       		.byte	0x57
 2276 0c84 27       		.uleb128 0x27
ARM GAS  C:\DOCUME~1\ADMINI~1\LOCALS~1\Temp\ccmu8HAO.s 			page 41


 2277 0c85 790B0000 		.4byte	0xb79
 2278 0c89 20000000 		.4byte	.LLST1
 2279 0c8d 27       		.uleb128 0x27
 2280 0c8e 830B0000 		.4byte	0xb83
 2281 0c92 3E000000 		.4byte	.LLST2
 2282 0c96 28       		.uleb128 0x28
 2283 0c97 5A0B0000 		.4byte	0xb5a
 2284 0c9b 06       		.byte	0x6
 2285 0c9c 03       		.byte	0x3
 2286 0c9d 00000000 		.4byte	SD1
 2287 0ca1 9F       		.byte	0x9f
 2288 0ca2 29       		.uleb128 0x29
 2289 0ca3 48000000 		.4byte	.LBB32
 2290 0ca7 4E000000 		.4byte	.LBE32
 2291 0cab B90C0000 		.4byte	0xcb9
 2292 0caf 27       		.uleb128 0x27
 2293 0cb0 030C0000 		.4byte	0xc03
 2294 0cb4 7D000000 		.4byte	.LLST3
 2295 0cb8 00       		.byte	0
 2296 0cb9 29       		.uleb128 0x29
 2297 0cba 5E000000 		.4byte	.LBB33
 2298 0cbe 64000000 		.4byte	.LBE33
 2299 0cc2 D00C0000 		.4byte	0xcd0
 2300 0cc6 27       		.uleb128 0x27
 2301 0cc7 100C0000 		.4byte	0xc10
 2302 0ccb 90000000 		.4byte	.LLST4
 2303 0ccf 00       		.byte	0
 2304 0cd0 29       		.uleb128 0x29
 2305 0cd1 80000000 		.4byte	.LBB34
 2306 0cd5 86000000 		.4byte	.LBE34
 2307 0cd9 E70C0000 		.4byte	0xce7
 2308 0cdd 27       		.uleb128 0x27
 2309 0cde B40B0000 		.4byte	0xbb4
 2310 0ce2 A3000000 		.4byte	.LLST5
 2311 0ce6 00       		.byte	0
 2312 0ce7 29       		.uleb128 0x29
 2313 0ce8 90000000 		.4byte	.LBB35
 2314 0cec 98000000 		.4byte	.LBE35
 2315 0cf0 FE0C0000 		.4byte	0xcfe
 2316 0cf4 27       		.uleb128 0x27
 2317 0cf5 C50B0000 		.4byte	0xbc5
 2318 0cf9 B6000000 		.4byte	.LLST6
 2319 0cfd 00       		.byte	0
 2320 0cfe 29       		.uleb128 0x29
 2321 0cff 98000000 		.4byte	.LBB36
 2322 0d03 9E000000 		.4byte	.LBE36
 2323 0d07 150D0000 		.4byte	0xd15
 2324 0d0b 27       		.uleb128 0x27
 2325 0d0c 920B0000 		.4byte	0xb92
 2326 0d10 D4000000 		.4byte	.LLST7
 2327 0d14 00       		.byte	0
 2328 0d15 29       		.uleb128 0x29
 2329 0d16 AE000000 		.4byte	.LBB37
 2330 0d1a B4000000 		.4byte	.LBE37
 2331 0d1e 2C0D0000 		.4byte	0xd2c
 2332 0d22 27       		.uleb128 0x27
 2333 0d23 A30B0000 		.4byte	0xba3
ARM GAS  C:\DOCUME~1\ADMINI~1\LOCALS~1\Temp\ccmu8HAO.s 			page 42


 2334 0d27 E7000000 		.4byte	.LLST8
 2335 0d2b 00       		.byte	0
 2336 0d2c 2A       		.uleb128 0x2a
 2337 0d2d FB0A0000 		.4byte	0xafb
 2338 0d31 C2000000 		.4byte	.LBB38
 2339 0d35 0C010000 		.4byte	.LBE38
 2340 0d39 01       		.byte	0x1
 2341 0d3a B2       		.byte	0xb2
 2342 0d3b AB0D0000 		.4byte	0xdab
 2343 0d3f 2B       		.uleb128 0x2b
 2344 0d40 130B0000 		.4byte	0xb13
 2345 0d44 FA000000 		.4byte	.LLST9
 2346 0d48 2C       		.uleb128 0x2c
 2347 0d49 C2000000 		.4byte	.LBB39
 2348 0d4d 0C010000 		.4byte	.LBE39
 2349 0d51 27       		.uleb128 0x27
 2350 0d52 1D0B0000 		.4byte	0xb1d
 2351 0d56 0D010000 		.4byte	.LLST10
 2352 0d5a 2B       		.uleb128 0x2b
 2353 0d5b 080B0000 		.4byte	0xb08
 2354 0d5f 2C010000 		.4byte	.LLST11
 2355 0d63 29       		.uleb128 0x29
 2356 0d64 F0000000 		.4byte	.LBB40
 2357 0d68 F6000000 		.4byte	.LBE40
 2358 0d6c 7A0D0000 		.4byte	0xd7a
 2359 0d70 27       		.uleb128 0x27
 2360 0d71 2D0B0000 		.4byte	0xb2d
 2361 0d75 44010000 		.4byte	.LLST12
 2362 0d79 00       		.byte	0
 2363 0d7a 29       		.uleb128 0x29
 2364 0d7b 04010000 		.4byte	.LBB41
 2365 0d7f 0C010000 		.4byte	.LBE41
 2366 0d83 910D0000 		.4byte	0xd91
 2367 0d87 27       		.uleb128 0x27
 2368 0d88 3A0B0000 		.4byte	0xb3a
 2369 0d8c 57010000 		.4byte	.LLST13
 2370 0d90 00       		.byte	0
 2371 0d91 2D       		.uleb128 0x2d
 2372 0d92 04010000 		.4byte	.LVL42
 2373 0d96 02100000 		.4byte	0x1002
 2374 0d9a 2E       		.uleb128 0x2e
 2375 0d9b 01       		.byte	0x1
 2376 0d9c 51       		.byte	0x51
 2377 0d9d 01       		.byte	0x1
 2378 0d9e 30       		.byte	0x30
 2379 0d9f 2E       		.uleb128 0x2e
 2380 0da0 01       		.byte	0x1
 2381 0da1 50       		.byte	0x50
 2382 0da2 05       		.byte	0x5
 2383 0da3 03       		.byte	0x3
 2384 0da4 04000000 		.4byte	.LANCHOR0+4
 2385 0da8 00       		.byte	0
 2386 0da9 00       		.byte	0
 2387 0daa 00       		.byte	0
 2388 0dab 29       		.uleb128 0x29
 2389 0dac 0C010000 		.4byte	.LBB42
 2390 0db0 5C010000 		.4byte	.LBE42
ARM GAS  C:\DOCUME~1\ADMINI~1\LOCALS~1\Temp\ccmu8HAO.s 			page 43


 2391 0db4 190E0000 		.4byte	0xe19
 2392 0db8 27       		.uleb128 0x27
 2393 0db9 D60B0000 		.4byte	0xbd6
 2394 0dbd 75010000 		.4byte	.LLST14
 2395 0dc1 29       		.uleb128 0x29
 2396 0dc2 0C010000 		.4byte	.LBB43
 2397 0dc6 12010000 		.4byte	.LBE43
 2398 0dca D80D0000 		.4byte	0xdd8
 2399 0dce 27       		.uleb128 0x27
 2400 0dcf E40B0000 		.4byte	0xbe4
 2401 0dd3 88010000 		.4byte	.LLST15
 2402 0dd7 00       		.byte	0
 2403 0dd8 29       		.uleb128 0x29
 2404 0dd9 28010000 		.4byte	.LBB44
 2405 0ddd 30010000 		.4byte	.LBE44
 2406 0de1 EF0D0000 		.4byte	0xdef
 2407 0de5 27       		.uleb128 0x27
 2408 0de6 F10B0000 		.4byte	0xbf1
 2409 0dea 9B010000 		.4byte	.LLST16
 2410 0dee 00       		.byte	0
 2411 0def 2F       		.uleb128 0x2f
 2412 0df0 1E010000 		.4byte	.LVL48
 2413 0df4 21100000 		.4byte	0x1021
 2414 0df8 030E0000 		.4byte	0xe03
 2415 0dfc 2E       		.uleb128 0x2e
 2416 0dfd 01       		.byte	0x1
 2417 0dfe 50       		.byte	0x50
 2418 0dff 02       		.byte	0x2
 2419 0e00 76       		.byte	0x76
 2420 0e01 30       		.sleb128 48
 2421 0e02 00       		.byte	0
 2422 0e03 2D       		.uleb128 0x2d
 2423 0e04 46010000 		.4byte	.LVL52
 2424 0e08 02100000 		.4byte	0x1002
 2425 0e0c 2E       		.uleb128 0x2e
 2426 0e0d 01       		.byte	0x1
 2427 0e0e 51       		.byte	0x51
 2428 0e0f 01       		.byte	0x1
 2429 0e10 30       		.byte	0x30
 2430 0e11 2E       		.uleb128 0x2e
 2431 0e12 01       		.byte	0x1
 2432 0e13 50       		.byte	0x50
 2433 0e14 02       		.byte	0x2
 2434 0e15 76       		.byte	0x76
 2435 0e16 04       		.sleb128 4
 2436 0e17 00       		.byte	0
 2437 0e18 00       		.byte	0
 2438 0e19 2F       		.uleb128 0x2f
 2439 0e1a 5E000000 		.4byte	.LVL14
 2440 0e1e 02100000 		.4byte	0x1002
 2441 0e22 350E0000 		.4byte	0xe35
 2442 0e26 2E       		.uleb128 0x2e
 2443 0e27 01       		.byte	0x1
 2444 0e28 51       		.byte	0x51
 2445 0e29 01       		.byte	0x1
 2446 0e2a 30       		.byte	0x30
 2447 0e2b 2E       		.uleb128 0x2e
ARM GAS  C:\DOCUME~1\ADMINI~1\LOCALS~1\Temp\ccmu8HAO.s 			page 44


 2448 0e2c 01       		.byte	0x1
 2449 0e2d 50       		.byte	0x50
 2450 0e2e 05       		.byte	0x5
 2451 0e2f 03       		.byte	0x3
 2452 0e30 04000000 		.4byte	.LANCHOR0+4
 2453 0e34 00       		.byte	0
 2454 0e35 2F       		.uleb128 0x2f
 2455 0e36 90000000 		.4byte	.LVL22
 2456 0e3a 40100000 		.4byte	0x1040
 2457 0e3e 4F0E0000 		.4byte	0xe4f
 2458 0e42 2E       		.uleb128 0x2e
 2459 0e43 01       		.byte	0x1
 2460 0e44 51       		.byte	0x51
 2461 0e45 02       		.byte	0x2
 2462 0e46 78       		.byte	0x78
 2463 0e47 00       		.sleb128 0
 2464 0e48 2E       		.uleb128 0x2e
 2465 0e49 01       		.byte	0x1
 2466 0e4a 50       		.byte	0x50
 2467 0e4b 02       		.byte	0x2
 2468 0e4c 76       		.byte	0x76
 2469 0e4d 00       		.sleb128 0
 2470 0e4e 00       		.byte	0
 2471 0e4f 2D       		.uleb128 0x2d
 2472 0e50 AE000000 		.4byte	.LVL28
 2473 0e54 02100000 		.4byte	0x1002
 2474 0e58 2E       		.uleb128 0x2e
 2475 0e59 01       		.byte	0x1
 2476 0e5a 51       		.byte	0x51
 2477 0e5b 01       		.byte	0x1
 2478 0e5c 30       		.byte	0x30
 2479 0e5d 2E       		.uleb128 0x2e
 2480 0e5e 01       		.byte	0x1
 2481 0e5f 50       		.byte	0x50
 2482 0e60 05       		.byte	0x5
 2483 0e61 03       		.byte	0x3
 2484 0e62 04000000 		.4byte	.LANCHOR0+4
 2485 0e66 00       		.byte	0
 2486 0e67 00       		.byte	0
 2487 0e68 00       		.byte	0
 2488 0e69 30       		.uleb128 0x30
 2489 0e6a 80000000 		.4byte	.LVL19
 2490 0e6e 01       		.byte	0x1
 2491 0e6f 5A100000 		.4byte	0x105a
 2492 0e73 00       		.byte	0
 2493 0e74 23       		.uleb128 0x23
 2494 0e75 01       		.byte	0x1
 2495 0e76 5A080000 		.4byte	.LASF177
 2496 0e7a 01       		.byte	0x1
 2497 0e7b 7501     		.2byte	0x175
 2498 0e7d 01       		.byte	0x1
 2499 0e7e 00000000 		.4byte	.LFB68
 2500 0e82 26000000 		.4byte	.LFE68
 2501 0e86 C4010000 		.4byte	.LLST17
 2502 0e8a 01       		.byte	0x1
 2503 0e8b AE0E0000 		.4byte	0xeae
 2504 0e8f 2D       		.uleb128 0x2d
ARM GAS  C:\DOCUME~1\ADMINI~1\LOCALS~1\Temp\ccmu8HAO.s 			page 45


 2505 0e90 1A000000 		.4byte	.LVL53
 2506 0e94 65100000 		.4byte	0x1065
 2507 0e98 2E       		.uleb128 0x2e
 2508 0e99 01       		.byte	0x1
 2509 0e9a 52       		.byte	0x52
 2510 0e9b 05       		.byte	0x5
 2511 0e9c 03       		.byte	0x3
 2512 0e9d 00000000 		.4byte	notify1
 2513 0ea1 2E       		.uleb128 0x2e
 2514 0ea2 01       		.byte	0x1
 2515 0ea3 51       		.byte	0x51
 2516 0ea4 01       		.byte	0x1
 2517 0ea5 30       		.byte	0x30
 2518 0ea6 2E       		.uleb128 0x2e
 2519 0ea7 01       		.byte	0x1
 2520 0ea8 50       		.byte	0x50
 2521 0ea9 02       		.byte	0x2
 2522 0eaa 74       		.byte	0x74
 2523 0eab 00       		.sleb128 0
 2524 0eac 00       		.byte	0
 2525 0ead 00       		.byte	0
 2526 0eae 1C       		.uleb128 0x1c
 2527 0eaf 04050000 		.4byte	.LASF178
 2528 0eb3 01       		.byte	0x1
 2529 0eb4 63       		.byte	0x63
 2530 0eb5 01       		.byte	0x1
 2531 0eb6 01       		.byte	0x1
 2532 0eb7 DB0E0000 		.4byte	0xedb
 2533 0ebb 1D       		.uleb128 0x1d
 2534 0ebc 73647000 		.ascii	"sdp\000"
 2535 0ec0 01       		.byte	0x1
 2536 0ec1 63       		.byte	0x63
 2537 0ec2 470B0000 		.4byte	0xb47
 2538 0ec6 31       		.uleb128 0x31
 2539 0ec7 D5050000 		.4byte	.LASF179
 2540 0ecb 01       		.byte	0x1
 2541 0ecc 63       		.byte	0x63
 2542 0ecd DB0E0000 		.4byte	0xedb
 2543 0ed1 1E       		.uleb128 0x1e
 2544 0ed2 7500     		.ascii	"u\000"
 2545 0ed4 01       		.byte	0x1
 2546 0ed5 64       		.byte	0x64
 2547 0ed6 DE0A0000 		.4byte	0xade
 2548 0eda 00       		.byte	0
 2549 0edb 09       		.uleb128 0x9
 2550 0edc 04       		.byte	0x4
 2551 0edd E10E0000 		.4byte	0xee1
 2552 0ee1 10       		.uleb128 0x10
 2553 0ee2 2D0A0000 		.4byte	0xa2d
 2554 0ee6 23       		.uleb128 0x23
 2555 0ee7 01       		.byte	0x1
 2556 0ee8 20050000 		.4byte	.LASF180
 2557 0eec 01       		.byte	0x1
 2558 0eed A001     		.2byte	0x1a0
 2559 0eef 01       		.byte	0x1
 2560 0ef0 00000000 		.4byte	.LFB69
 2561 0ef4 7C000000 		.4byte	.LFE69
ARM GAS  C:\DOCUME~1\ADMINI~1\LOCALS~1\Temp\ccmu8HAO.s 			page 46


 2562 0ef8 E4010000 		.4byte	.LLST18
 2563 0efc 01       		.byte	0x1
 2564 0efd 720F0000 		.4byte	0xf72
 2565 0f01 32       		.uleb128 0x32
 2566 0f02 73647000 		.ascii	"sdp\000"
 2567 0f06 01       		.byte	0x1
 2568 0f07 A001     		.2byte	0x1a0
 2569 0f09 470B0000 		.4byte	0xb47
 2570 0f0d 04020000 		.4byte	.LLST19
 2571 0f11 33       		.uleb128 0x33
 2572 0f12 D5050000 		.4byte	.LASF179
 2573 0f16 01       		.byte	0x1
 2574 0f17 A001     		.2byte	0x1a0
 2575 0f19 DB0E0000 		.4byte	0xedb
 2576 0f1d 38020000 		.4byte	.LLST20
 2577 0f21 34       		.uleb128 0x34
 2578 0f22 AE0E0000 		.4byte	0xeae
 2579 0f26 12000000 		.4byte	.LBB49
 2580 0f2a 52000000 		.4byte	.LBE49
 2581 0f2e 01       		.byte	0x1
 2582 0f2f D101     		.2byte	0x1d1
 2583 0f31 5B0F0000 		.4byte	0xf5b
 2584 0f35 2B       		.uleb128 0x2b
 2585 0f36 C60E0000 		.4byte	0xec6
 2586 0f3a 56020000 		.4byte	.LLST21
 2587 0f3e 2B       		.uleb128 0x2b
 2588 0f3f BB0E0000 		.4byte	0xebb
 2589 0f43 69020000 		.4byte	.LLST22
 2590 0f47 2C       		.uleb128 0x2c
 2591 0f48 12000000 		.4byte	.LBB50
 2592 0f4c 52000000 		.4byte	.LBE50
 2593 0f50 27       		.uleb128 0x27
 2594 0f51 D10E0000 		.4byte	0xed1
 2595 0f55 7C020000 		.4byte	.LLST23
 2596 0f59 00       		.byte	0
 2597 0f5a 00       		.byte	0
 2598 0f5b 2D       		.uleb128 0x2d
 2599 0f5c 70000000 		.4byte	.LVL61
 2600 0f60 84100000 		.4byte	0x1084
 2601 0f64 2E       		.uleb128 0x2e
 2602 0f65 01       		.byte	0x1
 2603 0f66 51       		.byte	0x51
 2604 0f67 02       		.byte	0x2
 2605 0f68 08       		.byte	0x8
 2606 0f69 C0       		.byte	0xc0
 2607 0f6a 2E       		.uleb128 0x2e
 2608 0f6b 01       		.byte	0x1
 2609 0f6c 50       		.byte	0x50
 2610 0f6d 02       		.byte	0x2
 2611 0f6e 08       		.byte	0x8
 2612 0f6f 25       		.byte	0x25
 2613 0f70 00       		.byte	0
 2614 0f71 00       		.byte	0
 2615 0f72 35       		.uleb128 0x35
 2616 0f73 01       		.byte	0x1
 2617 0f74 A6040000 		.4byte	.LASF181
 2618 0f78 01       		.byte	0x1
ARM GAS  C:\DOCUME~1\ADMINI~1\LOCALS~1\Temp\ccmu8HAO.s 			page 47


 2619 0f79 DD01     		.2byte	0x1dd
 2620 0f7b 01       		.byte	0x1
 2621 0f7c 00000000 		.4byte	.LFB70
 2622 0f80 34000000 		.4byte	.LFE70
 2623 0f84 02       		.byte	0x2
 2624 0f85 7D       		.byte	0x7d
 2625 0f86 00       		.sleb128 0
 2626 0f87 01       		.byte	0x1
 2627 0f88 CC0F0000 		.4byte	0xfcc
 2628 0f8c 32       		.uleb128 0x32
 2629 0f8d 73647000 		.ascii	"sdp\000"
 2630 0f91 01       		.byte	0x1
 2631 0f92 DD01     		.2byte	0x1dd
 2632 0f94 470B0000 		.4byte	0xb47
 2633 0f98 9C020000 		.4byte	.LLST24
 2634 0f9c 34       		.uleb128 0x34
 2635 0f9d E40A0000 		.4byte	0xae4
 2636 0fa1 0A000000 		.4byte	.LBB51
 2637 0fa5 12000000 		.4byte	.LBE51
 2638 0fa9 01       		.byte	0x1
 2639 0faa E001     		.2byte	0x1e0
 2640 0fac BA0F0000 		.4byte	0xfba
 2641 0fb0 2B       		.uleb128 0x2b
 2642 0fb1 F10A0000 		.4byte	0xaf1
 2643 0fb5 BD020000 		.4byte	.LLST25
 2644 0fb9 00       		.byte	0
 2645 0fba 36       		.uleb128 0x36
 2646 0fbb 2E000000 		.4byte	.LVL66
 2647 0fbf 01       		.byte	0x1
 2648 0fc0 9E100000 		.4byte	0x109e
 2649 0fc4 2E       		.uleb128 0x2e
 2650 0fc5 01       		.byte	0x1
 2651 0fc6 50       		.byte	0x50
 2652 0fc7 02       		.byte	0x2
 2653 0fc8 08       		.byte	0x8
 2654 0fc9 25       		.byte	0x25
 2655 0fca 00       		.byte	0
 2656 0fcb 00       		.byte	0
 2657 0fcc 37       		.uleb128 0x37
 2658 0fcd F4070000 		.4byte	.LASF192
 2659 0fd1 01       		.byte	0x1
 2660 0fd2 50       		.byte	0x50
 2661 0fd3 E10E0000 		.4byte	0xee1
 2662 0fd7 05       		.byte	0x5
 2663 0fd8 03       		.byte	0x3
 2664 0fd9 00000000 		.4byte	default_config
 2665 0fdd 38       		.uleb128 0x38
 2666 0fde 74060000 		.4byte	.LASF182
 2667 0fe2 10       		.byte	0x10
 2668 0fe3 9404     		.2byte	0x494
 2669 0fe5 EB0F0000 		.4byte	0xfeb
 2670 0fe9 01       		.byte	0x1
 2671 0fea 01       		.byte	0x1
 2672 0feb 0D       		.uleb128 0xd
 2673 0fec 74000000 		.4byte	0x74
 2674 0ff0 39       		.uleb128 0x39
 2675 0ff1 53443100 		.ascii	"SD1\000"
ARM GAS  C:\DOCUME~1\ADMINI~1\LOCALS~1\Temp\ccmu8HAO.s 			page 48


 2676 0ff5 01       		.byte	0x1
 2677 0ff6 2F       		.byte	0x2f
 2678 0ff7 58090000 		.4byte	0x958
 2679 0ffb 01       		.byte	0x1
 2680 0ffc 05       		.byte	0x5
 2681 0ffd 03       		.byte	0x3
 2682 0ffe 00000000 		.4byte	SD1
 2683 1002 3A       		.uleb128 0x3a
 2684 1003 01       		.byte	0x1
 2685 1004 0F040000 		.4byte	.LASF183
 2686 1008 09       		.byte	0x9
 2687 1009 B3       		.byte	0xb3
 2688 100a 01       		.byte	0x1
 2689 100b 01       		.byte	0x1
 2690 100c 1B100000 		.4byte	0x101b
 2691 1010 12       		.uleb128 0x12
 2692 1011 1B100000 		.4byte	0x101b
 2693 1015 12       		.uleb128 0x12
 2694 1016 F3000000 		.4byte	0xf3
 2695 101a 00       		.byte	0
 2696 101b 09       		.uleb128 0x9
 2697 101c 04       		.byte	0x4
 2698 101d FC030000 		.4byte	0x3fc
 2699 1021 3B       		.uleb128 0x3b
 2700 1022 01       		.byte	0x1
 2701 1023 1B020000 		.4byte	.LASF193
 2702 1027 0A       		.byte	0xa
 2703 1028 5A01     		.2byte	0x15a
 2704 102a 01       		.byte	0x1
 2705 102b E8000000 		.4byte	0xe8
 2706 102f 01       		.byte	0x1
 2707 1030 3A100000 		.4byte	0x103a
 2708 1034 12       		.uleb128 0x12
 2709 1035 3A100000 		.4byte	0x103a
 2710 1039 00       		.byte	0
 2711 103a 09       		.uleb128 0x9
 2712 103b 04       		.byte	0x4
 2713 103c 02050000 		.4byte	0x502
 2714 1040 3C       		.uleb128 0x3c
 2715 1041 01       		.byte	0x1
 2716 1042 C2010000 		.4byte	.LASF184
 2717 1046 0D       		.byte	0xd
 2718 1047 3B01     		.2byte	0x13b
 2719 1049 01       		.byte	0x1
 2720 104a 01       		.byte	0x1
 2721 104b 5A100000 		.4byte	0x105a
 2722 104f 12       		.uleb128 0x12
 2723 1050 470B0000 		.4byte	0xb47
 2724 1054 12       		.uleb128 0x12
 2725 1055 49000000 		.4byte	0x49
 2726 1059 00       		.byte	0
 2727 105a 3D       		.uleb128 0x3d
 2728 105b 01       		.byte	0x1
 2729 105c 96070000 		.4byte	.LASF194
 2730 1060 07       		.byte	0x7
 2731 1061 F501     		.2byte	0x1f5
 2732 1063 01       		.byte	0x1
ARM GAS  C:\DOCUME~1\ADMINI~1\LOCALS~1\Temp\ccmu8HAO.s 			page 49


 2733 1064 01       		.byte	0x1
 2734 1065 3C       		.uleb128 0x3c
 2735 1066 01       		.byte	0x1
 2736 1067 AE010000 		.4byte	.LASF185
 2737 106b 0D       		.byte	0xd
 2738 106c 3801     		.2byte	0x138
 2739 106e 01       		.byte	0x1
 2740 106f 01       		.byte	0x1
 2741 1070 84100000 		.4byte	0x1084
 2742 1074 12       		.uleb128 0x12
 2743 1075 470B0000 		.4byte	0xb47
 2744 1079 12       		.uleb128 0x12
 2745 107a CE040000 		.4byte	0x4ce
 2746 107e 12       		.uleb128 0x12
 2747 107f CE040000 		.4byte	0x4ce
 2748 1083 00       		.byte	0
 2749 1084 3C       		.uleb128 0x3c
 2750 1085 01       		.byte	0x1
 2751 1086 49080000 		.4byte	.LASF186
 2752 108a 0F       		.byte	0xf
 2753 108b 2301     		.2byte	0x123
 2754 108d 01       		.byte	0x1
 2755 108e 01       		.byte	0x1
 2756 108f 9E100000 		.4byte	0x109e
 2757 1093 12       		.uleb128 0x12
 2758 1094 86000000 		.4byte	0x86
 2759 1098 12       		.uleb128 0x12
 2760 1099 86000000 		.4byte	0x86
 2761 109d 00       		.byte	0
 2762 109e 3E       		.uleb128 0x3e
 2763 109f 01       		.byte	0x1
 2764 10a0 D2010000 		.4byte	.LASF195
 2765 10a4 0F       		.byte	0xf
 2766 10a5 2401     		.2byte	0x124
 2767 10a7 01       		.byte	0x1
 2768 10a8 01       		.byte	0x1
 2769 10a9 12       		.uleb128 0x12
 2770 10aa 86000000 		.4byte	0x86
 2771 10ae 00       		.byte	0
 2772 10af 00       		.byte	0
 2773              		.section	.debug_abbrev,"",%progbits
 2774              	.Ldebug_abbrev0:
 2775 0000 01       		.uleb128 0x1
 2776 0001 11       		.uleb128 0x11
 2777 0002 01       		.byte	0x1
 2778 0003 25       		.uleb128 0x25
 2779 0004 0E       		.uleb128 0xe
 2780 0005 13       		.uleb128 0x13
 2781 0006 0B       		.uleb128 0xb
 2782 0007 03       		.uleb128 0x3
 2783 0008 0E       		.uleb128 0xe
 2784 0009 1B       		.uleb128 0x1b
 2785 000a 0E       		.uleb128 0xe
 2786 000b 55       		.uleb128 0x55
 2787 000c 06       		.uleb128 0x6
 2788 000d 11       		.uleb128 0x11
 2789 000e 01       		.uleb128 0x1
ARM GAS  C:\DOCUME~1\ADMINI~1\LOCALS~1\Temp\ccmu8HAO.s 			page 50


 2790 000f 52       		.uleb128 0x52
 2791 0010 01       		.uleb128 0x1
 2792 0011 10       		.uleb128 0x10
 2793 0012 06       		.uleb128 0x6
 2794 0013 00       		.byte	0
 2795 0014 00       		.byte	0
 2796 0015 02       		.uleb128 0x2
 2797 0016 24       		.uleb128 0x24
 2798 0017 00       		.byte	0
 2799 0018 0B       		.uleb128 0xb
 2800 0019 0B       		.uleb128 0xb
 2801 001a 3E       		.uleb128 0x3e
 2802 001b 0B       		.uleb128 0xb
 2803 001c 03       		.uleb128 0x3
 2804 001d 08       		.uleb128 0x8
 2805 001e 00       		.byte	0
 2806 001f 00       		.byte	0
 2807 0020 03       		.uleb128 0x3
 2808 0021 16       		.uleb128 0x16
 2809 0022 00       		.byte	0
 2810 0023 03       		.uleb128 0x3
 2811 0024 0E       		.uleb128 0xe
 2812 0025 3A       		.uleb128 0x3a
 2813 0026 0B       		.uleb128 0xb
 2814 0027 3B       		.uleb128 0x3b
 2815 0028 0B       		.uleb128 0xb
 2816 0029 49       		.uleb128 0x49
 2817 002a 13       		.uleb128 0x13
 2818 002b 00       		.byte	0
 2819 002c 00       		.byte	0
 2820 002d 04       		.uleb128 0x4
 2821 002e 24       		.uleb128 0x24
 2822 002f 00       		.byte	0
 2823 0030 0B       		.uleb128 0xb
 2824 0031 0B       		.uleb128 0xb
 2825 0032 3E       		.uleb128 0x3e
 2826 0033 0B       		.uleb128 0xb
 2827 0034 03       		.uleb128 0x3
 2828 0035 0E       		.uleb128 0xe
 2829 0036 00       		.byte	0
 2830 0037 00       		.byte	0
 2831 0038 05       		.uleb128 0x5
 2832 0039 13       		.uleb128 0x13
 2833 003a 01       		.byte	0x1
 2834 003b 03       		.uleb128 0x3
 2835 003c 0E       		.uleb128 0xe
 2836 003d 0B       		.uleb128 0xb
 2837 003e 0B       		.uleb128 0xb
 2838 003f 3A       		.uleb128 0x3a
 2839 0040 0B       		.uleb128 0xb
 2840 0041 3B       		.uleb128 0x3b
 2841 0042 0B       		.uleb128 0xb
 2842 0043 01       		.uleb128 0x1
 2843 0044 13       		.uleb128 0x13
 2844 0045 00       		.byte	0
 2845 0046 00       		.byte	0
 2846 0047 06       		.uleb128 0x6
ARM GAS  C:\DOCUME~1\ADMINI~1\LOCALS~1\Temp\ccmu8HAO.s 			page 51


 2847 0048 0D       		.uleb128 0xd
 2848 0049 00       		.byte	0
 2849 004a 03       		.uleb128 0x3
 2850 004b 0E       		.uleb128 0xe
 2851 004c 3A       		.uleb128 0x3a
 2852 004d 0B       		.uleb128 0xb
 2853 004e 3B       		.uleb128 0x3b
 2854 004f 0B       		.uleb128 0xb
 2855 0050 49       		.uleb128 0x49
 2856 0051 13       		.uleb128 0x13
 2857 0052 38       		.uleb128 0x38
 2858 0053 0A       		.uleb128 0xa
 2859 0054 00       		.byte	0
 2860 0055 00       		.byte	0
 2861 0056 07       		.uleb128 0x7
 2862 0057 0D       		.uleb128 0xd
 2863 0058 00       		.byte	0
 2864 0059 03       		.uleb128 0x3
 2865 005a 08       		.uleb128 0x8
 2866 005b 3A       		.uleb128 0x3a
 2867 005c 0B       		.uleb128 0xb
 2868 005d 3B       		.uleb128 0x3b
 2869 005e 0B       		.uleb128 0xb
 2870 005f 49       		.uleb128 0x49
 2871 0060 13       		.uleb128 0x13
 2872 0061 38       		.uleb128 0x38
 2873 0062 0A       		.uleb128 0xa
 2874 0063 00       		.byte	0
 2875 0064 00       		.byte	0
 2876 0065 08       		.uleb128 0x8
 2877 0066 13       		.uleb128 0x13
 2878 0067 01       		.byte	0x1
 2879 0068 0B       		.uleb128 0xb
 2880 0069 0B       		.uleb128 0xb
 2881 006a 3A       		.uleb128 0x3a
 2882 006b 0B       		.uleb128 0xb
 2883 006c 3B       		.uleb128 0x3b
 2884 006d 0B       		.uleb128 0xb
 2885 006e 01       		.uleb128 0x1
 2886 006f 13       		.uleb128 0x13
 2887 0070 00       		.byte	0
 2888 0071 00       		.byte	0
 2889 0072 09       		.uleb128 0x9
 2890 0073 0F       		.uleb128 0xf
 2891 0074 00       		.byte	0
 2892 0075 0B       		.uleb128 0xb
 2893 0076 0B       		.uleb128 0xb
 2894 0077 49       		.uleb128 0x49
 2895 0078 13       		.uleb128 0x13
 2896 0079 00       		.byte	0
 2897 007a 00       		.byte	0
 2898 007b 0A       		.uleb128 0xa
 2899 007c 0F       		.uleb128 0xf
 2900 007d 00       		.byte	0
 2901 007e 0B       		.uleb128 0xb
 2902 007f 0B       		.uleb128 0xb
 2903 0080 00       		.byte	0
ARM GAS  C:\DOCUME~1\ADMINI~1\LOCALS~1\Temp\ccmu8HAO.s 			page 52


 2904 0081 00       		.byte	0
 2905 0082 0B       		.uleb128 0xb
 2906 0083 0D       		.uleb128 0xd
 2907 0084 00       		.byte	0
 2908 0085 03       		.uleb128 0x3
 2909 0086 08       		.uleb128 0x8
 2910 0087 3A       		.uleb128 0x3a
 2911 0088 0B       		.uleb128 0xb
 2912 0089 3B       		.uleb128 0x3b
 2913 008a 05       		.uleb128 0x5
 2914 008b 49       		.uleb128 0x49
 2915 008c 13       		.uleb128 0x13
 2916 008d 38       		.uleb128 0x38
 2917 008e 0A       		.uleb128 0xa
 2918 008f 00       		.byte	0
 2919 0090 00       		.byte	0
 2920 0091 0C       		.uleb128 0xc
 2921 0092 13       		.uleb128 0x13
 2922 0093 01       		.byte	0x1
 2923 0094 03       		.uleb128 0x3
 2924 0095 0E       		.uleb128 0xe
 2925 0096 0B       		.uleb128 0xb
 2926 0097 0B       		.uleb128 0xb
 2927 0098 3A       		.uleb128 0x3a
 2928 0099 0B       		.uleb128 0xb
 2929 009a 3B       		.uleb128 0x3b
 2930 009b 05       		.uleb128 0x5
 2931 009c 01       		.uleb128 0x1
 2932 009d 13       		.uleb128 0x13
 2933 009e 00       		.byte	0
 2934 009f 00       		.byte	0
 2935 00a0 0D       		.uleb128 0xd
 2936 00a1 35       		.uleb128 0x35
 2937 00a2 00       		.byte	0
 2938 00a3 49       		.uleb128 0x49
 2939 00a4 13       		.uleb128 0x13
 2940 00a5 00       		.byte	0
 2941 00a6 00       		.byte	0
 2942 00a7 0E       		.uleb128 0xe
 2943 00a8 17       		.uleb128 0x17
 2944 00a9 01       		.byte	0x1
 2945 00aa 0B       		.uleb128 0xb
 2946 00ab 0B       		.uleb128 0xb
 2947 00ac 3A       		.uleb128 0x3a
 2948 00ad 0B       		.uleb128 0xb
 2949 00ae 3B       		.uleb128 0x3b
 2950 00af 0B       		.uleb128 0xb
 2951 00b0 01       		.uleb128 0x1
 2952 00b1 13       		.uleb128 0x13
 2953 00b2 00       		.byte	0
 2954 00b3 00       		.byte	0
 2955 00b4 0F       		.uleb128 0xf
 2956 00b5 0D       		.uleb128 0xd
 2957 00b6 00       		.byte	0
 2958 00b7 03       		.uleb128 0x3
 2959 00b8 0E       		.uleb128 0xe
 2960 00b9 3A       		.uleb128 0x3a
ARM GAS  C:\DOCUME~1\ADMINI~1\LOCALS~1\Temp\ccmu8HAO.s 			page 53


 2961 00ba 0B       		.uleb128 0xb
 2962 00bb 3B       		.uleb128 0x3b
 2963 00bc 0B       		.uleb128 0xb
 2964 00bd 49       		.uleb128 0x49
 2965 00be 13       		.uleb128 0x13
 2966 00bf 00       		.byte	0
 2967 00c0 00       		.byte	0
 2968 00c1 10       		.uleb128 0x10
 2969 00c2 26       		.uleb128 0x26
 2970 00c3 00       		.byte	0
 2971 00c4 49       		.uleb128 0x49
 2972 00c5 13       		.uleb128 0x13
 2973 00c6 00       		.byte	0
 2974 00c7 00       		.byte	0
 2975 00c8 11       		.uleb128 0x11
 2976 00c9 15       		.uleb128 0x15
 2977 00ca 01       		.byte	0x1
 2978 00cb 27       		.uleb128 0x27
 2979 00cc 0C       		.uleb128 0xc
 2980 00cd 01       		.uleb128 0x1
 2981 00ce 13       		.uleb128 0x13
 2982 00cf 00       		.byte	0
 2983 00d0 00       		.byte	0
 2984 00d1 12       		.uleb128 0x12
 2985 00d2 05       		.uleb128 0x5
 2986 00d3 00       		.byte	0
 2987 00d4 49       		.uleb128 0x49
 2988 00d5 13       		.uleb128 0x13
 2989 00d6 00       		.byte	0
 2990 00d7 00       		.byte	0
 2991 00d8 13       		.uleb128 0x13
 2992 00d9 15       		.uleb128 0x15
 2993 00da 01       		.byte	0x1
 2994 00db 27       		.uleb128 0x27
 2995 00dc 0C       		.uleb128 0xc
 2996 00dd 49       		.uleb128 0x49
 2997 00de 13       		.uleb128 0x13
 2998 00df 01       		.uleb128 0x1
 2999 00e0 13       		.uleb128 0x13
 3000 00e1 00       		.byte	0
 3001 00e2 00       		.byte	0
 3002 00e3 14       		.uleb128 0x14
 3003 00e4 16       		.uleb128 0x16
 3004 00e5 00       		.byte	0
 3005 00e6 03       		.uleb128 0x3
 3006 00e7 0E       		.uleb128 0xe
 3007 00e8 3A       		.uleb128 0x3a
 3008 00e9 0B       		.uleb128 0xb
 3009 00ea 3B       		.uleb128 0x3b
 3010 00eb 05       		.uleb128 0x5
 3011 00ec 49       		.uleb128 0x49
 3012 00ed 13       		.uleb128 0x13
 3013 00ee 00       		.byte	0
 3014 00ef 00       		.byte	0
 3015 00f0 15       		.uleb128 0x15
 3016 00f1 04       		.uleb128 0x4
 3017 00f2 01       		.byte	0x1
ARM GAS  C:\DOCUME~1\ADMINI~1\LOCALS~1\Temp\ccmu8HAO.s 			page 54


 3018 00f3 03       		.uleb128 0x3
 3019 00f4 0E       		.uleb128 0xe
 3020 00f5 0B       		.uleb128 0xb
 3021 00f6 0B       		.uleb128 0xb
 3022 00f7 3A       		.uleb128 0x3a
 3023 00f8 0B       		.uleb128 0xb
 3024 00f9 3B       		.uleb128 0x3b
 3025 00fa 0B       		.uleb128 0xb
 3026 00fb 01       		.uleb128 0x1
 3027 00fc 13       		.uleb128 0x13
 3028 00fd 00       		.byte	0
 3029 00fe 00       		.byte	0
 3030 00ff 16       		.uleb128 0x16
 3031 0100 28       		.uleb128 0x28
 3032 0101 00       		.byte	0
 3033 0102 03       		.uleb128 0x3
 3034 0103 0E       		.uleb128 0xe
 3035 0104 1C       		.uleb128 0x1c
 3036 0105 0D       		.uleb128 0xd
 3037 0106 00       		.byte	0
 3038 0107 00       		.byte	0
 3039 0108 17       		.uleb128 0x17
 3040 0109 13       		.uleb128 0x13
 3041 010a 01       		.byte	0x1
 3042 010b 0B       		.uleb128 0xb
 3043 010c 0B       		.uleb128 0xb
 3044 010d 3A       		.uleb128 0x3a
 3045 010e 0B       		.uleb128 0xb
 3046 010f 3B       		.uleb128 0x3b
 3047 0110 05       		.uleb128 0x5
 3048 0111 01       		.uleb128 0x1
 3049 0112 13       		.uleb128 0x13
 3050 0113 00       		.byte	0
 3051 0114 00       		.byte	0
 3052 0115 18       		.uleb128 0x18
 3053 0116 0D       		.uleb128 0xd
 3054 0117 00       		.byte	0
 3055 0118 03       		.uleb128 0x3
 3056 0119 0E       		.uleb128 0xe
 3057 011a 3A       		.uleb128 0x3a
 3058 011b 0B       		.uleb128 0xb
 3059 011c 3B       		.uleb128 0x3b
 3060 011d 05       		.uleb128 0x5
 3061 011e 49       		.uleb128 0x49
 3062 011f 13       		.uleb128 0x13
 3063 0120 38       		.uleb128 0x38
 3064 0121 0A       		.uleb128 0xa
 3065 0122 00       		.byte	0
 3066 0123 00       		.byte	0
 3067 0124 19       		.uleb128 0x19
 3068 0125 04       		.uleb128 0x4
 3069 0126 01       		.byte	0x1
 3070 0127 0B       		.uleb128 0xb
 3071 0128 0B       		.uleb128 0xb
 3072 0129 3A       		.uleb128 0x3a
 3073 012a 0B       		.uleb128 0xb
 3074 012b 3B       		.uleb128 0x3b
ARM GAS  C:\DOCUME~1\ADMINI~1\LOCALS~1\Temp\ccmu8HAO.s 			page 55


 3075 012c 0B       		.uleb128 0xb
 3076 012d 01       		.uleb128 0x1
 3077 012e 13       		.uleb128 0x13
 3078 012f 00       		.byte	0
 3079 0130 00       		.byte	0
 3080 0131 1A       		.uleb128 0x1a
 3081 0132 01       		.uleb128 0x1
 3082 0133 01       		.byte	0x1
 3083 0134 49       		.uleb128 0x49
 3084 0135 13       		.uleb128 0x13
 3085 0136 01       		.uleb128 0x1
 3086 0137 13       		.uleb128 0x13
 3087 0138 00       		.byte	0
 3088 0139 00       		.byte	0
 3089 013a 1B       		.uleb128 0x1b
 3090 013b 21       		.uleb128 0x21
 3091 013c 00       		.byte	0
 3092 013d 49       		.uleb128 0x49
 3093 013e 13       		.uleb128 0x13
 3094 013f 2F       		.uleb128 0x2f
 3095 0140 0B       		.uleb128 0xb
 3096 0141 00       		.byte	0
 3097 0142 00       		.byte	0
 3098 0143 1C       		.uleb128 0x1c
 3099 0144 2E       		.uleb128 0x2e
 3100 0145 01       		.byte	0x1
 3101 0146 03       		.uleb128 0x3
 3102 0147 0E       		.uleb128 0xe
 3103 0148 3A       		.uleb128 0x3a
 3104 0149 0B       		.uleb128 0xb
 3105 014a 3B       		.uleb128 0x3b
 3106 014b 0B       		.uleb128 0xb
 3107 014c 27       		.uleb128 0x27
 3108 014d 0C       		.uleb128 0xc
 3109 014e 20       		.uleb128 0x20
 3110 014f 0B       		.uleb128 0xb
 3111 0150 01       		.uleb128 0x1
 3112 0151 13       		.uleb128 0x13
 3113 0152 00       		.byte	0
 3114 0153 00       		.byte	0
 3115 0154 1D       		.uleb128 0x1d
 3116 0155 05       		.uleb128 0x5
 3117 0156 00       		.byte	0
 3118 0157 03       		.uleb128 0x3
 3119 0158 08       		.uleb128 0x8
 3120 0159 3A       		.uleb128 0x3a
 3121 015a 0B       		.uleb128 0xb
 3122 015b 3B       		.uleb128 0x3b
 3123 015c 0B       		.uleb128 0xb
 3124 015d 49       		.uleb128 0x49
 3125 015e 13       		.uleb128 0x13
 3126 015f 00       		.byte	0
 3127 0160 00       		.byte	0
 3128 0161 1E       		.uleb128 0x1e
 3129 0162 34       		.uleb128 0x34
 3130 0163 00       		.byte	0
 3131 0164 03       		.uleb128 0x3
ARM GAS  C:\DOCUME~1\ADMINI~1\LOCALS~1\Temp\ccmu8HAO.s 			page 56


 3132 0165 08       		.uleb128 0x8
 3133 0166 3A       		.uleb128 0x3a
 3134 0167 0B       		.uleb128 0xb
 3135 0168 3B       		.uleb128 0x3b
 3136 0169 0B       		.uleb128 0xb
 3137 016a 49       		.uleb128 0x49
 3138 016b 13       		.uleb128 0x13
 3139 016c 00       		.byte	0
 3140 016d 00       		.byte	0
 3141 016e 1F       		.uleb128 0x1f
 3142 016f 0B       		.uleb128 0xb
 3143 0170 01       		.byte	0x1
 3144 0171 01       		.uleb128 0x1
 3145 0172 13       		.uleb128 0x13
 3146 0173 00       		.byte	0
 3147 0174 00       		.byte	0
 3148 0175 20       		.uleb128 0x20
 3149 0176 0B       		.uleb128 0xb
 3150 0177 01       		.byte	0x1
 3151 0178 00       		.byte	0
 3152 0179 00       		.byte	0
 3153 017a 21       		.uleb128 0x21
 3154 017b 2E       		.uleb128 0x2e
 3155 017c 01       		.byte	0x1
 3156 017d 03       		.uleb128 0x3
 3157 017e 0E       		.uleb128 0xe
 3158 017f 3A       		.uleb128 0x3a
 3159 0180 0B       		.uleb128 0xb
 3160 0181 3B       		.uleb128 0x3b
 3161 0182 0B       		.uleb128 0xb
 3162 0183 27       		.uleb128 0x27
 3163 0184 0C       		.uleb128 0xc
 3164 0185 11       		.uleb128 0x11
 3165 0186 01       		.uleb128 0x1
 3166 0187 12       		.uleb128 0x12
 3167 0188 01       		.uleb128 0x1
 3168 0189 40       		.uleb128 0x40
 3169 018a 0A       		.uleb128 0xa
 3170 018b 9742     		.uleb128 0x2117
 3171 018d 0C       		.uleb128 0xc
 3172 018e 01       		.uleb128 0x1
 3173 018f 13       		.uleb128 0x13
 3174 0190 00       		.byte	0
 3175 0191 00       		.byte	0
 3176 0192 22       		.uleb128 0x22
 3177 0193 05       		.uleb128 0x5
 3178 0194 00       		.byte	0
 3179 0195 03       		.uleb128 0x3
 3180 0196 08       		.uleb128 0x8
 3181 0197 3A       		.uleb128 0x3a
 3182 0198 0B       		.uleb128 0xb
 3183 0199 3B       		.uleb128 0x3b
 3184 019a 0B       		.uleb128 0xb
 3185 019b 49       		.uleb128 0x49
 3186 019c 13       		.uleb128 0x13
 3187 019d 02       		.uleb128 0x2
 3188 019e 0A       		.uleb128 0xa
ARM GAS  C:\DOCUME~1\ADMINI~1\LOCALS~1\Temp\ccmu8HAO.s 			page 57


 3189 019f 00       		.byte	0
 3190 01a0 00       		.byte	0
 3191 01a1 23       		.uleb128 0x23
 3192 01a2 2E       		.uleb128 0x2e
 3193 01a3 01       		.byte	0x1
 3194 01a4 3F       		.uleb128 0x3f
 3195 01a5 0C       		.uleb128 0xc
 3196 01a6 03       		.uleb128 0x3
 3197 01a7 0E       		.uleb128 0xe
 3198 01a8 3A       		.uleb128 0x3a
 3199 01a9 0B       		.uleb128 0xb
 3200 01aa 3B       		.uleb128 0x3b
 3201 01ab 05       		.uleb128 0x5
 3202 01ac 27       		.uleb128 0x27
 3203 01ad 0C       		.uleb128 0xc
 3204 01ae 11       		.uleb128 0x11
 3205 01af 01       		.uleb128 0x1
 3206 01b0 12       		.uleb128 0x12
 3207 01b1 01       		.uleb128 0x1
 3208 01b2 40       		.uleb128 0x40
 3209 01b3 06       		.uleb128 0x6
 3210 01b4 9742     		.uleb128 0x2117
 3211 01b6 0C       		.uleb128 0xc
 3212 01b7 01       		.uleb128 0x1
 3213 01b8 13       		.uleb128 0x13
 3214 01b9 00       		.byte	0
 3215 01ba 00       		.byte	0
 3216 01bb 24       		.uleb128 0x24
 3217 01bc 1D       		.uleb128 0x1d
 3218 01bd 01       		.byte	0x1
 3219 01be 31       		.uleb128 0x31
 3220 01bf 13       		.uleb128 0x13
 3221 01c0 52       		.uleb128 0x52
 3222 01c1 01       		.uleb128 0x1
 3223 01c2 55       		.uleb128 0x55
 3224 01c3 06       		.uleb128 0x6
 3225 01c4 58       		.uleb128 0x58
 3226 01c5 0B       		.uleb128 0xb
 3227 01c6 59       		.uleb128 0x59
 3228 01c7 05       		.uleb128 0x5
 3229 01c8 01       		.uleb128 0x1
 3230 01c9 13       		.uleb128 0x13
 3231 01ca 00       		.byte	0
 3232 01cb 00       		.byte	0
 3233 01cc 25       		.uleb128 0x25
 3234 01cd 0B       		.uleb128 0xb
 3235 01ce 01       		.byte	0x1
 3236 01cf 55       		.uleb128 0x55
 3237 01d0 06       		.uleb128 0x6
 3238 01d1 00       		.byte	0
 3239 01d2 00       		.byte	0
 3240 01d3 26       		.uleb128 0x26
 3241 01d4 34       		.uleb128 0x34
 3242 01d5 00       		.byte	0
 3243 01d6 31       		.uleb128 0x31
 3244 01d7 13       		.uleb128 0x13
 3245 01d8 02       		.uleb128 0x2
ARM GAS  C:\DOCUME~1\ADMINI~1\LOCALS~1\Temp\ccmu8HAO.s 			page 58


 3246 01d9 0A       		.uleb128 0xa
 3247 01da 00       		.byte	0
 3248 01db 00       		.byte	0
 3249 01dc 27       		.uleb128 0x27
 3250 01dd 34       		.uleb128 0x34
 3251 01de 00       		.byte	0
 3252 01df 31       		.uleb128 0x31
 3253 01e0 13       		.uleb128 0x13
 3254 01e1 02       		.uleb128 0x2
 3255 01e2 06       		.uleb128 0x6
 3256 01e3 00       		.byte	0
 3257 01e4 00       		.byte	0
 3258 01e5 28       		.uleb128 0x28
 3259 01e6 05       		.uleb128 0x5
 3260 01e7 00       		.byte	0
 3261 01e8 31       		.uleb128 0x31
 3262 01e9 13       		.uleb128 0x13
 3263 01ea 02       		.uleb128 0x2
 3264 01eb 0A       		.uleb128 0xa
 3265 01ec 00       		.byte	0
 3266 01ed 00       		.byte	0
 3267 01ee 29       		.uleb128 0x29
 3268 01ef 0B       		.uleb128 0xb
 3269 01f0 01       		.byte	0x1
 3270 01f1 11       		.uleb128 0x11
 3271 01f2 01       		.uleb128 0x1
 3272 01f3 12       		.uleb128 0x12
 3273 01f4 01       		.uleb128 0x1
 3274 01f5 01       		.uleb128 0x1
 3275 01f6 13       		.uleb128 0x13
 3276 01f7 00       		.byte	0
 3277 01f8 00       		.byte	0
 3278 01f9 2A       		.uleb128 0x2a
 3279 01fa 1D       		.uleb128 0x1d
 3280 01fb 01       		.byte	0x1
 3281 01fc 31       		.uleb128 0x31
 3282 01fd 13       		.uleb128 0x13
 3283 01fe 11       		.uleb128 0x11
 3284 01ff 01       		.uleb128 0x1
 3285 0200 12       		.uleb128 0x12
 3286 0201 01       		.uleb128 0x1
 3287 0202 58       		.uleb128 0x58
 3288 0203 0B       		.uleb128 0xb
 3289 0204 59       		.uleb128 0x59
 3290 0205 0B       		.uleb128 0xb
 3291 0206 01       		.uleb128 0x1
 3292 0207 13       		.uleb128 0x13
 3293 0208 00       		.byte	0
 3294 0209 00       		.byte	0
 3295 020a 2B       		.uleb128 0x2b
 3296 020b 05       		.uleb128 0x5
 3297 020c 00       		.byte	0
 3298 020d 31       		.uleb128 0x31
 3299 020e 13       		.uleb128 0x13
 3300 020f 02       		.uleb128 0x2
 3301 0210 06       		.uleb128 0x6
 3302 0211 00       		.byte	0
ARM GAS  C:\DOCUME~1\ADMINI~1\LOCALS~1\Temp\ccmu8HAO.s 			page 59


 3303 0212 00       		.byte	0
 3304 0213 2C       		.uleb128 0x2c
 3305 0214 0B       		.uleb128 0xb
 3306 0215 01       		.byte	0x1
 3307 0216 11       		.uleb128 0x11
 3308 0217 01       		.uleb128 0x1
 3309 0218 12       		.uleb128 0x12
 3310 0219 01       		.uleb128 0x1
 3311 021a 00       		.byte	0
 3312 021b 00       		.byte	0
 3313 021c 2D       		.uleb128 0x2d
 3314 021d 898201   		.uleb128 0x4109
 3315 0220 01       		.byte	0x1
 3316 0221 11       		.uleb128 0x11
 3317 0222 01       		.uleb128 0x1
 3318 0223 31       		.uleb128 0x31
 3319 0224 13       		.uleb128 0x13
 3320 0225 00       		.byte	0
 3321 0226 00       		.byte	0
 3322 0227 2E       		.uleb128 0x2e
 3323 0228 8A8201   		.uleb128 0x410a
 3324 022b 00       		.byte	0
 3325 022c 02       		.uleb128 0x2
 3326 022d 0A       		.uleb128 0xa
 3327 022e 9142     		.uleb128 0x2111
 3328 0230 0A       		.uleb128 0xa
 3329 0231 00       		.byte	0
 3330 0232 00       		.byte	0
 3331 0233 2F       		.uleb128 0x2f
 3332 0234 898201   		.uleb128 0x4109
 3333 0237 01       		.byte	0x1
 3334 0238 11       		.uleb128 0x11
 3335 0239 01       		.uleb128 0x1
 3336 023a 31       		.uleb128 0x31
 3337 023b 13       		.uleb128 0x13
 3338 023c 01       		.uleb128 0x1
 3339 023d 13       		.uleb128 0x13
 3340 023e 00       		.byte	0
 3341 023f 00       		.byte	0
 3342 0240 30       		.uleb128 0x30
 3343 0241 898201   		.uleb128 0x4109
 3344 0244 00       		.byte	0
 3345 0245 11       		.uleb128 0x11
 3346 0246 01       		.uleb128 0x1
 3347 0247 9542     		.uleb128 0x2115
 3348 0249 0C       		.uleb128 0xc
 3349 024a 31       		.uleb128 0x31
 3350 024b 13       		.uleb128 0x13
 3351 024c 00       		.byte	0
 3352 024d 00       		.byte	0
 3353 024e 31       		.uleb128 0x31
 3354 024f 05       		.uleb128 0x5
 3355 0250 00       		.byte	0
 3356 0251 03       		.uleb128 0x3
 3357 0252 0E       		.uleb128 0xe
 3358 0253 3A       		.uleb128 0x3a
 3359 0254 0B       		.uleb128 0xb
ARM GAS  C:\DOCUME~1\ADMINI~1\LOCALS~1\Temp\ccmu8HAO.s 			page 60


 3360 0255 3B       		.uleb128 0x3b
 3361 0256 0B       		.uleb128 0xb
 3362 0257 49       		.uleb128 0x49
 3363 0258 13       		.uleb128 0x13
 3364 0259 00       		.byte	0
 3365 025a 00       		.byte	0
 3366 025b 32       		.uleb128 0x32
 3367 025c 05       		.uleb128 0x5
 3368 025d 00       		.byte	0
 3369 025e 03       		.uleb128 0x3
 3370 025f 08       		.uleb128 0x8
 3371 0260 3A       		.uleb128 0x3a
 3372 0261 0B       		.uleb128 0xb
 3373 0262 3B       		.uleb128 0x3b
 3374 0263 05       		.uleb128 0x5
 3375 0264 49       		.uleb128 0x49
 3376 0265 13       		.uleb128 0x13
 3377 0266 02       		.uleb128 0x2
 3378 0267 06       		.uleb128 0x6
 3379 0268 00       		.byte	0
 3380 0269 00       		.byte	0
 3381 026a 33       		.uleb128 0x33
 3382 026b 05       		.uleb128 0x5
 3383 026c 00       		.byte	0
 3384 026d 03       		.uleb128 0x3
 3385 026e 0E       		.uleb128 0xe
 3386 026f 3A       		.uleb128 0x3a
 3387 0270 0B       		.uleb128 0xb
 3388 0271 3B       		.uleb128 0x3b
 3389 0272 05       		.uleb128 0x5
 3390 0273 49       		.uleb128 0x49
 3391 0274 13       		.uleb128 0x13
 3392 0275 02       		.uleb128 0x2
 3393 0276 06       		.uleb128 0x6
 3394 0277 00       		.byte	0
 3395 0278 00       		.byte	0
 3396 0279 34       		.uleb128 0x34
 3397 027a 1D       		.uleb128 0x1d
 3398 027b 01       		.byte	0x1
 3399 027c 31       		.uleb128 0x31
 3400 027d 13       		.uleb128 0x13
 3401 027e 11       		.uleb128 0x11
 3402 027f 01       		.uleb128 0x1
 3403 0280 12       		.uleb128 0x12
 3404 0281 01       		.uleb128 0x1
 3405 0282 58       		.uleb128 0x58
 3406 0283 0B       		.uleb128 0xb
 3407 0284 59       		.uleb128 0x59
 3408 0285 05       		.uleb128 0x5
 3409 0286 01       		.uleb128 0x1
 3410 0287 13       		.uleb128 0x13
 3411 0288 00       		.byte	0
 3412 0289 00       		.byte	0
 3413 028a 35       		.uleb128 0x35
 3414 028b 2E       		.uleb128 0x2e
 3415 028c 01       		.byte	0x1
 3416 028d 3F       		.uleb128 0x3f
ARM GAS  C:\DOCUME~1\ADMINI~1\LOCALS~1\Temp\ccmu8HAO.s 			page 61


 3417 028e 0C       		.uleb128 0xc
 3418 028f 03       		.uleb128 0x3
 3419 0290 0E       		.uleb128 0xe
 3420 0291 3A       		.uleb128 0x3a
 3421 0292 0B       		.uleb128 0xb
 3422 0293 3B       		.uleb128 0x3b
 3423 0294 05       		.uleb128 0x5
 3424 0295 27       		.uleb128 0x27
 3425 0296 0C       		.uleb128 0xc
 3426 0297 11       		.uleb128 0x11
 3427 0298 01       		.uleb128 0x1
 3428 0299 12       		.uleb128 0x12
 3429 029a 01       		.uleb128 0x1
 3430 029b 40       		.uleb128 0x40
 3431 029c 0A       		.uleb128 0xa
 3432 029d 9742     		.uleb128 0x2117
 3433 029f 0C       		.uleb128 0xc
 3434 02a0 01       		.uleb128 0x1
 3435 02a1 13       		.uleb128 0x13
 3436 02a2 00       		.byte	0
 3437 02a3 00       		.byte	0
 3438 02a4 36       		.uleb128 0x36
 3439 02a5 898201   		.uleb128 0x4109
 3440 02a8 01       		.byte	0x1
 3441 02a9 11       		.uleb128 0x11
 3442 02aa 01       		.uleb128 0x1
 3443 02ab 9542     		.uleb128 0x2115
 3444 02ad 0C       		.uleb128 0xc
 3445 02ae 31       		.uleb128 0x31
 3446 02af 13       		.uleb128 0x13
 3447 02b0 00       		.byte	0
 3448 02b1 00       		.byte	0
 3449 02b2 37       		.uleb128 0x37
 3450 02b3 34       		.uleb128 0x34
 3451 02b4 00       		.byte	0
 3452 02b5 03       		.uleb128 0x3
 3453 02b6 0E       		.uleb128 0xe
 3454 02b7 3A       		.uleb128 0x3a
 3455 02b8 0B       		.uleb128 0xb
 3456 02b9 3B       		.uleb128 0x3b
 3457 02ba 0B       		.uleb128 0xb
 3458 02bb 49       		.uleb128 0x49
 3459 02bc 13       		.uleb128 0x13
 3460 02bd 02       		.uleb128 0x2
 3461 02be 0A       		.uleb128 0xa
 3462 02bf 00       		.byte	0
 3463 02c0 00       		.byte	0
 3464 02c1 38       		.uleb128 0x38
 3465 02c2 34       		.uleb128 0x34
 3466 02c3 00       		.byte	0
 3467 02c4 03       		.uleb128 0x3
 3468 02c5 0E       		.uleb128 0xe
 3469 02c6 3A       		.uleb128 0x3a
 3470 02c7 0B       		.uleb128 0xb
 3471 02c8 3B       		.uleb128 0x3b
 3472 02c9 05       		.uleb128 0x5
 3473 02ca 49       		.uleb128 0x49
ARM GAS  C:\DOCUME~1\ADMINI~1\LOCALS~1\Temp\ccmu8HAO.s 			page 62


 3474 02cb 13       		.uleb128 0x13
 3475 02cc 3F       		.uleb128 0x3f
 3476 02cd 0C       		.uleb128 0xc
 3477 02ce 3C       		.uleb128 0x3c
 3478 02cf 0C       		.uleb128 0xc
 3479 02d0 00       		.byte	0
 3480 02d1 00       		.byte	0
 3481 02d2 39       		.uleb128 0x39
 3482 02d3 34       		.uleb128 0x34
 3483 02d4 00       		.byte	0
 3484 02d5 03       		.uleb128 0x3
 3485 02d6 08       		.uleb128 0x8
 3486 02d7 3A       		.uleb128 0x3a
 3487 02d8 0B       		.uleb128 0xb
 3488 02d9 3B       		.uleb128 0x3b
 3489 02da 0B       		.uleb128 0xb
 3490 02db 49       		.uleb128 0x49
 3491 02dc 13       		.uleb128 0x13
 3492 02dd 3F       		.uleb128 0x3f
 3493 02de 0C       		.uleb128 0xc
 3494 02df 02       		.uleb128 0x2
 3495 02e0 0A       		.uleb128 0xa
 3496 02e1 00       		.byte	0
 3497 02e2 00       		.byte	0
 3498 02e3 3A       		.uleb128 0x3a
 3499 02e4 2E       		.uleb128 0x2e
 3500 02e5 01       		.byte	0x1
 3501 02e6 3F       		.uleb128 0x3f
 3502 02e7 0C       		.uleb128 0xc
 3503 02e8 03       		.uleb128 0x3
 3504 02e9 0E       		.uleb128 0xe
 3505 02ea 3A       		.uleb128 0x3a
 3506 02eb 0B       		.uleb128 0xb
 3507 02ec 3B       		.uleb128 0x3b
 3508 02ed 0B       		.uleb128 0xb
 3509 02ee 27       		.uleb128 0x27
 3510 02ef 0C       		.uleb128 0xc
 3511 02f0 3C       		.uleb128 0x3c
 3512 02f1 0C       		.uleb128 0xc
 3513 02f2 01       		.uleb128 0x1
 3514 02f3 13       		.uleb128 0x13
 3515 02f4 00       		.byte	0
 3516 02f5 00       		.byte	0
 3517 02f6 3B       		.uleb128 0x3b
 3518 02f7 2E       		.uleb128 0x2e
 3519 02f8 01       		.byte	0x1
 3520 02f9 3F       		.uleb128 0x3f
 3521 02fa 0C       		.uleb128 0xc
 3522 02fb 03       		.uleb128 0x3
 3523 02fc 0E       		.uleb128 0xe
 3524 02fd 3A       		.uleb128 0x3a
 3525 02fe 0B       		.uleb128 0xb
 3526 02ff 3B       		.uleb128 0x3b
 3527 0300 05       		.uleb128 0x5
 3528 0301 27       		.uleb128 0x27
 3529 0302 0C       		.uleb128 0xc
 3530 0303 49       		.uleb128 0x49
ARM GAS  C:\DOCUME~1\ADMINI~1\LOCALS~1\Temp\ccmu8HAO.s 			page 63


 3531 0304 13       		.uleb128 0x13
 3532 0305 3C       		.uleb128 0x3c
 3533 0306 0C       		.uleb128 0xc
 3534 0307 01       		.uleb128 0x1
 3535 0308 13       		.uleb128 0x13
 3536 0309 00       		.byte	0
 3537 030a 00       		.byte	0
 3538 030b 3C       		.uleb128 0x3c
 3539 030c 2E       		.uleb128 0x2e
 3540 030d 01       		.byte	0x1
 3541 030e 3F       		.uleb128 0x3f
 3542 030f 0C       		.uleb128 0xc
 3543 0310 03       		.uleb128 0x3
 3544 0311 0E       		.uleb128 0xe
 3545 0312 3A       		.uleb128 0x3a
 3546 0313 0B       		.uleb128 0xb
 3547 0314 3B       		.uleb128 0x3b
 3548 0315 05       		.uleb128 0x5
 3549 0316 27       		.uleb128 0x27
 3550 0317 0C       		.uleb128 0xc
 3551 0318 3C       		.uleb128 0x3c
 3552 0319 0C       		.uleb128 0xc
 3553 031a 01       		.uleb128 0x1
 3554 031b 13       		.uleb128 0x13
 3555 031c 00       		.byte	0
 3556 031d 00       		.byte	0
 3557 031e 3D       		.uleb128 0x3d
 3558 031f 2E       		.uleb128 0x2e
 3559 0320 00       		.byte	0
 3560 0321 3F       		.uleb128 0x3f
 3561 0322 0C       		.uleb128 0xc
 3562 0323 03       		.uleb128 0x3
 3563 0324 0E       		.uleb128 0xe
 3564 0325 3A       		.uleb128 0x3a
 3565 0326 0B       		.uleb128 0xb
 3566 0327 3B       		.uleb128 0x3b
 3567 0328 05       		.uleb128 0x5
 3568 0329 27       		.uleb128 0x27
 3569 032a 0C       		.uleb128 0xc
 3570 032b 3C       		.uleb128 0x3c
 3571 032c 0C       		.uleb128 0xc
 3572 032d 00       		.byte	0
 3573 032e 00       		.byte	0
 3574 032f 3E       		.uleb128 0x3e
 3575 0330 2E       		.uleb128 0x2e
 3576 0331 01       		.byte	0x1
 3577 0332 3F       		.uleb128 0x3f
 3578 0333 0C       		.uleb128 0xc
 3579 0334 03       		.uleb128 0x3
 3580 0335 0E       		.uleb128 0xe
 3581 0336 3A       		.uleb128 0x3a
 3582 0337 0B       		.uleb128 0xb
 3583 0338 3B       		.uleb128 0x3b
 3584 0339 05       		.uleb128 0x5
 3585 033a 27       		.uleb128 0x27
 3586 033b 0C       		.uleb128 0xc
 3587 033c 3C       		.uleb128 0x3c
ARM GAS  C:\DOCUME~1\ADMINI~1\LOCALS~1\Temp\ccmu8HAO.s 			page 64


 3588 033d 0C       		.uleb128 0xc
 3589 033e 00       		.byte	0
 3590 033f 00       		.byte	0
 3591 0340 00       		.byte	0
 3592              		.section	.debug_loc,"",%progbits
 3593              	.Ldebug_loc0:
 3594              	.LLST0:
 3595 0000 00000000 		.4byte	.LFB67
 3596 0004 04000000 		.4byte	.LCFI0
 3597 0008 0200     		.2byte	0x2
 3598 000a 7D       		.byte	0x7d
 3599 000b 00       		.sleb128 0
 3600 000c 04000000 		.4byte	.LCFI0
 3601 0010 5C010000 		.4byte	.LFE67
 3602 0014 0200     		.2byte	0x2
 3603 0016 7D       		.byte	0x7d
 3604 0017 18       		.sleb128 24
 3605 0018 00000000 		.4byte	0
 3606 001c 00000000 		.4byte	0
 3607              	.LLST1:
 3608 0020 14000000 		.4byte	.LVL3
 3609 0024 44000000 		.4byte	.LVL10
 3610 0028 0100     		.2byte	0x1
 3611 002a 54       		.byte	0x54
 3612 002b 80000000 		.4byte	.LVL19
 3613 002f 5C010000 		.4byte	.LFE67
 3614 0033 0100     		.2byte	0x1
 3615 0035 54       		.byte	0x54
 3616 0036 00000000 		.4byte	0
 3617 003a 00000000 		.4byte	0
 3618              	.LLST2:
 3619 003e 18000000 		.4byte	.LVL4
 3620 0042 1A000000 		.4byte	.LVL5
 3621 0046 0100     		.2byte	0x1
 3622 0048 51       		.byte	0x51
 3623 0049 1A000000 		.4byte	.LVL5
 3624 004d 40000000 		.4byte	.LVL9
 3625 0051 0100     		.2byte	0x1
 3626 0053 58       		.byte	0x58
 3627 0054 80000000 		.4byte	.LVL19
 3628 0058 C2000000 		.4byte	.LVL32
 3629 005c 0100     		.2byte	0x1
 3630 005e 58       		.byte	0x58
 3631 005f C2000000 		.4byte	.LVL32
 3632 0063 FE000000 		.4byte	.LVL41
 3633 0067 0100     		.2byte	0x1
 3634 0069 51       		.byte	0x51
 3635 006a FE000000 		.4byte	.LVL41
 3636 006e 16010000 		.4byte	.LVL47
 3637 0072 0100     		.2byte	0x1
 3638 0074 58       		.byte	0x58
 3639 0075 00000000 		.4byte	0
 3640 0079 00000000 		.4byte	0
 3641              	.LLST3:
 3642 007d 4E000000 		.4byte	.LVL12
 3643 0081 50000000 		.4byte	.LVL13
 3644 0085 0100     		.2byte	0x1
ARM GAS  C:\DOCUME~1\ADMINI~1\LOCALS~1\Temp\ccmu8HAO.s 			page 65


 3645 0087 53       		.byte	0x53
 3646 0088 00000000 		.4byte	0
 3647 008c 00000000 		.4byte	0
 3648              	.LLST4:
 3649 0090 64000000 		.4byte	.LVL16
 3650 0094 68000000 		.4byte	.LVL17
 3651 0098 0100     		.2byte	0x1
 3652 009a 53       		.byte	0x53
 3653 009b 00000000 		.4byte	0
 3654 009f 00000000 		.4byte	0
 3655              	.LLST5:
 3656 00a3 86000000 		.4byte	.LVL21
 3657 00a7 8F000000 		.4byte	.LVL22-1
 3658 00ab 0100     		.2byte	0x1
 3659 00ad 53       		.byte	0x53
 3660 00ae 00000000 		.4byte	0
 3661 00b2 00000000 		.4byte	0
 3662              	.LLST6:
 3663 00b6 2E000000 		.4byte	.LVL7
 3664 00ba 32000000 		.4byte	.LVL8
 3665 00be 0100     		.2byte	0x1
 3666 00c0 53       		.byte	0x53
 3667 00c1 96000000 		.4byte	.LVL23
 3668 00c5 98000000 		.4byte	.LVL24
 3669 00c9 0100     		.2byte	0x1
 3670 00cb 53       		.byte	0x53
 3671 00cc 00000000 		.4byte	0
 3672 00d0 00000000 		.4byte	0
 3673              	.LLST7:
 3674 00d4 9E000000 		.4byte	.LVL26
 3675 00d8 A0000000 		.4byte	.LVL27
 3676 00dc 0100     		.2byte	0x1
 3677 00de 53       		.byte	0x53
 3678 00df 00000000 		.4byte	0
 3679 00e3 00000000 		.4byte	0
 3680              	.LLST8:
 3681 00e7 B4000000 		.4byte	.LVL30
 3682 00eb B6000000 		.4byte	.LVL31
 3683 00ef 0100     		.2byte	0x1
 3684 00f1 53       		.byte	0x53
 3685 00f2 00000000 		.4byte	0
 3686 00f6 00000000 		.4byte	0
 3687              	.LLST9:
 3688 00fa C2000000 		.4byte	.LVL32
 3689 00fe 0C010000 		.4byte	.LVL44
 3690 0102 0100     		.2byte	0x1
 3691 0104 54       		.byte	0x54
 3692 0105 00000000 		.4byte	0
 3693 0109 00000000 		.4byte	0
 3694              	.LLST10:
 3695 010d C2000000 		.4byte	.LVL32
 3696 0111 D0000000 		.4byte	.LVL33
 3697 0115 0200     		.2byte	0x2
 3698 0117 30       		.byte	0x30
 3699 0118 9F       		.byte	0x9f
 3700 0119 D0000000 		.4byte	.LVL33
 3701 011d FC000000 		.4byte	.LVL40
ARM GAS  C:\DOCUME~1\ADMINI~1\LOCALS~1\Temp\ccmu8HAO.s 			page 66


 3702 0121 0100     		.2byte	0x1
 3703 0123 52       		.byte	0x52
 3704 0124 00000000 		.4byte	0
 3705 0128 00000000 		.4byte	0
 3706              	.LLST11:
 3707 012c C2000000 		.4byte	.LVL32
 3708 0130 0C010000 		.4byte	.LVL44
 3709 0134 0600     		.2byte	0x6
 3710 0136 03       		.byte	0x3
 3711 0137 00000000 		.4byte	SD1
 3712 013b 9F       		.byte	0x9f
 3713 013c 00000000 		.4byte	0
 3714 0140 00000000 		.4byte	0
 3715              	.LLST12:
 3716 0144 F6000000 		.4byte	.LVL38
 3717 0148 F8000000 		.4byte	.LVL39
 3718 014c 0100     		.2byte	0x1
 3719 014e 53       		.byte	0x53
 3720 014f 00000000 		.4byte	0
 3721 0153 00000000 		.4byte	0
 3722              	.LLST13:
 3723 0157 1A000000 		.4byte	.LVL5
 3724 015b 1E000000 		.4byte	.LVL6
 3725 015f 0100     		.2byte	0x1
 3726 0161 53       		.byte	0x53
 3727 0162 0A010000 		.4byte	.LVL43
 3728 0166 0C010000 		.4byte	.LVL44
 3729 016a 0100     		.2byte	0x1
 3730 016c 53       		.byte	0x53
 3731 016d 00000000 		.4byte	0
 3732 0171 00000000 		.4byte	0
 3733              	.LLST14:
 3734 0175 1E010000 		.4byte	.LVL48
 3735 0179 24010000 		.4byte	.LVL49
 3736 017d 0100     		.2byte	0x1
 3737 017f 50       		.byte	0x50
 3738 0180 00000000 		.4byte	0
 3739 0184 00000000 		.4byte	0
 3740              	.LLST15:
 3741 0188 12010000 		.4byte	.LVL46
 3742 018c 1D010000 		.4byte	.LVL48-1
 3743 0190 0100     		.2byte	0x1
 3744 0192 53       		.byte	0x53
 3745 0193 00000000 		.4byte	0
 3746 0197 00000000 		.4byte	0
 3747              	.LLST16:
 3748 019b 40000000 		.4byte	.LVL9
 3749 019f 4A000000 		.4byte	.LVL11
 3750 01a3 0100     		.2byte	0x1
 3751 01a5 53       		.byte	0x53
 3752 01a6 78000000 		.4byte	.LVL18
 3753 01aa 7F000000 		.4byte	.LVL19-1
 3754 01ae 0100     		.2byte	0x1
 3755 01b0 53       		.byte	0x53
 3756 01b1 2E010000 		.4byte	.LVL50
 3757 01b5 30010000 		.4byte	.LVL51
 3758 01b9 0100     		.2byte	0x1
ARM GAS  C:\DOCUME~1\ADMINI~1\LOCALS~1\Temp\ccmu8HAO.s 			page 67


 3759 01bb 53       		.byte	0x53
 3760 01bc 00000000 		.4byte	0
 3761 01c0 00000000 		.4byte	0
 3762              	.LLST17:
 3763 01c4 00000000 		.4byte	.LFB68
 3764 01c8 02000000 		.4byte	.LCFI1
 3765 01cc 0200     		.2byte	0x2
 3766 01ce 7D       		.byte	0x7d
 3767 01cf 00       		.sleb128 0
 3768 01d0 02000000 		.4byte	.LCFI1
 3769 01d4 26000000 		.4byte	.LFE68
 3770 01d8 0200     		.2byte	0x2
 3771 01da 7D       		.byte	0x7d
 3772 01db 08       		.sleb128 8
 3773 01dc 00000000 		.4byte	0
 3774 01e0 00000000 		.4byte	0
 3775              	.LLST18:
 3776 01e4 00000000 		.4byte	.LFB69
 3777 01e8 02000000 		.4byte	.LCFI2
 3778 01ec 0200     		.2byte	0x2
 3779 01ee 7D       		.byte	0x7d
 3780 01ef 00       		.sleb128 0
 3781 01f0 02000000 		.4byte	.LCFI2
 3782 01f4 7C000000 		.4byte	.LFE69
 3783 01f8 0200     		.2byte	0x2
 3784 01fa 7D       		.byte	0x7d
 3785 01fb 10       		.sleb128 16
 3786 01fc 00000000 		.4byte	0
 3787 0200 00000000 		.4byte	0
 3788              	.LLST19:
 3789 0204 00000000 		.4byte	.LVL54
 3790 0208 12000000 		.4byte	.LVL56
 3791 020c 0100     		.2byte	0x1
 3792 020e 50       		.byte	0x50
 3793 020f 12000000 		.4byte	.LVL56
 3794 0213 52000000 		.4byte	.LVL59
 3795 0217 0100     		.2byte	0x1
 3796 0219 55       		.byte	0x55
 3797 021a 52000000 		.4byte	.LVL59
 3798 021e 64000000 		.4byte	.LVL60
 3799 0222 0100     		.2byte	0x1
 3800 0224 50       		.byte	0x50
 3801 0225 64000000 		.4byte	.LVL60
 3802 0229 7C000000 		.4byte	.LFE69
 3803 022d 0100     		.2byte	0x1
 3804 022f 55       		.byte	0x55
 3805 0230 00000000 		.4byte	0
 3806 0234 00000000 		.4byte	0
 3807              	.LLST20:
 3808 0238 00000000 		.4byte	.LVL54
 3809 023c 0E000000 		.4byte	.LVL55
 3810 0240 0100     		.2byte	0x1
 3811 0242 51       		.byte	0x51
 3812 0243 0E000000 		.4byte	.LVL55
 3813 0247 7C000000 		.4byte	.LFE69
 3814 024b 0100     		.2byte	0x1
 3815 024d 54       		.byte	0x54
ARM GAS  C:\DOCUME~1\ADMINI~1\LOCALS~1\Temp\ccmu8HAO.s 			page 68


 3816 024e 00000000 		.4byte	0
 3817 0252 00000000 		.4byte	0
 3818              	.LLST21:
 3819 0256 12000000 		.4byte	.LVL56
 3820 025a 52000000 		.4byte	.LVL59
 3821 025e 0100     		.2byte	0x1
 3822 0260 54       		.byte	0x54
 3823 0261 00000000 		.4byte	0
 3824 0265 00000000 		.4byte	0
 3825              	.LLST22:
 3826 0269 12000000 		.4byte	.LVL56
 3827 026d 52000000 		.4byte	.LVL59
 3828 0271 0100     		.2byte	0x1
 3829 0273 55       		.byte	0x55
 3830 0274 00000000 		.4byte	0
 3831 0278 00000000 		.4byte	0
 3832              	.LLST23:
 3833 027c 1E000000 		.4byte	.LVL57
 3834 0280 50000000 		.4byte	.LVL58
 3835 0284 0100     		.2byte	0x1
 3836 0286 53       		.byte	0x53
 3837 0287 50000000 		.4byte	.LVL58
 3838 028b 52000000 		.4byte	.LVL59
 3839 028f 0300     		.2byte	0x3
 3840 0291 75       		.byte	0x75
 3841 0292 F000     		.sleb128 112
 3842 0294 00000000 		.4byte	0
 3843 0298 00000000 		.4byte	0
 3844              	.LLST24:
 3845 029c 00000000 		.4byte	.LVL62
 3846 02a0 24000000 		.4byte	.LVL65
 3847 02a4 0100     		.2byte	0x1
 3848 02a6 50       		.byte	0x50
 3849 02a7 24000000 		.4byte	.LVL65
 3850 02ab 34000000 		.4byte	.LFE70
 3851 02af 0400     		.2byte	0x4
 3852 02b1 F3       		.byte	0xf3
 3853 02b2 01       		.uleb128 0x1
 3854 02b3 50       		.byte	0x50
 3855 02b4 9F       		.byte	0x9f
 3856 02b5 00000000 		.4byte	0
 3857 02b9 00000000 		.4byte	0
 3858              	.LLST25:
 3859 02bd 0A000000 		.4byte	.LVL63
 3860 02c1 14000000 		.4byte	.LVL64
 3861 02c5 0100     		.2byte	0x1
 3862 02c7 53       		.byte	0x53
 3863 02c8 14000000 		.4byte	.LVL64
 3864 02cc 24000000 		.4byte	.LVL65
 3865 02d0 0300     		.2byte	0x3
 3866 02d2 70       		.byte	0x70
 3867 02d3 F000     		.sleb128 112
 3868 02d5 24000000 		.4byte	.LVL65
 3869 02d9 2D000000 		.4byte	.LVL66-1
 3870 02dd 0500     		.2byte	0x5
 3871 02df F3       		.byte	0xf3
 3872 02e0 01       		.uleb128 0x1
ARM GAS  C:\DOCUME~1\ADMINI~1\LOCALS~1\Temp\ccmu8HAO.s 			page 69


 3873 02e1 50       		.byte	0x50
 3874 02e2 23       		.byte	0x23
 3875 02e3 70       		.uleb128 0x70
 3876 02e4 00000000 		.4byte	0
 3877 02e8 00000000 		.4byte	0
 3878              		.section	.debug_aranges,"",%progbits
 3879 0000 3C000000 		.4byte	0x3c
 3880 0004 0200     		.2byte	0x2
 3881 0006 00000000 		.4byte	.Ldebug_info0
 3882 000a 04       		.byte	0x4
 3883 000b 00       		.byte	0
 3884 000c 0000     		.2byte	0
 3885 000e 0000     		.2byte	0
 3886 0010 00000000 		.4byte	.LFB66
 3887 0014 14000000 		.4byte	.LFE66-.LFB66
 3888 0018 00000000 		.4byte	.LFB67
 3889 001c 5C010000 		.4byte	.LFE67-.LFB67
 3890 0020 00000000 		.4byte	.LFB68
 3891 0024 26000000 		.4byte	.LFE68-.LFB68
 3892 0028 00000000 		.4byte	.LFB69
 3893 002c 7C000000 		.4byte	.LFE69-.LFB69
 3894 0030 00000000 		.4byte	.LFB70
 3895 0034 34000000 		.4byte	.LFE70-.LFB70
 3896 0038 00000000 		.4byte	0
 3897 003c 00000000 		.4byte	0
 3898              		.section	.debug_ranges,"",%progbits
 3899              	.Ldebug_ranges0:
 3900 0000 04000000 		.4byte	.LBB30
 3901 0004 78000000 		.4byte	.LBE30
 3902 0008 80000000 		.4byte	.LBB46
 3903 000c 5C010000 		.4byte	.LBE46
 3904 0010 00000000 		.4byte	0
 3905 0014 00000000 		.4byte	0
 3906 0018 04000000 		.4byte	.LBB31
 3907 001c 78000000 		.4byte	.LBE31
 3908 0020 80000000 		.4byte	.LBB45
 3909 0024 5C010000 		.4byte	.LBE45
 3910 0028 00000000 		.4byte	0
 3911 002c 00000000 		.4byte	0
 3912 0030 00000000 		.4byte	.LFB66
 3913 0034 14000000 		.4byte	.LFE66
 3914 0038 00000000 		.4byte	.LFB67
 3915 003c 5C010000 		.4byte	.LFE67
 3916 0040 00000000 		.4byte	.LFB68
 3917 0044 26000000 		.4byte	.LFE68
 3918 0048 00000000 		.4byte	.LFB69
 3919 004c 7C000000 		.4byte	.LFE69
 3920 0050 00000000 		.4byte	.LFB70
 3921 0054 34000000 		.4byte	.LFE70
 3922 0058 00000000 		.4byte	0
 3923 005c 00000000 		.4byte	0
 3924              		.section	.debug_line,"",%progbits
 3925              	.Ldebug_line0:
 3926 0000 10030000 		.section	.debug_str,"MS",%progbits,1
 3926      02003C02 
 3926      00000201 
 3926      FB0E0D00 
ARM GAS  C:\DOCUME~1\ADMINI~1\LOCALS~1\Temp\ccmu8HAO.s 			page 70


 3926      01010101 
 3927              	.LASF14:
 3928 0000 75696E74 		.ascii	"uint_fast16_t\000"
 3928      5F666173 
 3928      7431365F 
 3928      7400
 3929              	.LASF110:
 3930 000e 54494D31 		.ascii	"TIM11_IRQn\000"
 3930      315F4952 
 3930      516E00
 3931              	.LASF43:
 3932 0019 54687265 		.ascii	"ThreadsList\000"
 3932      6164734C 
 3932      69737400 
 3933              	.LASF35:
 3934 0025 705F7761 		.ascii	"p_waiting\000"
 3934      6974696E 
 3934      6700
 3935              	.LASF153:
 3936 002f 53657269 		.ascii	"SerialDriver\000"
 3936      616C4472 
 3936      69766572 
 3936      00
 3937              	.LASF135:
 3938 003c 41504231 		.ascii	"APB1ENR\000"
 3938      454E5200 
 3939              	.LASF34:
 3940 0044 705F7469 		.ascii	"p_time\000"
 3940      6D6500
 3941              	.LASF44:
 3942 004b 72656761 		.ascii	"regarm_t\000"
 3942      726D5F74 
 3942      00
 3943              	.LASF26:
 3944 0054 705F7072 		.ascii	"p_prio\000"
 3944      696F00
 3945              	.LASF174:
 3946 005b 7365745F 		.ascii	"set_error\000"
 3946      6572726F 
 3946      7200
 3947              	.LASF137:
 3948 0065 41504232 		.ascii	"APB2LPENR\000"
 3948      4C50454E 
 3948      5200
 3949              	.LASF131:
 3950 006f 41504232 		.ascii	"APB2RSTR\000"
 3950      52535452 
 3950      00
 3951              	.LASF108:
 3952 0078 54494D39 		.ascii	"TIM9_IRQn\000"
 3952      5F495251 
 3952      6E00
 3953              	.LASF100:
 3954 0082 444D4131 		.ascii	"DMA1_Channel7_IRQn\000"
 3954      5F436861 
 3954      6E6E656C 
 3954      375F4952 
ARM GAS  C:\DOCUME~1\ADMINI~1\LOCALS~1\Temp\ccmu8HAO.s 			page 71


 3954      516E00
 3955              	.LASF158:
 3956 0095 6F717565 		.ascii	"oqueue\000"
 3956      756500
 3957              	.LASF117:
 3958 009c 49324332 		.ascii	"I2C2_ER_IRQn\000"
 3958      5F45525F 
 3958      4952516E 
 3958      00
 3959              	.LASF155:
 3960 00a9 666C6167 		.ascii	"flags\000"
 3960      7300
 3961              	.LASF22:
 3962 00af 73797374 		.ascii	"systime_t\000"
 3962      696D655F 
 3962      7400
 3963              	.LASF50:
 3964 00b9 6D5F6F77 		.ascii	"m_owner\000"
 3964      6E657200 
 3965              	.LASF113:
 3966 00c1 54494D34 		.ascii	"TIM4_IRQn\000"
 3966      5F495251 
 3966      6E00
 3967              	.LASF95:
 3968 00cb 444D4131 		.ascii	"DMA1_Channel2_IRQn\000"
 3968      5F436861 
 3968      6E6E656C 
 3968      325F4952 
 3968      516E00
 3969              	.LASF36:
 3970 00de 705F6D73 		.ascii	"p_msgqueue\000"
 3970      67717565 
 3970      756500
 3971              	.LASF0:
 3972 00e9 756E7369 		.ascii	"unsigned int\000"
 3972      676E6564 
 3972      20696E74 
 3972      00
 3973              	.LASF82:
 3974 00f6 53797354 		.ascii	"SysTick_IRQn\000"
 3974      69636B5F 
 3974      4952516E 
 3974      00
 3975              	.LASF69:
 3976 0103 715F7264 		.ascii	"q_rdptr\000"
 3976      70747200 
 3977              	.LASF87:
 3978 010b 464C4153 		.ascii	"FLASH_IRQn\000"
 3978      485F4952 
 3978      516E00
 3979              	.LASF71:
 3980 0116 716E6F74 		.ascii	"qnotify_t\000"
 3980      6966795F 
 3980      7400
 3981              	.LASF55:
 3982 0120 656C5F6D 		.ascii	"el_mask\000"
 3982      61736B00 
ARM GAS  C:\DOCUME~1\ADMINI~1\LOCALS~1\Temp\ccmu8HAO.s 			page 72


 3983              	.LASF89:
 3984 0128 45585449 		.ascii	"EXTI0_IRQn\000"
 3984      305F4952 
 3984      516E00
 3985              	.LASF188:
 3986 0133 2E2E2F2E 		.ascii	"../../os/hal/platforms/STM32/serial_lld.c\000"
 3986      2E2F6F73 
 3986      2F68616C 
 3986      2F706C61 
 3986      74666F72 
 3987              	.LASF60:
 3988 015d 77746F62 		.ascii	"wtobjp\000"
 3988      6A7000
 3989              	.LASF189:
 3990 0164 433A5C70 		.ascii	"C:\\projects\\ChibiOS_2.4.2\\demos\\ARMCM3-STM32L15"
 3990      726F6A65 
 3990      6374735C 
 3990      43686962 
 3990      694F535F 
 3991 0193 322D4449 		.ascii	"2-DISCOVERY\000"
 3991      53434F56 
 3991      45525900 
 3992              	.LASF123:
 3993 019f 45585449 		.ascii	"EXTI15_10_IRQn\000"
 3993      31355F31 
 3993      305F4952 
 3993      516E00
 3994              	.LASF185:
 3995 01ae 73644F62 		.ascii	"sdObjectInit\000"
 3995      6A656374 
 3995      496E6974 
 3995      00
 3996              	.LASF61:
 3997 01bb 65776D61 		.ascii	"ewmask\000"
 3997      736B00
 3998              	.LASF184:
 3999 01c2 7364496E 		.ascii	"sdIncomingDataI\000"
 3999      636F6D69 
 3999      6E674461 
 3999      74614900 
 4000              	.LASF195:
 4001 01d2 6E766963 		.ascii	"nvicDisableVector\000"
 4001      44697361 
 4001      626C6556 
 4001      6563746F 
 4001      7200
 4002              	.LASF81:
 4003 01e4 50656E64 		.ascii	"PendSV_IRQn\000"
 4003      53565F49 
 4003      52516E00 
 4004              	.LASF170:
 4005 01f0 77726974 		.ascii	"writet\000"
 4005      657400
 4006              	.LASF88:
 4007 01f7 5243435F 		.ascii	"RCC_IRQn\000"
 4007      4952516E 
 4007      00
ARM GAS  C:\DOCUME~1\ADMINI~1\LOCALS~1\Temp\ccmu8HAO.s 			page 73


 4008              	.LASF146:
 4009 0200 47545052 		.ascii	"GTPR\000"
 4009      00
 4010              	.LASF76:
 4011 0205 4D656D6F 		.ascii	"MemoryManagement_IRQn\000"
 4011      72794D61 
 4011      6E616765 
 4011      6D656E74 
 4011      5F495251 
 4012              	.LASF193:
 4013 021b 63684F51 		.ascii	"chOQGetI\000"
 4013      47657449 
 4013      00
 4014              	.LASF157:
 4015 0224 69717565 		.ascii	"iqueue\000"
 4015      756500
 4016              	.LASF10:
 4017 022b 75696E74 		.ascii	"uint32_t\000"
 4017      33325F74 
 4017      00
 4018              	.LASF85:
 4019 0234 54414D50 		.ascii	"TAMPER_STAMP_IRQn\000"
 4019      45525F53 
 4019      54414D50 
 4019      5F495251 
 4019      6E00
 4020              	.LASF21:
 4021 0246 6576656E 		.ascii	"eventmask_t\000"
 4021      746D6173 
 4021      6B5F7400 
 4022              	.LASF130:
 4023 0252 41484252 		.ascii	"AHBRSTR\000"
 4023      53545200 
 4024              	.LASF187:
 4025 025a 474E5520 		.ascii	"GNU C 4.7.1\000"
 4025      4320342E 
 4025      372E3100 
 4026              	.LASF152:
 4027 0266 73647374 		.ascii	"sdstate_t\000"
 4027      6174655F 
 4027      7400
 4028              	.LASF154:
 4029 0270 6576656E 		.ascii	"event\000"
 4029      7400
 4030              	.LASF19:
 4031 0276 74707269 		.ascii	"tprio_t\000"
 4031      6F5F7400 
 4032              	.LASF162:
 4033 027e 73635F63 		.ascii	"sc_cr2\000"
 4033      723200
 4034              	.LASF163:
 4035 0285 73635F63 		.ascii	"sc_cr3\000"
 4035      723300
 4036              	.LASF118:
 4037 028c 53504931 		.ascii	"SPI1_IRQn\000"
 4037      5F495251 
 4037      6E00
ARM GAS  C:\DOCUME~1\ADMINI~1\LOCALS~1\Temp\ccmu8HAO.s 			page 74


 4038              	.LASF126:
 4039 0296 54494D36 		.ascii	"TIM6_IRQn\000"
 4039      5F495251 
 4039      6E00
 4040              	.LASF97:
 4041 02a0 444D4131 		.ascii	"DMA1_Channel4_IRQn\000"
 4041      5F436861 
 4041      6E6E656C 
 4041      345F4952 
 4041      516E00
 4042              	.LASF13:
 4043 02b3 6C6F6E67 		.ascii	"long long unsigned int\000"
 4043      206C6F6E 
 4043      6720756E 
 4043      7369676E 
 4043      65642069 
 4044              	.LASF105:
 4045 02ca 434F4D50 		.ascii	"COMP_IRQn\000"
 4045      5F495251 
 4045      6E00
 4046              	.LASF160:
 4047 02d4 73635F73 		.ascii	"sc_speed\000"
 4047      70656564 
 4047      00
 4048              	.LASF28:
 4049 02dd 705F6E65 		.ascii	"p_newer\000"
 4049      77657200 
 4050              	.LASF64:
 4051 02e5 715F7761 		.ascii	"q_waiting\000"
 4051      6974696E 
 4051      6700
 4052              	.LASF74:
 4053 02ef 696F666C 		.ascii	"ioflags_t\000"
 4053      6167735F 
 4053      7400
 4054              	.LASF56:
 4055 02f9 4576656E 		.ascii	"EventSource\000"
 4055      74536F75 
 4055      72636500 
 4056              	.LASF2:
 4057 0305 73697A65 		.ascii	"size_t\000"
 4057      5F7400
 4058              	.LASF58:
 4059 030c 7264796D 		.ascii	"rdymsg\000"
 4059      736700
 4060              	.LASF121:
 4061 0313 55534152 		.ascii	"USART2_IRQn\000"
 4061      54325F49 
 4061      52516E00 
 4062              	.LASF15:
 4063 031f 626F6F6C 		.ascii	"bool_t\000"
 4063      5F7400
 4064              	.LASF139:
 4065 0326 5243435F 		.ascii	"RCC_TypeDef\000"
 4065      54797065 
 4065      44656600 
 4066              	.LASF150:
ARM GAS  C:\DOCUME~1\ADMINI~1\LOCALS~1\Temp\ccmu8HAO.s 			page 75


 4067 0332 53445F53 		.ascii	"SD_STOP\000"
 4067      544F5000 
 4068              	.LASF86:
 4069 033a 5254435F 		.ascii	"RTC_WKUP_IRQn\000"
 4069      574B5550 
 4069      5F495251 
 4069      6E00
 4070              	.LASF148:
 4071 0348 55534152 		.ascii	"USART_TypeDef\000"
 4071      545F5479 
 4071      70654465 
 4071      6600
 4072              	.LASF48:
 4073 0356 4D757465 		.ascii	"Mutex\000"
 4073      7800
 4074              	.LASF73:
 4075 035c 4F757470 		.ascii	"OutputQueue\000"
 4075      75745175 
 4075      65756500 
 4076              	.LASF70:
 4077 0368 715F6E6F 		.ascii	"q_notify\000"
 4077      74696679 
 4077      00
 4078              	.LASF91:
 4079 0371 45585449 		.ascii	"EXTI2_IRQn\000"
 4079      325F4952 
 4079      516E00
 4080              	.LASF30:
 4081 037c 705F6E61 		.ascii	"p_name\000"
 4081      6D6500
 4082              	.LASF101:
 4083 0383 41444331 		.ascii	"ADC1_IRQn\000"
 4083      5F495251 
 4083      6E00
 4084              	.LASF132:
 4085 038d 41504231 		.ascii	"APB1RSTR\000"
 4085      52535452 
 4085      00
 4086              	.LASF116:
 4087 0396 49324332 		.ascii	"I2C2_EV_IRQn\000"
 4087      5F45565F 
 4087      4952516E 
 4087      00
 4088              	.LASF161:
 4089 03a3 73635F63 		.ascii	"sc_cr1\000"
 4089      723100
 4090              	.LASF72:
 4091 03aa 496E7075 		.ascii	"InputQueue\000"
 4091      74517565 
 4091      756500
 4092              	.LASF42:
 4093 03b5 54687265 		.ascii	"ThreadsQueue\000"
 4093      61647351 
 4093      75657565 
 4093      00
 4094              	.LASF62:
 4095 03c2 63686172 		.ascii	"char\000"
ARM GAS  C:\DOCUME~1\ADMINI~1\LOCALS~1\Temp\ccmu8HAO.s 			page 76


 4095      00
 4096              	.LASF99:
 4097 03c7 444D4131 		.ascii	"DMA1_Channel6_IRQn\000"
 4097      5F436861 
 4097      6E6E656C 
 4097      365F4952 
 4097      516E00
 4098              	.LASF68:
 4099 03da 715F7772 		.ascii	"q_wrptr\000"
 4099      70747200 
 4100              	.LASF112:
 4101 03e2 54494D33 		.ascii	"TIM3_IRQn\000"
 4101      5F495251 
 4101      6E00
 4102              	.LASF94:
 4103 03ec 444D4131 		.ascii	"DMA1_Channel1_IRQn\000"
 4103      5F436861 
 4103      6E6E656C 
 4103      315F4952 
 4103      516E00
 4104              	.LASF23:
 4105 03ff 54687265 		.ascii	"Thread\000"
 4105      616400
 4106              	.LASF17:
 4107 0406 74737461 		.ascii	"tstate_t\000"
 4107      74655F74 
 4107      00
 4108              	.LASF183:
 4109 040f 63684576 		.ascii	"chEvtBroadcastFlagsI\000"
 4109      7442726F 
 4109      61646361 
 4109      7374466C 
 4109      61677349 
 4110              	.LASF133:
 4111 0424 41484245 		.ascii	"AHBENR\000"
 4111      4E5200
 4112              	.LASF29:
 4113 042b 705F6F6C 		.ascii	"p_older\000"
 4113      64657200 
 4114              	.LASF31:
 4115 0433 705F7374 		.ascii	"p_state\000"
 4115      61746500 
 4116              	.LASF3:
 4117 043b 75696E74 		.ascii	"uint8_t\000"
 4117      385F7400 
 4118              	.LASF41:
 4119 0443 705F6D70 		.ascii	"p_mpool\000"
 4119      6F6F6C00 
 4120              	.LASF39:
 4121 044b 705F6D74 		.ascii	"p_mtxlist\000"
 4121      786C6973 
 4121      7400
 4122              	.LASF109:
 4123 0455 54494D31 		.ascii	"TIM10_IRQn\000"
 4123      305F4952 
 4123      516E00
 4124              	.LASF136:
ARM GAS  C:\DOCUME~1\ADMINI~1\LOCALS~1\Temp\ccmu8HAO.s 			page 77


 4125 0460 4148424C 		.ascii	"AHBLPENR\000"
 4125      50454E52 
 4125      00
 4126              	.LASF159:
 4127 0469 75736172 		.ascii	"usart\000"
 4127      7400
 4128              	.LASF12:
 4129 046f 6C6F6E67 		.ascii	"long long int\000"
 4129      206C6F6E 
 4129      6720696E 
 4129      7400
 4130              	.LASF83:
 4131 047d 57574447 		.ascii	"WWDG_IRQn\000"
 4131      5F495251 
 4131      6E00
 4132              	.LASF166:
 4133 0487 77726974 		.ascii	"write\000"
 4133      6500
 4134              	.LASF66:
 4135 048d 715F6275 		.ascii	"q_buffer\000"
 4135      66666572 
 4135      00
 4136              	.LASF138:
 4137 0496 41504231 		.ascii	"APB1LPENR\000"
 4137      4C50454E 
 4137      5200
 4138              	.LASF20:
 4139 04a0 6D73675F 		.ascii	"msg_t\000"
 4139      7400
 4140              	.LASF181:
 4141 04a6 73645F6C 		.ascii	"sd_lld_stop\000"
 4141      6C645F73 
 4141      746F7000 
 4142              	.LASF46:
 4143 04b2 636F6E74 		.ascii	"context\000"
 4143      65787400 
 4144              	.LASF32:
 4145 04ba 705F666C 		.ascii	"p_flags\000"
 4145      61677300 
 4146              	.LASF77:
 4147 04c2 42757346 		.ascii	"BusFault_IRQn\000"
 4147      61756C74 
 4147      5F495251 
 4147      6E00
 4148              	.LASF172:
 4149 04d0 67657466 		.ascii	"getflags\000"
 4149      6C616773 
 4149      00
 4150              	.LASF93:
 4151 04d9 45585449 		.ascii	"EXTI4_IRQn\000"
 4151      345F4952 
 4151      516E00
 4152              	.LASF107:
 4153 04e4 4C43445F 		.ascii	"LCD_IRQn\000"
 4153      4952516E 
 4153      00
 4154              	.LASF128:
ARM GAS  C:\DOCUME~1\ADMINI~1\LOCALS~1\Temp\ccmu8HAO.s 			page 78


 4155 04ed 49435343 		.ascii	"ICSCR\000"
 4155      5200
 4156              	.LASF84:
 4157 04f3 5056445F 		.ascii	"PVD_IRQn\000"
 4157      4952516E 
 4157      00
 4158              	.LASF191:
 4159 04fc 6E6F7469 		.ascii	"notify1\000"
 4159      66793100 
 4160              	.LASF178:
 4161 0504 75736172 		.ascii	"usart_init\000"
 4161      745F696E 
 4161      697400
 4162              	.LASF134:
 4163 050f 41504232 		.ascii	"APB2ENR\000"
 4163      454E5200 
 4164              	.LASF176:
 4165 0517 56656374 		.ascii	"VectorD4\000"
 4165      6F724434 
 4165      00
 4166              	.LASF180:
 4167 0520 73645F6C 		.ascii	"sd_lld_start\000"
 4167      6C645F73 
 4167      74617274 
 4167      00
 4168              	.LASF96:
 4169 052d 444D4131 		.ascii	"DMA1_Channel3_IRQn\000"
 4169      5F436861 
 4169      6E6E656C 
 4169      335F4952 
 4169      516E00
 4170              	.LASF53:
 4171 0540 656C5F6E 		.ascii	"el_next\000"
 4171      65787400 
 4172              	.LASF37:
 4173 0548 705F6D73 		.ascii	"p_msg\000"
 4173      6700
 4174              	.LASF16:
 4175 054e 746D6F64 		.ascii	"tmode_t\000"
 4175      655F7400 
 4176              	.LASF114:
 4177 0556 49324331 		.ascii	"I2C1_EV_IRQn\000"
 4177      5F45565F 
 4177      4952516E 
 4177      00
 4178              	.LASF63:
 4179 0563 47656E65 		.ascii	"GenericQueue\000"
 4179      72696351 
 4179      75657565 
 4179      00
 4180              	.LASF106:
 4181 0570 45585449 		.ascii	"EXTI9_5_IRQn\000"
 4181      395F355F 
 4181      4952516E 
 4181      00
 4182              	.LASF6:
 4183 057d 75696E74 		.ascii	"uint16_t\000"
ARM GAS  C:\DOCUME~1\ADMINI~1\LOCALS~1\Temp\ccmu8HAO.s 			page 79


 4183      31365F74 
 4183      00
 4184              	.LASF190:
 4185 0586 4952516E 		.ascii	"IRQn\000"
 4185      00
 4186              	.LASF173:
 4187 058b 75736172 		.ascii	"usart_deinit\000"
 4187      745F6465 
 4187      696E6974 
 4187      00
 4188              	.LASF45:
 4189 0598 696E7463 		.ascii	"intctx\000"
 4189      747800
 4190              	.LASF151:
 4191 059f 53445F52 		.ascii	"SD_READY\000"
 4191      45414459 
 4191      00
 4192              	.LASF165:
 4193 05a8 53657269 		.ascii	"SerialDriverVMT\000"
 4193      616C4472 
 4193      69766572 
 4193      564D5400 
 4194              	.LASF169:
 4195 05b8 67657477 		.ascii	"getwouldblock\000"
 4195      6F756C64 
 4195      626C6F63 
 4195      6B00
 4196              	.LASF124:
 4197 05c6 5254435F 		.ascii	"RTC_Alarm_IRQn\000"
 4197      416C6172 
 4197      6D5F4952 
 4197      516E00
 4198              	.LASF179:
 4199 05d5 636F6E66 		.ascii	"config\000"
 4199      696700
 4200              	.LASF40:
 4201 05dc 705F7265 		.ascii	"p_realprio\000"
 4201      616C7072 
 4201      696F00
 4202              	.LASF141:
 4203 05e7 52455345 		.ascii	"RESERVED1\000"
 4203      52564544 
 4203      3100
 4204              	.LASF142:
 4205 05f1 52455345 		.ascii	"RESERVED2\000"
 4205      52564544 
 4205      3200
 4206              	.LASF143:
 4207 05fb 52455345 		.ascii	"RESERVED3\000"
 4207      52564544 
 4207      3300
 4208              	.LASF144:
 4209 0605 52455345 		.ascii	"RESERVED4\000"
 4209      52564544 
 4209      3400
 4210              	.LASF145:
 4211 060f 52455345 		.ascii	"RESERVED5\000"
ARM GAS  C:\DOCUME~1\ADMINI~1\LOCALS~1\Temp\ccmu8HAO.s 			page 80


 4211      52564544 
 4211      3500
 4212              	.LASF147:
 4213 0619 52455345 		.ascii	"RESERVED6\000"
 4213      52564544 
 4213      3600
 4214              	.LASF5:
 4215 0623 73686F72 		.ascii	"short int\000"
 4215      7420696E 
 4215      7400
 4216              	.LASF125:
 4217 062d 5553425F 		.ascii	"USB_FS_WKUP_IRQn\000"
 4217      46535F57 
 4217      4B55505F 
 4217      4952516E 
 4217      00
 4218              	.LASF38:
 4219 063e 705F6570 		.ascii	"p_epending\000"
 4219      656E6469 
 4219      6E6700
 4220              	.LASF49:
 4221 0649 6D5F7175 		.ascii	"m_queue\000"
 4221      65756500 
 4222              	.LASF9:
 4223 0651 6C6F6E67 		.ascii	"long int\000"
 4223      20696E74 
 4223      00
 4224              	.LASF120:
 4225 065a 55534152 		.ascii	"USART1_IRQn\000"
 4225      54315F49 
 4225      52516E00 
 4226              	.LASF168:
 4227 0666 70757477 		.ascii	"putwouldblock\000"
 4227      6F756C64 
 4227      626C6F63 
 4227      6B00
 4228              	.LASF182:
 4229 0674 49544D5F 		.ascii	"ITM_RxBuffer\000"
 4229      52784275 
 4229      66666572 
 4229      00
 4230              	.LASF75:
 4231 0681 4E6F6E4D 		.ascii	"NonMaskableInt_IRQn\000"
 4231      61736B61 
 4231      626C6549 
 4231      6E745F49 
 4231      52516E00 
 4232              	.LASF24:
 4233 0695 705F6E65 		.ascii	"p_next\000"
 4233      787400
 4234              	.LASF27:
 4235 069c 705F6374 		.ascii	"p_ctx\000"
 4235      7800
 4236              	.LASF129:
 4237 06a2 43464752 		.ascii	"CFGR\000"
 4237      00
 4238              	.LASF90:
ARM GAS  C:\DOCUME~1\ADMINI~1\LOCALS~1\Temp\ccmu8HAO.s 			page 81


 4239 06a7 45585449 		.ascii	"EXTI1_IRQn\000"
 4239      315F4952 
 4239      516E00
 4240              	.LASF167:
 4241 06b2 72656164 		.ascii	"read\000"
 4241      00
 4242              	.LASF164:
 4243 06b7 53657269 		.ascii	"SerialConfig\000"
 4243      616C436F 
 4243      6E666967 
 4243      00
 4244              	.LASF54:
 4245 06c4 656C5F6C 		.ascii	"el_listener\000"
 4245      69737465 
 4245      6E657200 
 4246              	.LASF149:
 4247 06d0 53445F55 		.ascii	"SD_UNINIT\000"
 4247      4E494E49 
 4247      5400
 4248              	.LASF115:
 4249 06da 49324331 		.ascii	"I2C1_ER_IRQn\000"
 4249      5F45525F 
 4249      4952516E 
 4249      00
 4250              	.LASF65:
 4251 06e7 715F636F 		.ascii	"q_counter\000"
 4251      756E7465 
 4251      7200
 4252              	.LASF67:
 4253 06f1 715F746F 		.ascii	"q_top\000"
 4253      7000
 4254              	.LASF25:
 4255 06f7 705F7072 		.ascii	"p_prev\000"
 4255      657600
 4256              	.LASF47:
 4257 06fe 73697A65 		.ascii	"sizetype\000"
 4257      74797065 
 4257      00
 4258              	.LASF18:
 4259 0707 74726566 		.ascii	"trefs_t\000"
 4259      735F7400 
 4260              	.LASF52:
 4261 070f 4576656E 		.ascii	"EventListener\000"
 4261      744C6973 
 4261      74656E65 
 4261      7200
 4262              	.LASF11:
 4263 071d 6C6F6E67 		.ascii	"long unsigned int\000"
 4263      20756E73 
 4263      69676E65 
 4263      6420696E 
 4263      7400
 4264              	.LASF111:
 4265 072f 54494D32 		.ascii	"TIM2_IRQn\000"
 4265      5F495251 
 4265      6E00
 4266              	.LASF8:
ARM GAS  C:\DOCUME~1\ADMINI~1\LOCALS~1\Temp\ccmu8HAO.s 			page 82


 4267 0739 696E7433 		.ascii	"int32_t\000"
 4267      325F7400 
 4268              	.LASF156:
 4269 0741 73746174 		.ascii	"state\000"
 4269      6500
 4270              	.LASF102:
 4271 0747 5553425F 		.ascii	"USB_HP_IRQn\000"
 4271      48505F49 
 4271      52516E00 
 4272              	.LASF80:
 4273 0753 44656275 		.ascii	"DebugMonitor_IRQn\000"
 4273      674D6F6E 
 4273      69746F72 
 4273      5F495251 
 4273      6E00
 4274              	.LASF78:
 4275 0765 55736167 		.ascii	"UsageFault_IRQn\000"
 4275      65466175 
 4275      6C745F49 
 4275      52516E00 
 4276              	.LASF4:
 4277 0775 756E7369 		.ascii	"unsigned char\000"
 4277      676E6564 
 4277      20636861 
 4277      7200
 4278              	.LASF33:
 4279 0783 705F7265 		.ascii	"p_refs\000"
 4279      667300
 4280              	.LASF79:
 4281 078a 53564361 		.ascii	"SVCall_IRQn\000"
 4281      6C6C5F49 
 4281      52516E00 
 4282              	.LASF194:
 4283 0796 5F706F72 		.ascii	"_port_irq_epilogue\000"
 4283      745F6972 
 4283      715F6570 
 4283      696C6F67 
 4283      756500
 4284              	.LASF57:
 4285 07a9 65735F6E 		.ascii	"es_next\000"
 4285      65787400 
 4286              	.LASF119:
 4287 07b1 53504932 		.ascii	"SPI2_IRQn\000"
 4287      5F495251 
 4287      6E00
 4288              	.LASF127:
 4289 07bb 54494D37 		.ascii	"TIM7_IRQn\000"
 4289      5F495251 
 4289      6E00
 4290              	.LASF98:
 4291 07c5 444D4131 		.ascii	"DMA1_Channel5_IRQn\000"
 4291      5F436861 
 4291      6E6E656C 
 4291      355F4952 
 4291      516E00
 4292              	.LASF104:
 4293 07d8 4441435F 		.ascii	"DAC_IRQn\000"
ARM GAS  C:\DOCUME~1\ADMINI~1\LOCALS~1\Temp\ccmu8HAO.s 			page 83


 4293      4952516E 
 4293      00
 4294              	.LASF51:
 4295 07e1 6D5F6E65 		.ascii	"m_next\000"
 4295      787400
 4296              	.LASF1:
 4297 07e8 7369676E 		.ascii	"signed char\000"
 4297      65642063 
 4297      68617200 
 4298              	.LASF192:
 4299 07f4 64656661 		.ascii	"default_config\000"
 4299      756C745F 
 4299      636F6E66 
 4299      696700
 4300              	.LASF171:
 4301 0803 72656164 		.ascii	"readt\000"
 4301      7400
 4302              	.LASF7:
 4303 0809 73686F72 		.ascii	"short unsigned int\000"
 4303      7420756E 
 4303      7369676E 
 4303      65642069 
 4303      6E7400
 4304              	.LASF92:
 4305 081c 45585449 		.ascii	"EXTI3_IRQn\000"
 4305      335F4952 
 4305      516E00
 4306              	.LASF140:
 4307 0827 52455345 		.ascii	"RESERVED0\000"
 4307      52564544 
 4307      3000
 4308              	.LASF122:
 4309 0831 55534152 		.ascii	"USART3_IRQn\000"
 4309      54335F49 
 4309      52516E00 
 4310              	.LASF103:
 4311 083d 5553425F 		.ascii	"USB_LP_IRQn\000"
 4311      4C505F49 
 4311      52516E00 
 4312              	.LASF186:
 4313 0849 6E766963 		.ascii	"nvicEnableVector\000"
 4313      456E6162 
 4313      6C655665 
 4313      63746F72 
 4313      00
 4314              	.LASF177:
 4315 085a 73645F6C 		.ascii	"sd_lld_init\000"
 4315      6C645F69 
 4315      6E697400 
 4316              	.LASF59:
 4317 0866 65786974 		.ascii	"exitcode\000"
 4317      636F6465 
 4317      00
 4318              	.LASF175:
 4319 086f 73657276 		.ascii	"serve_interrupt\000"
 4319      655F696E 
 4319      74657272 
ARM GAS  C:\DOCUME~1\ADMINI~1\LOCALS~1\Temp\ccmu8HAO.s 			page 84


 4319      75707400 
 4320              		.ident	"GCC: (GNU) 4.7.1"
ARM GAS  C:\DOCUME~1\ADMINI~1\LOCALS~1\Temp\ccmu8HAO.s 			page 85


DEFINED SYMBOLS
                            *ABS*:00000000 serial_lld.c
C:\DOCUME~1\ADMINI~1\LOCALS~1\Temp\ccmu8HAO.s:19     .text.notify1:00000000 $t
C:\DOCUME~1\ADMINI~1\LOCALS~1\Temp\ccmu8HAO.s:23     .text.notify1:00000000 notify1
C:\DOCUME~1\ADMINI~1\LOCALS~1\Temp\ccmu8HAO.s:44     .text.VectorD4:00000000 $t
C:\DOCUME~1\ADMINI~1\LOCALS~1\Temp\ccmu8HAO.s:49     .text.VectorD4:00000000 VectorD4
C:\DOCUME~1\ADMINI~1\LOCALS~1\Temp\ccmu8HAO.s:363    .text.VectorD4:00000154 $d
C:\DOCUME~1\ADMINI~1\LOCALS~1\Temp\ccmu8HAO.s:372    .text.sd_lld_init:00000000 $t
C:\DOCUME~1\ADMINI~1\LOCALS~1\Temp\ccmu8HAO.s:377    .text.sd_lld_init:00000000 sd_lld_init
C:\DOCUME~1\ADMINI~1\LOCALS~1\Temp\ccmu8HAO.s:594    .bss.SD1:00000000 .LANCHOR0
C:\DOCUME~1\ADMINI~1\LOCALS~1\Temp\ccmu8HAO.s:406    .text.sd_lld_start:00000000 $t
C:\DOCUME~1\ADMINI~1\LOCALS~1\Temp\ccmu8HAO.s:411    .text.sd_lld_start:00000000 sd_lld_start
C:\DOCUME~1\ADMINI~1\LOCALS~1\Temp\ccmu8HAO.s:514    .text.sd_lld_start:00000074 $d
C:\DOCUME~1\ADMINI~1\LOCALS~1\Temp\ccmu8HAO.s:520    .text.sd_lld_stop:00000000 $t
C:\DOCUME~1\ADMINI~1\LOCALS~1\Temp\ccmu8HAO.s:525    .text.sd_lld_stop:00000000 sd_lld_stop
C:\DOCUME~1\ADMINI~1\LOCALS~1\Temp\ccmu8HAO.s:576    .text.sd_lld_stop:00000030 $d
C:\DOCUME~1\ADMINI~1\LOCALS~1\Temp\ccmu8HAO.s:597    .bss.SD1:00000000 SD1
C:\DOCUME~1\ADMINI~1\LOCALS~1\Temp\ccmu8HAO.s:582    .rodata.default_config:00000000 $d
C:\DOCUME~1\ADMINI~1\LOCALS~1\Temp\ccmu8HAO.s:586    .rodata.default_config:00000000 default_config
C:\DOCUME~1\ADMINI~1\LOCALS~1\Temp\ccmu8HAO.s:593    .bss.SD1:00000000 $d
                     .debug_frame:00000010 $d

UNDEFINED SYMBOLS
chEvtBroadcastFlagsI
_port_irq_epilogue
sdIncomingDataI
chOQGetI
sdObjectInit
nvicEnableVector
nvicDisableVector
