ARM GAS  C:\DOCUME~1\ADMINI~1\LOCALS~1\Temp\ccZzQOwk.s 			page 1


   1              		.syntax unified
   2              		.cpu cortex-m3
   3              		.fpu softvfp
   4              		.eabi_attribute 20, 1
   5              		.eabi_attribute 21, 1
   6              		.eabi_attribute 23, 3
   7              		.eabi_attribute 24, 1
   8              		.eabi_attribute 25, 1
   9              		.eabi_attribute 26, 1
  10              		.eabi_attribute 30, 2
  11              		.eabi_attribute 34, 1
  12              		.eabi_attribute 18, 4
  13              		.thumb
  14              		.file	"testsem.c"
  15              		.text
  16              	.Ltext0:
  17              		.cfi_sections	.debug_frame
  18              		.section	.text.sem3_setup,"ax",%progbits
  19              		.align	2
  20              		.thumb
  21              		.thumb_func
  22              		.type	sem3_setup, %function
  23              	sem3_setup:
  24              	.LFB13:
  25              		.file 1 "../../test/testsem.c"
  26              		.loc 1 215 0
  27              		.cfi_startproc
  28              		@ args = 0, pretend = 0, frame = 0
  29              		@ frame_needed = 0, uses_anonymous_args = 0
  30              		@ link register save eliminated.
  31              		.loc 1 217 0
  32 0000 40F20000 		movw	r0, #:lower16:.LANCHOR0
  33 0004 C0F20000 		movt	r0, #:upper16:.LANCHOR0
  34 0008 0021     		movs	r1, #0
  35              		.loc 1 218 0
  36              		.loc 1 217 0
  37 000a FFF7FEBF 		b	chSemInit
  38              	.LVL0:
  39              		.cfi_endproc
  40              	.LFE13:
  41              		.size	sem3_setup, .-sem3_setup
  42 000e 00BF     		.section	.text.sem2_setup,"ax",%progbits
  43              		.align	2
  44              		.thumb
  45              		.thumb_func
  46              		.type	sem2_setup, %function
  47              	sem2_setup:
  48              	.LFB10:
  49              		.loc 1 139 0
  50              		.cfi_startproc
  51              		@ args = 0, pretend = 0, frame = 0
  52              		@ frame_needed = 0, uses_anonymous_args = 0
  53              		@ link register save eliminated.
  54              		.loc 1 141 0
  55 0000 40F20000 		movw	r0, #:lower16:.LANCHOR0
  56 0004 C0F20000 		movt	r0, #:upper16:.LANCHOR0
  57 0008 0021     		movs	r1, #0
ARM GAS  C:\DOCUME~1\ADMINI~1\LOCALS~1\Temp\ccZzQOwk.s 			page 2


  58              		.loc 1 142 0
  59              		.loc 1 141 0
  60 000a FFF7FEBF 		b	chSemInit
  61              	.LVL1:
  62              		.cfi_endproc
  63              	.LFE10:
  64              		.size	sem2_setup, .-sem2_setup
  65              		.section	.text.sem1_setup,"ax",%progbits
  66              		.align	2
  67              		.thumb
  68              		.thumb_func
  69              		.type	sem1_setup, %function
  70              	sem1_setup:
  71              	.LFB7:
  72              		.loc 1 83 0
  73              		.cfi_startproc
  74              		@ args = 0, pretend = 0, frame = 0
  75              		@ frame_needed = 0, uses_anonymous_args = 0
  76              		@ link register save eliminated.
  77              		.loc 1 85 0
  78 0000 40F20000 		movw	r0, #:lower16:.LANCHOR0
  79 0004 C0F20000 		movt	r0, #:upper16:.LANCHOR0
  80 0008 0021     		movs	r1, #0
  81              		.loc 1 86 0
  82              		.loc 1 85 0
  83 000a FFF7FEBF 		b	chSemInit
  84              	.LVL2:
  85              		.cfi_endproc
  86              	.LFE7:
  87              		.size	sem1_setup, .-sem1_setup
  88              		.section	.text.sem4_execute,"ax",%progbits
  89              		.align	2
  90              		.thumb
  91              		.thumb_func
  92              		.type	sem4_execute, %function
  93              	sem4_execute:
  94              	.LFB17:
  95              		.loc 1 262 0
  96              		.cfi_startproc
  97              		@ args = 0, pretend = 0, frame = 16
  98              		@ frame_needed = 0, uses_anonymous_args = 0
  99 0000 00B5     		push	{lr}
 100              	.LCFI0:
 101              		.cfi_def_cfa_offset 4
 102              		.cfi_offset 14, -4
 103 0002 87B0     		sub	sp, sp, #28
 104              	.LCFI1:
 105              		.cfi_def_cfa_offset 32
 106              		.loc 1 266 0
 107 0004 0021     		movs	r1, #0
 108 0006 03A8     		add	r0, sp, #12
 109 0008 FFF7FEFF 		bl	chSemInit
 110              	.LVL3:
 111              		.loc 1 267 0
 112 000c 0021     		movs	r1, #0
 113 000e 03A8     		add	r0, sp, #12
 114 0010 FFF7FEFF 		bl	chSemReset
ARM GAS  C:\DOCUME~1\ADMINI~1\LOCALS~1\Temp\ccZzQOwk.s 			page 3


 115              	.LVL4:
 116              		.loc 1 268 0
 117 0014 0599     		ldr	r1, [sp, #20]
 118 0016 0120     		movs	r0, #1
 119 0018 0029     		cmp	r1, #0
 120 001a CCBF     		ite	gt
 121 001c 0021     		movgt	r1, #0
 122 001e 0121     		movle	r1, #1
 123 0020 FFF7FEFF 		bl	_test_assert
 124              	.LVL5:
 125 0024 08B1     		cbz	r0, .L10
 126              	.L4:
 127              		.loc 1 290 0
 128 0026 07B0     		add	sp, sp, #28
 129 0028 00BD     		pop	{pc}
 130              	.L10:
 131              		.loc 1 272 0
 132 002a 2F4B     		ldr	r3, .L13
 133              		.loc 1 271 0
 134 002c 03A8     		add	r0, sp, #12
 135              		.loc 1 272 0
 136 002e DB69     		ldr	r3, [r3, #28]
 137              		.loc 1 271 0
 138 0030 4FF49871 		mov	r1, #304
 139 0034 9A68     		ldr	r2, [r3, #8]
 140 0036 0090     		str	r0, [sp, #0]
 141 0038 2C48     		ldr	r0, .L13+4
 142 003a 013A     		subs	r2, r2, #1
 143 003c 2C4B     		ldr	r3, .L13+8
 144 003e 0068     		ldr	r0, [r0, #0]
 145 0040 FFF7FEFF 		bl	chThdCreateStatic
 146              	.LVL6:
 147 0044 2B4B     		ldr	r3, .L13+12
 148 0046 1860     		str	r0, [r3, #0]
 149              		.loc 1 275 0
 150 0048 03A8     		add	r0, sp, #12
 151 004a FFF7FEFF 		bl	chSemWait
 152              	.LVL7:
 153              		.loc 1 278 0
 154 004e 0599     		ldr	r1, [sp, #20]
 155 0050 0220     		movs	r0, #2
 156 0052 0029     		cmp	r1, #0
 157 0054 CCBF     		ite	gt
 158 0056 0021     		movgt	r1, #0
 159 0058 0121     		movle	r1, #1
 160 005a FFF7FEFF 		bl	_test_assert
 161              	.LVL8:
 162 005e 0028     		cmp	r0, #0
 163 0060 E1D1     		bne	.L4
 164              	.LBB2:
 165              		.loc 1 282 0
 166 0062 2023     		movs	r3, #32
 167              	.LVL9:
 168              	@ 282 "../../test/testsem.c" 1
 169 0064 83F31188 		msr     BASEPRI, r3
 170              	@ 0 "" 2
 171              	.LVL10:
ARM GAS  C:\DOCUME~1\ADMINI~1\LOCALS~1\Temp\ccZzQOwk.s 			page 4


 172              		.thumb
 173              	.LBE2:
 174 0068 059B     		ldr	r3, [sp, #20]
 175              	.LVL11:
 176 006a 002B     		cmp	r3, #0
 177 006c 34DD     		ble	.L11
 178              	.L6:
 179              		.loc 1 282 0 is_stmt 0 discriminator 2
 180 006e FFF7FEFF 		bl	chSchRescheduleS
 181              	.LVL12:
 182              	.LBB3:
 183 0072 0023     		movs	r3, #0
 184              	.LVL13:
 185              	@ 282 "../../test/testsem.c" 1
 186 0074 83F31188 		msr     BASEPRI, r3
 187              	@ 0 "" 2
 188              	.LVL14:
 189              		.thumb
 190              	.LBE3:
 191              		.loc 1 283 0 is_stmt 1 discriminator 2
 192 0078 0599     		ldr	r1, [sp, #20]
 193 007a 0320     		movs	r0, #3
 194 007c 9942     		cmp	r1, r3
 195              	.LVL15:
 196 007e D4BF     		ite	le
 197 0080 0021     		movle	r1, #0
 198 0082 0121     		movgt	r1, #1
 199 0084 FFF7FEFF 		bl	_test_assert
 200              	.LVL16:
 201 0088 0028     		cmp	r0, #0
 202 008a CCD1     		bne	.L4
 203              		.loc 1 284 0
 204 008c 0599     		ldr	r1, [sp, #20]
 205 008e 0420     		movs	r0, #4
 206 0090 4A1E     		subs	r2, r1, #1
 207 0092 5142     		rsbs	r1, r2, #0
 208 0094 5141     		adcs	r1, r1, r2
 209 0096 FFF7FEFF 		bl	_test_assert
 210              	.LVL17:
 211 009a 0028     		cmp	r0, #0
 212 009c C3D1     		bne	.L4
 213              	.LBB4:
 214              		.loc 1 287 0
 215 009e 2023     		movs	r3, #32
 216              	.LVL18:
 217              	@ 287 "../../test/testsem.c" 1
 218 00a0 83F31188 		msr     BASEPRI, r3
 219              	@ 0 "" 2
 220              	.LVL19:
 221              		.thumb
 222              	.LBE4:
 223 00a4 059B     		ldr	r3, [sp, #20]
 224              	.LVL20:
 225 00a6 002B     		cmp	r3, #0
 226 00a8 1ADD     		ble	.L12
 227              	.L7:
 228              		.loc 1 287 0 is_stmt 0 discriminator 2
ARM GAS  C:\DOCUME~1\ADMINI~1\LOCALS~1\Temp\ccZzQOwk.s 			page 5


 229 00aa FFF7FEFF 		bl	chSchRescheduleS
 230              	.LVL21:
 231              	.LBB5:
 232 00ae 0023     		movs	r3, #0
 233              	.LVL22:
 234              	@ 287 "../../test/testsem.c" 1
 235 00b0 83F31188 		msr     BASEPRI, r3
 236              	@ 0 "" 2
 237              	.LVL23:
 238              		.thumb
 239              	.LBE5:
 240              		.loc 1 288 0 is_stmt 1 discriminator 2
 241 00b4 0599     		ldr	r1, [sp, #20]
 242 00b6 0320     		movs	r0, #3
 243 00b8 9942     		cmp	r1, r3
 244              	.LVL24:
 245 00ba D4BF     		ite	le
 246 00bc 0021     		movle	r1, #0
 247 00be 0121     		movgt	r1, #1
 248 00c0 FFF7FEFF 		bl	_test_assert
 249              	.LVL25:
 250 00c4 0028     		cmp	r0, #0
 251 00c6 AED1     		bne	.L4
 252              		.loc 1 289 0
 253 00c8 0599     		ldr	r1, [sp, #20]
 254 00ca 0520     		movs	r0, #5
 255 00cc 4B1E     		subs	r3, r1, #1
 256 00ce 5942     		rsbs	r1, r3, #0
 257 00d0 5941     		adcs	r1, r1, r3
 258 00d2 FFF7FEFF 		bl	_test_assert
 259              	.LVL26:
 260 00d6 A6E7     		b	.L4
 261              	.L11:
 262              		.loc 1 282 0 discriminator 1
 263 00d8 03A8     		add	r0, sp, #12
 264 00da FFF7FEFF 		bl	chSemSignalI
 265              	.LVL27:
 266 00de C6E7     		b	.L6
 267              	.L12:
 268              		.loc 1 287 0 discriminator 1
 269 00e0 03A8     		add	r0, sp, #12
 270 00e2 FFF7FEFF 		bl	chSemSignalI
 271              	.LVL28:
 272 00e6 E0E7     		b	.L7
 273              	.L14:
 274              		.align	2
 275              	.L13:
 276 00e8 00000000 		.word	rlist
 277 00ec 00000000 		.word	wa
 278 00f0 00000000 		.word	thread4
 279 00f4 00000000 		.word	threads
 280              		.cfi_endproc
 281              	.LFE17:
 282              		.size	sem4_execute, .-sem4_execute
 283              		.section	.text.thread4,"ax",%progbits
 284              		.align	2
 285              		.thumb
ARM GAS  C:\DOCUME~1\ADMINI~1\LOCALS~1\Temp\ccZzQOwk.s 			page 6


 286              		.thumb_func
 287              		.type	thread4, %function
 288              	thread4:
 289              	.LFB16:
 290              		.loc 1 256 0
 291              		.cfi_startproc
 292              		@ args = 0, pretend = 0, frame = 0
 293              		@ frame_needed = 0, uses_anonymous_args = 0
 294              	.LVL29:
 295 0000 08B5     		push	{r3, lr}
 296              	.LCFI2:
 297              		.cfi_def_cfa_offset 8
 298              		.cfi_offset 3, -8
 299              		.cfi_offset 14, -4
 300              	.LBB6:
 301              		.loc 1 258 0
 302 0002 2023     		movs	r3, #32
 303              	.LVL30:
 304              	@ 258 "../../test/testsem.c" 1
 305 0004 83F31188 		msr     BASEPRI, r3
 306              	@ 0 "" 2
 307              	.LVL31:
 308              		.thumb
 309              	.LBE6:
 310 0008 8368     		ldr	r3, [r0, #8]
 311              	.LVL32:
 312 000a 002B     		cmp	r3, #0
 313 000c 06DD     		ble	.L17
 314              	.LVL33:
 315              	.L16:
 316              		.loc 1 258 0 is_stmt 0 discriminator 2
 317 000e FFF7FEFF 		bl	chSchRescheduleS
 318              	.LVL34:
 319              	.LBB7:
 320 0012 0023     		movs	r3, #0
 321              	.LVL35:
 322              	@ 258 "../../test/testsem.c" 1
 323 0014 83F31188 		msr     BASEPRI, r3
 324              	@ 0 "" 2
 325              	.LVL36:
 326              		.thumb
 327              	.LBE7:
 328              		.loc 1 260 0 is_stmt 1 discriminator 2
 329 0018 1846     		mov	r0, r3
 330 001a 08BD     		pop	{r3, pc}
 331              	.LVL37:
 332              	.L17:
 333              		.loc 1 258 0 discriminator 1
 334 001c FFF7FEFF 		bl	chSemSignalI
 335              	.LVL38:
 336 0020 F5E7     		b	.L16
 337              		.cfi_endproc
 338              	.LFE16:
 339              		.size	thread4, .-thread4
 340 0022 00BF     		.section	.text.thread3,"ax",%progbits
 341              		.align	2
 342              		.thumb
ARM GAS  C:\DOCUME~1\ADMINI~1\LOCALS~1\Temp\ccZzQOwk.s 			page 7


 343              		.thumb_func
 344              		.type	thread3, %function
 345              	thread3:
 346              	.LFB14:
 347              		.loc 1 220 0
 348              		.cfi_startproc
 349              		@ args = 0, pretend = 0, frame = 0
 350              		@ frame_needed = 0, uses_anonymous_args = 0
 351              	.LVL39:
 352 0000 10B5     		push	{r4, lr}
 353              	.LCFI3:
 354              		.cfi_def_cfa_offset 8
 355              		.cfi_offset 4, -8
 356              		.cfi_offset 14, -4
 357              		.loc 1 223 0
 358 0002 40F20004 		movw	r4, #:lower16:.LANCHOR0
 359 0006 C0F20004 		movt	r4, #:upper16:.LANCHOR0
 360 000a 2046     		mov	r0, r4
 361              	.LVL40:
 362 000c FFF7FEFF 		bl	chSemWait
 363              	.LVL41:
 364              		.loc 1 224 0
 365 0010 2046     		mov	r0, r4
 366 0012 FFF7FEFF 		bl	chSemSignal
 367              	.LVL42:
 368              		.loc 1 226 0
 369 0016 0020     		movs	r0, #0
 370 0018 10BD     		pop	{r4, pc}
 371              		.cfi_endproc
 372              	.LFE14:
 373              		.size	thread3, .-thread3
 374 001a 00BF     		.section	.text.thread1,"ax",%progbits
 375              		.align	2
 376              		.thumb
 377              		.thumb_func
 378              		.type	thread1, %function
 379              	thread1:
 380              	.LFB8:
 381              		.loc 1 88 0
 382              		.cfi_startproc
 383              		@ args = 0, pretend = 0, frame = 0
 384              		@ frame_needed = 0, uses_anonymous_args = 0
 385              	.LVL43:
 386 0000 10B5     		push	{r4, lr}
 387              	.LCFI4:
 388              		.cfi_def_cfa_offset 8
 389              		.cfi_offset 4, -8
 390              		.cfi_offset 14, -4
 391              		.loc 1 88 0
 392 0002 0446     		mov	r4, r0
 393              		.loc 1 90 0
 394 0004 40F20000 		movw	r0, #:lower16:.LANCHOR0
 395              	.LVL44:
 396 0008 C0F20000 		movt	r0, #:upper16:.LANCHOR0
 397 000c FFF7FEFF 		bl	chSemWait
 398              	.LVL45:
 399              		.loc 1 91 0
ARM GAS  C:\DOCUME~1\ADMINI~1\LOCALS~1\Temp\ccZzQOwk.s 			page 8


 400 0010 2078     		ldrb	r0, [r4, #0]	@ zero_extendqisi2
 401 0012 FFF7FEFF 		bl	test_emit_token
 402              	.LVL46:
 403              		.loc 1 93 0
 404 0016 0020     		movs	r0, #0
 405 0018 10BD     		pop	{r4, pc}
 406              		.cfi_endproc
 407              	.LFE8:
 408              		.size	thread1, .-thread1
 409 001a 00BF     		.section	.text.thread2,"ax",%progbits
 410              		.align	2
 411              		.thumb
 412              		.thumb_func
 413              		.type	thread2, %function
 414              	thread2:
 415              	.LFB11:
 416              		.loc 1 144 0
 417              		.cfi_startproc
 418              		@ args = 0, pretend = 0, frame = 0
 419              		@ frame_needed = 0, uses_anonymous_args = 0
 420              	.LVL47:
 421 0000 08B5     		push	{r3, lr}
 422              	.LCFI5:
 423              		.cfi_def_cfa_offset 8
 424              		.cfi_offset 3, -8
 425              		.cfi_offset 14, -4
 426              		.loc 1 147 0
 427 0002 3220     		movs	r0, #50
 428              	.LVL48:
 429 0004 FFF7FEFF 		bl	chThdSleep
 430              	.LVL49:
 431              	.LBB8:
 432              		.loc 1 148 0
 433 0008 2023     		movs	r3, #32
 434              	.LVL50:
 435              	@ 148 "../../test/testsem.c" 1
 436 000a 83F31188 		msr     BASEPRI, r3
 437              	@ 0 "" 2
 438              	.LVL51:
 439              		.thumb
 440              	.LBE8:
 441              		.loc 1 149 0
 442 000e 40F20000 		movw	r0, #:lower16:.LANCHOR0
 443 0012 C0F20000 		movt	r0, #:upper16:.LANCHOR0
 444 0016 FFF7FEFF 		bl	chSemSignalI
 445              	.LVL52:
 446              		.loc 1 150 0
 447 001a FFF7FEFF 		bl	chSchRescheduleS
 448              	.LVL53:
 449              	.LBB9:
 450              		.loc 1 151 0
 451 001e 0023     		movs	r3, #0
 452              	.LVL54:
 453              	@ 151 "../../test/testsem.c" 1
 454 0020 83F31188 		msr     BASEPRI, r3
 455              	@ 0 "" 2
 456              	.LVL55:
ARM GAS  C:\DOCUME~1\ADMINI~1\LOCALS~1\Temp\ccZzQOwk.s 			page 9


 457              		.thumb
 458              	.LBE9:
 459              		.loc 1 153 0
 460 0024 1846     		mov	r0, r3
 461 0026 08BD     		pop	{r3, pc}
 462              		.cfi_endproc
 463              	.LFE11:
 464              		.size	thread2, .-thread2
 465              		.section	.text.sem1_execute,"ax",%progbits
 466              		.align	2
 467              		.thumb
 468              		.thumb_func
 469              		.type	sem1_execute, %function
 470              	sem1_execute:
 471              	.LFB9:
 472              		.loc 1 95 0
 473              		.cfi_startproc
 474              		@ args = 0, pretend = 0, frame = 8
 475              		@ frame_needed = 0, uses_anonymous_args = 0
 476 0000 2DE9F043 		push	{r4, r5, r6, r7, r8, r9, lr}
 477              	.LCFI6:
 478              		.cfi_def_cfa_offset 28
 479              		.cfi_offset 4, -28
 480              		.cfi_offset 5, -24
 481              		.cfi_offset 6, -20
 482              		.cfi_offset 7, -16
 483              		.cfi_offset 8, -12
 484              		.cfi_offset 9, -8
 485              		.cfi_offset 14, -4
 486              		.loc 1 97 0
 487 0004 DFF84081 		ldr	r8, .L24+40
 488 0008 454C     		ldr	r4, .L24
 489 000a D8F81C30 		ldr	r3, [r8, #28]
 490 000e 2768     		ldr	r7, [r4, #0]
 491 0010 9A68     		ldr	r2, [r3, #8]
 492 0012 444E     		ldr	r6, .L24+4
 493              		.loc 1 95 0
 494 0014 85B0     		sub	sp, sp, #20
 495              	.LCFI7:
 496              		.cfi_def_cfa_offset 48
 497              		.loc 1 97 0
 498 0016 4FF49871 		mov	r1, #304
 499 001a 0532     		adds	r2, r2, #5
 500 001c 424B     		ldr	r3, .L24+8
 501 001e 0096     		str	r6, [sp, #0]
 502 0020 3846     		mov	r0, r7
 503 0022 FFF7FEFF 		bl	chThdCreateStatic
 504              	.LVL56:
 505              		.loc 1 98 0
 506 0026 D8F81C30 		ldr	r3, [r8, #28]
 507              		.loc 1 97 0
 508 002a 404D     		ldr	r5, .L24+12
 509              		.loc 1 98 0
 510 002c 9A68     		ldr	r2, [r3, #8]
 511 002e 6368     		ldr	r3, [r4, #4]
 512              		.loc 1 97 0
 513 0030 2860     		str	r0, [r5, #0]
ARM GAS  C:\DOCUME~1\ADMINI~1\LOCALS~1\Temp\ccZzQOwk.s 			page 10


 514              		.loc 1 98 0
 515 0032 3F48     		ldr	r0, .L24+16
 516 0034 0393     		str	r3, [sp, #12]
 517 0036 4FF49871 		mov	r1, #304
 518 003a 0132     		adds	r2, r2, #1
 519 003c 3A4B     		ldr	r3, .L24+8
 520 003e 0090     		str	r0, [sp, #0]
 521 0040 0398     		ldr	r0, [sp, #12]
 522 0042 FFF7FEFF 		bl	chThdCreateStatic
 523              	.LVL57:
 524              		.loc 1 99 0
 525 0046 A268     		ldr	r2, [r4, #8]
 526 0048 D8F81C30 		ldr	r3, [r8, #28]
 527 004c 0392     		str	r2, [sp, #12]
 528 004e 9A68     		ldr	r2, [r3, #8]
 529              		.loc 1 98 0
 530 0050 6860     		str	r0, [r5, #4]
 531              		.loc 1 99 0
 532 0052 3848     		ldr	r0, .L24+20
 533 0054 4FF49871 		mov	r1, #304
 534 0058 0332     		adds	r2, r2, #3
 535 005a 334B     		ldr	r3, .L24+8
 536 005c 0090     		str	r0, [sp, #0]
 537 005e 0398     		ldr	r0, [sp, #12]
 538 0060 FFF7FEFF 		bl	chThdCreateStatic
 539              	.LVL58:
 540              		.loc 1 100 0
 541 0064 E268     		ldr	r2, [r4, #12]
 542 0066 D8F81C30 		ldr	r3, [r8, #28]
 543 006a 0392     		str	r2, [sp, #12]
 544 006c 9A68     		ldr	r2, [r3, #8]
 545              		.loc 1 99 0
 546 006e A860     		str	r0, [r5, #8]
 547              		.loc 1 100 0
 548 0070 3148     		ldr	r0, .L24+24
 549 0072 4FF49871 		mov	r1, #304
 550 0076 0432     		adds	r2, r2, #4
 551 0078 2B4B     		ldr	r3, .L24+8
 552 007a 0090     		str	r0, [sp, #0]
 553 007c 0398     		ldr	r0, [sp, #12]
 554 007e FFF7FEFF 		bl	chThdCreateStatic
 555              	.LVL59:
 556              		.loc 1 101 0
 557 0082 D8F81C30 		ldr	r3, [r8, #28]
 558 0086 2469     		ldr	r4, [r4, #16]
 559 0088 9A68     		ldr	r2, [r3, #8]
 560              		.loc 1 100 0
 561 008a E860     		str	r0, [r5, #12]
 562              		.loc 1 101 0
 563 008c 2B48     		ldr	r0, .L24+28
 564 008e 4FF49871 		mov	r1, #304
 565 0092 0232     		adds	r2, r2, #2
 566 0094 244B     		ldr	r3, .L24+8
 567 0096 0090     		str	r0, [sp, #0]
 568 0098 2046     		mov	r0, r4
 569 009a FFF7FEFF 		bl	chThdCreateStatic
 570              	.LVL60:
ARM GAS  C:\DOCUME~1\ADMINI~1\LOCALS~1\Temp\ccZzQOwk.s 			page 11


 571              		.loc 1 102 0
 572 009e 284C     		ldr	r4, .L24+32
 573              		.loc 1 101 0
 574 00a0 2861     		str	r0, [r5, #16]
 575              		.loc 1 102 0
 576 00a2 2046     		mov	r0, r4
 577 00a4 FFF7FEFF 		bl	chSemSignal
 578              	.LVL61:
 579              		.loc 1 103 0
 580 00a8 2046     		mov	r0, r4
 581 00aa FFF7FEFF 		bl	chSemSignal
 582              	.LVL62:
 583              		.loc 1 104 0
 584 00ae 2046     		mov	r0, r4
 585 00b0 FFF7FEFF 		bl	chSemSignal
 586              	.LVL63:
 587              		.loc 1 105 0
 588 00b4 2046     		mov	r0, r4
 589 00b6 FFF7FEFF 		bl	chSemSignal
 590              	.LVL64:
 591              		.loc 1 106 0
 592 00ba 2046     		mov	r0, r4
 593 00bc FFF7FEFF 		bl	chSemSignal
 594              	.LVL65:
 595              		.loc 1 107 0
 596 00c0 FFF7FEFF 		bl	test_wait_threads
 597              	.LVL66:
 598              		.loc 1 111 0
 599 00c4 0120     		movs	r0, #1
 600 00c6 1F49     		ldr	r1, .L24+36
 601 00c8 FFF7FEFF 		bl	_test_assert_sequence
 602              	.LVL67:
 603 00cc 8146     		mov	r9, r0
 604 00ce 10B1     		cbz	r0, .L23
 605              		.loc 1 119 0
 606 00d0 05B0     		add	sp, sp, #20
 607 00d2 BDE8F083 		pop	{r4, r5, r6, r7, r8, r9, pc}
 608              	.L23:
 609              		.loc 1 113 0
 610 00d6 D8F81C30 		ldr	r3, [r8, #28]
 611 00da 3846     		mov	r0, r7
 612 00dc 9A68     		ldr	r2, [r3, #8]
 613 00de 4FF49871 		mov	r1, #304
 614 00e2 0096     		str	r6, [sp, #0]
 615 00e4 0532     		adds	r2, r2, #5
 616 00e6 104B     		ldr	r3, .L24+8
 617 00e8 FFF7FEFF 		bl	chThdCreateStatic
 618              	.LVL68:
 619              	.LBB10:
 620              		.loc 1 114 0
 621 00ec 2023     		movs	r3, #32
 622              	.LVL69:
 623              	.LBE10:
 624              		.loc 1 113 0
 625 00ee 2860     		str	r0, [r5, #0]
 626              	.LBB11:
 627              		.loc 1 114 0
ARM GAS  C:\DOCUME~1\ADMINI~1\LOCALS~1\Temp\ccZzQOwk.s 			page 12


 628              	@ 114 "../../test/testsem.c" 1
 629 00f0 83F31188 		msr     BASEPRI, r3
 630              	@ 0 "" 2
 631              	.LVL70:
 632              		.thumb
 633              	.LBE11:
 634              		.loc 1 115 0
 635 00f4 0221     		movs	r1, #2
 636 00f6 2046     		mov	r0, r4
 637 00f8 FFF7FEFF 		bl	chSemAddCounterI
 638              	.LVL71:
 639              	.LBB12:
 640              		.loc 1 116 0
 641 00fc 4B46     		mov	r3, r9
 642              	.LVL72:
 643              	@ 116 "../../test/testsem.c" 1
 644 00fe 83F31188 		msr     BASEPRI, r3
 645              	@ 0 "" 2
 646              	.LVL73:
 647              		.thumb
 648              	.LBE12:
 649              		.loc 1 117 0
 650 0102 FFF7FEFF 		bl	test_wait_threads
 651              	.LVL74:
 652              		.loc 1 118 0
 653 0106 A168     		ldr	r1, [r4, #8]
 654 0108 0220     		movs	r0, #2
 655 010a B1F1010E 		subs	lr, r1, #1
 656 010e DEF10001 		rsbs	r1, lr, #0
 657 0112 51EB0E01 		adcs	r1, r1, lr
 658              		.loc 1 119 0
 659 0116 05B0     		add	sp, sp, #20
 660 0118 BDE8F043 		pop	{r4, r5, r6, r7, r8, r9, lr}
 661              		.loc 1 118 0
 662 011c FFF7FEBF 		b	_test_assert
 663              	.LVL75:
 664              	.L25:
 665              		.align	2
 666              	.L24:
 667 0120 00000000 		.word	wa
 668 0124 00000000 		.word	.LC0
 669 0128 00000000 		.word	thread1
 670 012c 00000000 		.word	threads
 671 0130 04000000 		.word	.LC1
 672 0134 08000000 		.word	.LC2
 673 0138 0C000000 		.word	.LC3
 674 013c 10000000 		.word	.LC4
 675 0140 00000000 		.word	.LANCHOR0
 676 0144 14000000 		.word	.LC5
 677 0148 00000000 		.word	rlist
 678              		.cfi_endproc
 679              	.LFE9:
 680              		.size	sem1_execute, .-sem1_execute
 681              		.section	.text.sem3_execute,"ax",%progbits
 682              		.align	2
 683              		.thumb
 684              		.thumb_func
ARM GAS  C:\DOCUME~1\ADMINI~1\LOCALS~1\Temp\ccZzQOwk.s 			page 13


 685              		.type	sem3_execute, %function
 686              	sem3_execute:
 687              	.LFB15:
 688              		.loc 1 228 0
 689              		.cfi_startproc
 690              		@ args = 0, pretend = 0, frame = 0
 691              		@ frame_needed = 0, uses_anonymous_args = 0
 692 0000 10B5     		push	{r4, lr}
 693              	.LCFI8:
 694              		.cfi_def_cfa_offset 8
 695              		.cfi_offset 4, -8
 696              		.cfi_offset 14, -4
 697              		.loc 1 230 0
 698 0002 224B     		ldr	r3, .L31
 699              		.loc 1 228 0
 700 0004 82B0     		sub	sp, sp, #8
 701              	.LCFI9:
 702              		.cfi_def_cfa_offset 16
 703              		.loc 1 230 0
 704 0006 DB69     		ldr	r3, [r3, #28]
 705 0008 0020     		movs	r0, #0
 706 000a 9A68     		ldr	r2, [r3, #8]
 707 000c 0090     		str	r0, [sp, #0]
 708 000e 2048     		ldr	r0, .L31+4
 709 0010 0132     		adds	r2, r2, #1
 710 0012 4FF49871 		mov	r1, #304
 711 0016 1F4B     		ldr	r3, .L31+8
 712 0018 0068     		ldr	r0, [r0, #0]
 713 001a FFF7FEFF 		bl	chThdCreateStatic
 714              	.LVL76:
 715              		.loc 1 231 0
 716 001e 1E4C     		ldr	r4, .L31+12
 717              		.loc 1 230 0
 718 0020 1E4B     		ldr	r3, .L31+16
 719              		.loc 1 231 0
 720 0022 2146     		mov	r1, r4
 721              		.loc 1 230 0
 722 0024 1860     		str	r0, [r3, #0]
 723              		.loc 1 231 0
 724 0026 2046     		mov	r0, r4
 725 0028 FFF7FEFF 		bl	chSemSignalWait
 726              	.LVL77:
 727              		.loc 1 232 0
 728 002c 2168     		ldr	r1, [r4, #0]
 729 002e 0120     		movs	r0, #1
 730 0030 0B1B     		subs	r3, r1, r4
 731 0032 5942     		rsbs	r1, r3, #0
 732 0034 5941     		adcs	r1, r1, r3
 733 0036 FFF7FEFF 		bl	_test_assert
 734              	.LVL78:
 735 003a 08B1     		cbz	r0, .L30
 736              	.L26:
 737              		.loc 1 238 0
 738 003c 02B0     		add	sp, sp, #8
 739 003e 10BD     		pop	{r4, pc}
 740              	.L30:
 741              		.loc 1 233 0
ARM GAS  C:\DOCUME~1\ADMINI~1\LOCALS~1\Temp\ccZzQOwk.s 			page 14


 742 0040 A168     		ldr	r1, [r4, #8]
 743 0042 0220     		movs	r0, #2
 744 0044 D1F10101 		rsbs	r1, r1, #1
 745 0048 38BF     		it	cc
 746 004a 0021     		movcc	r1, #0
 747 004c FFF7FEFF 		bl	_test_assert
 748              	.LVL79:
 749 0050 0028     		cmp	r0, #0
 750 0052 F3D1     		bne	.L26
 751              	.LBB15:
 752              	.LBB16:
 753              		.loc 1 235 0
 754 0054 2146     		mov	r1, r4
 755 0056 2046     		mov	r0, r4
 756 0058 FFF7FEFF 		bl	chSemSignalWait
 757              	.LVL80:
 758              		.loc 1 236 0
 759 005c 2168     		ldr	r1, [r4, #0]
 760 005e 0320     		movs	r0, #3
 761 0060 B1EB040C 		subs	ip, r1, r4
 762 0064 DCF10001 		rsbs	r1, ip, #0
 763 0068 51EB0C01 		adcs	r1, r1, ip
 764 006c FFF7FEFF 		bl	_test_assert
 765              	.LVL81:
 766 0070 0028     		cmp	r0, #0
 767 0072 E3D1     		bne	.L26
 768              		.loc 1 237 0
 769 0074 A168     		ldr	r1, [r4, #8]
 770 0076 0420     		movs	r0, #4
 771 0078 D1F10101 		rsbs	r1, r1, #1
 772 007c 38BF     		it	cc
 773 007e 0021     		movcc	r1, #0
 774              	.LBE16:
 775              	.LBE15:
 776              		.loc 1 238 0
 777 0080 02B0     		add	sp, sp, #8
 778 0082 BDE81040 		pop	{r4, lr}
 779              	.LBB18:
 780              	.LBB17:
 781              		.loc 1 237 0
 782 0086 FFF7FEBF 		b	_test_assert
 783              	.LVL82:
 784              	.L32:
 785 008a 00BF     		.align	2
 786              	.L31:
 787 008c 00000000 		.word	rlist
 788 0090 00000000 		.word	wa
 789 0094 00000000 		.word	thread3
 790 0098 00000000 		.word	.LANCHOR0
 791 009c 00000000 		.word	threads
 792              	.LBE17:
 793              	.LBE18:
 794              		.cfi_endproc
 795              	.LFE15:
 796              		.size	sem3_execute, .-sem3_execute
 797              		.section	.text.sem2_execute,"ax",%progbits
 798              		.align	2
ARM GAS  C:\DOCUME~1\ADMINI~1\LOCALS~1\Temp\ccZzQOwk.s 			page 15


 799              		.thumb
 800              		.thumb_func
 801              		.type	sem2_execute, %function
 802              	sem2_execute:
 803              	.LFB12:
 804              		.loc 1 155 0
 805              		.cfi_startproc
 806              		@ args = 0, pretend = 0, frame = 0
 807              		@ frame_needed = 0, uses_anonymous_args = 0
 808 0000 70B5     		push	{r4, r5, r6, lr}
 809              	.LCFI10:
 810              		.cfi_def_cfa_offset 16
 811              		.cfi_offset 4, -16
 812              		.cfi_offset 5, -12
 813              		.cfi_offset 6, -8
 814              		.cfi_offset 14, -4
 815              		.loc 1 163 0
 816 0002 4C4C     		ldr	r4, .L40
 817 0004 0021     		movs	r1, #0
 818              		.loc 1 155 0
 819 0006 82B0     		sub	sp, sp, #8
 820              	.LCFI11:
 821              		.cfi_def_cfa_offset 24
 822              		.loc 1 163 0
 823 0008 2046     		mov	r0, r4
 824 000a FFF7FEFF 		bl	chSemWaitTimeout
 825              	.LVL83:
 826              		.loc 1 164 0
 827 000e B0F1FF33 		subs	r3, r0, #-1
 828 0012 5942     		rsbs	r1, r3, #0
 829 0014 5941     		adcs	r1, r1, r3
 830 0016 0120     		movs	r0, #1
 831              	.LVL84:
 832 0018 FFF7FEFF 		bl	_test_assert
 833              	.LVL85:
 834 001c 08B1     		cbz	r0, .L39
 835              	.L33:
 836              		.loc 1 193 0
 837 001e 02B0     		add	sp, sp, #8
 838 0020 70BD     		pop	{r4, r5, r6, pc}
 839              	.L39:
 840              		.loc 1 165 0
 841 0022 2168     		ldr	r1, [r4, #0]
 842 0024 0220     		movs	r0, #2
 843 0026 B1EB040C 		subs	ip, r1, r4
 844 002a DCF10001 		rsbs	r1, ip, #0
 845 002e 51EB0C01 		adcs	r1, r1, ip
 846 0032 FFF7FEFF 		bl	_test_assert
 847              	.LVL86:
 848 0036 0028     		cmp	r0, #0
 849 0038 F1D1     		bne	.L33
 850              		.loc 1 166 0
 851 003a A168     		ldr	r1, [r4, #8]
 852 003c 0320     		movs	r0, #3
 853 003e D1F10101 		rsbs	r1, r1, #1
 854 0042 38BF     		it	cc
 855 0044 0021     		movcc	r1, #0
ARM GAS  C:\DOCUME~1\ADMINI~1\LOCALS~1\Temp\ccZzQOwk.s 			page 16


 856 0046 FFF7FEFF 		bl	_test_assert
 857              	.LVL87:
 858 004a 0028     		cmp	r0, #0
 859 004c E7D1     		bne	.L33
 860              	.LBB21:
 861              	.LBB22:
 862              		.loc 1 171 0
 863 004e 3A4B     		ldr	r3, .L40+4
 864 0050 4FF49871 		mov	r1, #304
 865 0054 DB69     		ldr	r3, [r3, #28]
 866 0056 9A68     		ldr	r2, [r3, #8]
 867 0058 0090     		str	r0, [sp, #0]
 868 005a 3848     		ldr	r0, .L40+8
 869 005c 013A     		subs	r2, r2, #1
 870 005e 384B     		ldr	r3, .L40+12
 871 0060 0068     		ldr	r0, [r0, #0]
 872 0062 FFF7FEFF 		bl	chThdCreateStatic
 873              	.LVL88:
 874 0066 374B     		ldr	r3, .L40+16
 875              		.loc 1 173 0
 876 0068 4FF4FA71 		mov	r1, #500
 877              		.loc 1 171 0
 878 006c 1860     		str	r0, [r3, #0]
 879              		.loc 1 173 0
 880 006e 2046     		mov	r0, r4
 881 0070 FFF7FEFF 		bl	chSemWaitTimeout
 882              	.LVL89:
 883 0074 0546     		mov	r5, r0
 884              	.LVL90:
 885              		.loc 1 174 0
 886 0076 FFF7FEFF 		bl	test_wait_threads
 887              	.LVL91:
 888              		.loc 1 175 0
 889 007a 0420     		movs	r0, #4
 890 007c D5F10101 		rsbs	r1, r5, #1
 891 0080 38BF     		it	cc
 892 0082 0021     		movcc	r1, #0
 893 0084 FFF7FEFF 		bl	_test_assert
 894              	.LVL92:
 895 0088 0028     		cmp	r0, #0
 896 008a C8D1     		bne	.L33
 897              		.loc 1 176 0
 898 008c 2168     		ldr	r1, [r4, #0]
 899 008e 0520     		movs	r0, #5
 900 0090 B1EB040E 		subs	lr, r1, r4
 901 0094 DEF10001 		rsbs	r1, lr, #0
 902 0098 51EB0E01 		adcs	r1, r1, lr
 903 009c FFF7FEFF 		bl	_test_assert
 904              	.LVL93:
 905 00a0 0028     		cmp	r0, #0
 906 00a2 BCD1     		bne	.L33
 907              		.loc 1 177 0
 908 00a4 A168     		ldr	r1, [r4, #8]
 909 00a6 0620     		movs	r0, #6
 910 00a8 D1F10101 		rsbs	r1, r1, #1
 911 00ac 38BF     		it	cc
 912 00ae 0021     		movcc	r1, #0
ARM GAS  C:\DOCUME~1\ADMINI~1\LOCALS~1\Temp\ccZzQOwk.s 			page 17


 913 00b0 FFF7FEFF 		bl	_test_assert
 914              	.LVL94:
 915 00b4 0028     		cmp	r0, #0
 916 00b6 B2D1     		bne	.L33
 917              		.loc 1 182 0
 918 00b8 FFF7FEFF 		bl	test_wait_tick
 919              	.LVL95:
 920              		.loc 1 183 0
 921 00bc 224B     		ldr	r3, .L40+20
 922 00be 4125     		movs	r5, #65
 923              	.LVL96:
 924 00c0 DE68     		ldr	r6, [r3, #12]
 925              	.LVL97:
 926              	.L37:
 927              		.loc 1 185 0
 928 00c2 2846     		mov	r0, r5
 929 00c4 FFF7FEFF 		bl	test_emit_token
 930              	.LVL98:
 931              		.loc 1 186 0
 932 00c8 4FF4FA71 		mov	r1, #500
 933 00cc 1948     		ldr	r0, .L40
 934 00ce FFF7FEFF 		bl	chSemWaitTimeout
 935              	.LVL99:
 936              		.loc 1 187 0
 937 00d2 B0F1FF30 		subs	r0, r0, #-1
 938              	.LVL100:
 939 00d6 4142     		rsbs	r1, r0, #0
 940 00d8 4141     		adcs	r1, r1, r0
 941 00da 0720     		movs	r0, #7
 942              	.LVL101:
 943 00dc FFF7FEFF 		bl	_test_assert
 944              	.LVL102:
 945 00e0 0028     		cmp	r0, #0
 946 00e2 9CD1     		bne	.L33
 947              		.loc 1 188 0
 948 00e4 2168     		ldr	r1, [r4, #0]
 949 00e6 0820     		movs	r0, #8
 950 00e8 0A1B     		subs	r2, r1, r4
 951 00ea 5142     		rsbs	r1, r2, #0
 952 00ec 5141     		adcs	r1, r1, r2
 953 00ee FFF7FEFF 		bl	_test_assert
 954              	.LVL103:
 955 00f2 0028     		cmp	r0, #0
 956 00f4 93D1     		bne	.L33
 957              		.loc 1 189 0
 958 00f6 A168     		ldr	r1, [r4, #8]
 959 00f8 0920     		movs	r0, #9
 960 00fa D1F10101 		rsbs	r1, r1, #1
 961 00fe 38BF     		it	cc
 962 0100 0021     		movcc	r1, #0
 963 0102 FFF7FEFF 		bl	_test_assert
 964              	.LVL104:
 965 0106 0135     		adds	r5, r5, #1
 966 0108 EDB2     		uxtb	r5, r5
 967 010a 0028     		cmp	r0, #0
 968 010c 87D1     		bne	.L33
 969              		.loc 1 184 0
ARM GAS  C:\DOCUME~1\ADMINI~1\LOCALS~1\Temp\ccZzQOwk.s 			page 18


 970 010e 462D     		cmp	r5, #70
 971 0110 D7D1     		bne	.L37
 972              		.loc 1 191 0
 973 0112 0A20     		movs	r0, #10
 974 0114 0D49     		ldr	r1, .L40+24
 975 0116 FFF7FEFF 		bl	_test_assert_sequence
 976              	.LVL105:
 977 011a 0028     		cmp	r0, #0
 978 011c 7FF47FAF 		bne	.L33
 979              		.loc 1 192 0
 980 0120 0B20     		movs	r0, #11
 981 0122 06F6C411 		addw	r1, r6, #2500
 982 0126 06F6C912 		addw	r2, r6, #2505
 983              	.LBE22:
 984              	.LBE21:
 985              		.loc 1 193 0
 986 012a 02B0     		add	sp, sp, #8
 987 012c BDE87040 		pop	{r4, r5, r6, lr}
 988              	.LBB24:
 989              	.LBB23:
 990              		.loc 1 192 0
 991 0130 FFF7FEBF 		b	_test_assert_time_window
 992              	.LVL106:
 993              	.L41:
 994              		.align	2
 995              	.L40:
 996 0134 00000000 		.word	.LANCHOR0
 997 0138 00000000 		.word	rlist
 998 013c 00000000 		.word	wa
 999 0140 00000000 		.word	thread2
 1000 0144 00000000 		.word	threads
 1001 0148 00000000 		.word	vtlist
 1002 014c 14000000 		.word	.LC5
 1003              	.LBE23:
 1004              	.LBE24:
 1005              		.cfi_endproc
 1006              	.LFE12:
 1007              		.size	sem2_execute, .-sem2_execute
 1008              		.global	patternsem
 1009              		.global	testsem4
 1010              		.global	testsem3
 1011              		.global	testsem2
 1012              		.global	testsem1
 1013              		.section	.rodata.testsem1,"a",%progbits
 1014              		.align	2
 1015              		.type	testsem1, %object
 1016              		.size	testsem1, 16
 1017              	testsem1:
 1018 0000 74000000 		.word	.LC9
 1019 0004 00000000 		.word	sem1_setup
 1020 0008 00000000 		.word	0
 1021 000c 00000000 		.word	sem1_execute
 1022              		.section	.rodata.testsem2,"a",%progbits
 1023              		.align	2
 1024              		.type	testsem2, %object
 1025              		.size	testsem2, 16
 1026              	testsem2:
ARM GAS  C:\DOCUME~1\ADMINI~1\LOCALS~1\Temp\ccZzQOwk.s 			page 19


 1027 0000 60000000 		.word	.LC8
 1028 0004 00000000 		.word	sem2_setup
 1029 0008 00000000 		.word	0
 1030 000c 00000000 		.word	sem2_execute
 1031              		.section	.rodata.testsem3,"a",%progbits
 1032              		.align	2
 1033              		.type	testsem3, %object
 1034              		.size	testsem3, 16
 1035              	testsem3:
 1036 0000 40000000 		.word	.LC7
 1037 0004 00000000 		.word	sem3_setup
 1038 0008 00000000 		.word	0
 1039 000c 00000000 		.word	sem3_execute
 1040              		.section	.rodata.testsem4,"a",%progbits
 1041              		.align	2
 1042              		.type	testsem4, %object
 1043              		.size	testsem4, 16
 1044              	testsem4:
 1045 0000 1C000000 		.word	.LC6
 1046 0004 00000000 		.word	0
 1047 0008 00000000 		.word	0
 1048 000c 00000000 		.word	sem4_execute
 1049              		.section	.data.sem1,"aw",%progbits
 1050              		.align	2
 1051              		.set	.LANCHOR0,. + 0
 1052              		.type	sem1, %object
 1053              		.size	sem1, 12
 1054              	sem1:
 1055 0000 00000000 		.word	sem1
 1056 0004 00000000 		.word	sem1
 1057 0008 00000000 		.word	0
 1058              		.section	.rodata.patternsem,"a",%progbits
 1059              		.align	2
 1060              		.type	patternsem, %object
 1061              		.size	patternsem, 20
 1062              	patternsem:
 1063 0000 00000000 		.word	testsem1
 1064 0004 00000000 		.word	testsem2
 1065 0008 00000000 		.word	testsem3
 1066 000c 00000000 		.word	testsem4
 1067 0010 00000000 		.word	0
 1068              		.section	.rodata.str1.4,"aMS",%progbits,1
 1069              		.align	2
 1070              	.LC0:
 1071 0000 4100     		.ascii	"A\000"
 1072 0002 0000     		.space	2
 1073              	.LC1:
 1074 0004 4200     		.ascii	"B\000"
 1075 0006 0000     		.space	2
 1076              	.LC2:
 1077 0008 4300     		.ascii	"C\000"
 1078 000a 0000     		.space	2
 1079              	.LC3:
 1080 000c 4400     		.ascii	"D\000"
 1081 000e 0000     		.space	2
 1082              	.LC4:
 1083 0010 4500     		.ascii	"E\000"
ARM GAS  C:\DOCUME~1\ADMINI~1\LOCALS~1\Temp\ccZzQOwk.s 			page 20


 1084 0012 0000     		.space	2
 1085              	.LC5:
 1086 0014 41424344 		.ascii	"ABCDE\000"
 1086      4500
 1087 001a 0000     		.space	2
 1088              	.LC6:
 1089 001c 42696E61 		.ascii	"Binary Semaphores, functionality\000"
 1089      72792053 
 1089      656D6170 
 1089      686F7265 
 1089      732C2066 
 1090 003d 000000   		.space	3
 1091              	.LC7:
 1092 0040 53656D61 		.ascii	"Semaphores, atomic signal-wait\000"
 1092      70686F72 
 1092      65732C20 
 1092      61746F6D 
 1092      69632073 
 1093 005f 00       		.space	1
 1094              	.LC8:
 1095 0060 53656D61 		.ascii	"Semaphores, timeout\000"
 1095      70686F72 
 1095      65732C20 
 1095      74696D65 
 1095      6F757400 
 1096              	.LC9:
 1097 0074 53656D61 		.ascii	"Semaphores, enqueuing\000"
 1097      70686F72 
 1097      65732C20 
 1097      656E7175 
 1097      6575696E 
 1098 008a 0000     		.text
 1099              	.Letext0:
 1100              		.file 2 "c:\\program files\\yagarto\\bin\\../lib/gcc/arm-none-eabi/4.7.1/include/stddef.h"
 1101              		.file 3 "c:/program files/yagarto/lib/gcc/../../arm-none-eabi/sys-include/stdint.h"
 1102              		.file 4 "../../os/ports/GCC/ARMCMx/chtypes.h"
 1103              		.file 5 "../../os/kernel/include/chlists.h"
 1104              		.file 6 "../../os/kernel/include/chthreads.h"
 1105              		.file 7 "../../os/ports/GCC/ARMCMx/chcore_v7m.h"
 1106              		.file 8 "../../os/kernel/include/chvt.h"
 1107              		.file 9 "../../os/kernel/include/chschd.h"
 1108              		.file 10 "../../os/kernel/include/chsem.h"
 1109              		.file 11 "../../os/kernel/include/chbsem.h"
 1110              		.file 12 "../../os/kernel/include/chmtx.h"
 1111              		.file 13 "../../test/test.h"