ARM GAS  C:\DOCUME~1\ADMINI~1\LOCALS~1\Temp\cc7n6tzv.s 			page 1


   1              		.syntax unified
   2              		.cpu cortex-m3
   3              		.fpu softvfp
   4              		.eabi_attribute 20, 1
   5              		.eabi_attribute 21, 1
   6              		.eabi_attribute 23, 3
   7              		.eabi_attribute 24, 1
   8              		.eabi_attribute 25, 1
   9              		.eabi_attribute 26, 1
  10              		.eabi_attribute 30, 2
  11              		.eabi_attribute 34, 1
  12              		.eabi_attribute 18, 4
  13              		.thumb
  14              		.file	"testpools.c"
  15              		.text
  16              	.Ltext0:
  17              		.cfi_sections	.debug_frame
  18              		.section	.text.null_provider,"ax",%progbits
  19              		.align	2
  20              		.thumb
  21              		.thumb_func
  22              		.type	null_provider, %function
  23              	null_provider:
  24              	.LFB7:
  25              		.file 1 "../../test/testpools.c"
  26              		.loc 1 71 0
  27              		.cfi_startproc
  28              		@ args = 0, pretend = 0, frame = 0
  29              		@ frame_needed = 0, uses_anonymous_args = 0
  30              		@ link register save eliminated.
  31              	.LVL0:
  32              		.loc 1 75 0
  33 0000 0020     		movs	r0, #0
  34              	.LVL1:
  35 0002 7047     		bx	lr
  36              		.cfi_endproc
  37              	.LFE7:
  38              		.size	null_provider, .-null_provider
  39              		.section	.text.pools1_setup,"ax",%progbits
  40              		.align	2
  41              		.thumb
  42              		.thumb_func
  43              		.type	pools1_setup, %function
  44              	pools1_setup:
  45              	.LFB8:
  46              		.loc 1 77 0
  47              		.cfi_startproc
  48              		@ args = 0, pretend = 0, frame = 0
  49              		@ frame_needed = 0, uses_anonymous_args = 0
  50              		@ link register save eliminated.
  51              		.loc 1 79 0
  52 0000 40F20000 		movw	r0, #:lower16:.LANCHOR0
  53 0004 C0F20000 		movt	r0, #:upper16:.LANCHOR0
  54 0008 4FF49871 		mov	r1, #304
  55 000c 0022     		movs	r2, #0
  56              		.loc 1 80 0
  57              		.loc 1 79 0
ARM GAS  C:\DOCUME~1\ADMINI~1\LOCALS~1\Temp\cc7n6tzv.s 			page 2


  58 000e FFF7FEBF 		b	chPoolInit
  59              	.LVL2:
  60              		.cfi_endproc
  61              	.LFE8:
  62              		.size	pools1_setup, .-pools1_setup
  63 0012 00BF     		.section	.text.pools1_execute,"ax",%progbits
  64              		.align	2
  65              		.thumb
  66              		.thumb_func
  67              		.type	pools1_execute, %function
  68              	pools1_execute:
  69              	.LFB9:
  70              		.loc 1 82 0
  71              		.cfi_startproc
  72              		@ args = 0, pretend = 0, frame = 0
  73              		@ frame_needed = 0, uses_anonymous_args = 0
  74              	.LVL3:
  75 0000 38B5     		push	{r3, r4, r5, lr}
  76              	.LCFI0:
  77              		.cfi_def_cfa_offset 16
  78              		.cfi_offset 3, -16
  79              		.cfi_offset 4, -12
  80              		.cfi_offset 5, -8
  81              		.cfi_offset 14, -4
  82 0002 1A4C     		ldr	r4, .L13
  83              		.loc 1 82 0
  84 0004 04F11405 		add	r5, r4, #20
  85              	.LVL4:
  86              	.L4:
  87              		.loc 1 87 0 discriminator 2
  88 0008 54F8041F 		ldr	r1, [r4, #4]!
  89 000c 1848     		ldr	r0, .L13+4
  90 000e FFF7FEFF 		bl	chPoolFree
  91              	.LVL5:
  92              		.loc 1 86 0 discriminator 2
  93 0012 AC42     		cmp	r4, r5
  94 0014 F8D1     		bne	.L4
  95              		.loc 1 86 0 is_stmt 0
  96 0016 0524     		movs	r4, #5
  97              	.L7:
  98              		.loc 1 91 0 is_stmt 1
  99 0018 1548     		ldr	r0, .L13+4
 100 001a FFF7FEFF 		bl	chPoolAlloc
 101              	.LVL6:
 102 001e 011C     		adds	r1, r0, #0
 103 0020 18BF     		it	ne
 104 0022 0121     		movne	r1, #1
 105 0024 0120     		movs	r0, #1
 106 0026 FFF7FEFF 		bl	_test_assert
 107              	.LVL7:
 108 002a 60B9     		cbnz	r0, .L3
 109              		.loc 1 90 0
 110 002c 013C     		subs	r4, r4, #1
 111 002e F3D1     		bne	.L7
 112              		.loc 1 94 0
 113 0030 0F48     		ldr	r0, .L13+4
 114 0032 FFF7FEFF 		bl	chPoolAlloc
ARM GAS  C:\DOCUME~1\ADMINI~1\LOCALS~1\Temp\cc7n6tzv.s 			page 3


 115              	.LVL8:
 116 0036 D0F10101 		rsbs	r1, r0, #1
 117 003a 38BF     		it	cc
 118 003c 0021     		movcc	r1, #0
 119 003e 0220     		movs	r0, #2
 120 0040 FFF7FEFF 		bl	_test_assert
 121              	.LVL9:
 122 0044 00B1     		cbz	r0, .L12
 123              	.L3:
 124 0046 38BD     		pop	{r3, r4, r5, pc}
 125              	.L12:
 126              	.LBB4:
 127              	.LBB5:
 128              		.loc 1 97 0
 129 0048 1021     		movs	r1, #16
 130 004a 0A4A     		ldr	r2, .L13+8
 131 004c 0848     		ldr	r0, .L13+4
 132 004e FFF7FEFF 		bl	chPoolInit
 133              	.LVL10:
 134              		.loc 1 98 0
 135 0052 0748     		ldr	r0, .L13+4
 136 0054 FFF7FEFF 		bl	chPoolAlloc
 137              	.LVL11:
 138 0058 D0F10101 		rsbs	r1, r0, #1
 139 005c 38BF     		it	cc
 140 005e 0021     		movcc	r1, #0
 141 0060 0320     		movs	r0, #3
 142              	.LBE5:
 143              	.LBE4:
 144              		.loc 1 99 0
 145 0062 BDE83840 		pop	{r3, r4, r5, lr}
 146              	.LBB7:
 147              	.LBB6:
 148              		.loc 1 98 0
 149 0066 FFF7FEBF 		b	_test_assert
 150              	.LVL12:
 151              	.L14:
 152 006a 00BF     		.align	2
 153              	.L13:
 154 006c FCFFFFFF 		.word	wa-4
 155 0070 00000000 		.word	.LANCHOR0
 156 0074 00000000 		.word	null_provider
 157              	.LBE6:
 158              	.LBE7:
 159              		.cfi_endproc
 160              	.LFE9:
 161              		.size	pools1_execute, .-pools1_execute
 162              		.global	patternpools
 163              		.global	testpools1
 164              		.section	.rodata.str1.4,"aMS",%progbits,1
 165              		.align	2
 166              	.LC0:
 167 0000 4D656D6F 		.ascii	"Memory Pools, queue/dequeue\000"
 167      72792050 
 167      6F6F6C73 
 167      2C207175 
 167      6575652F 
ARM GAS  C:\DOCUME~1\ADMINI~1\LOCALS~1\Temp\cc7n6tzv.s 			page 4


 168              		.section	.rodata.patternpools,"a",%progbits
 169              		.align	2
 170              		.type	patternpools, %object
 171              		.size	patternpools, 8
 172              	patternpools:
 173 0000 00000000 		.word	testpools1
 174 0004 00000000 		.word	0
 175              		.section	.data.mp1,"aw",%progbits
 176              		.align	2
 177              		.set	.LANCHOR0,. + 0
 178              		.type	mp1, %object
 179              		.size	mp1, 12
 180              	mp1:
 181 0000 00000000 		.word	0
 182 0004 30010000 		.word	304
 183 0008 00000000 		.word	0
 184              		.section	.rodata.testpools1,"a",%progbits
 185              		.align	2
 186              		.type	testpools1, %object
 187              		.size	testpools1, 16
 188              	testpools1:
 189 0000 00000000 		.word	.LC0
 190 0004 00000000 		.word	pools1_setup
 191 0008 00000000 		.word	0
 192 000c 00000000 		.word	pools1_execute
 193              		.text
 194              	.Letext0:
 195              		.file 2 "c:\\program files\\yagarto\\bin\\../lib/gcc/arm-none-eabi/4.7.1/include/stddef.h"
 196              		.file 3 "c:/program files/yagarto/lib/gcc/../../arm-none-eabi/sys-include/stdint.h"
 197              		.file 4 "../../os/ports/GCC/ARMCMx/chtypes.h"
 198              		.file 5 "../../os/kernel/include/chmemcore.h"
 199              		.file 6 "../../os/kernel/include/chmempools.h"
 200              		.file 7 "../../test/test.h"